 main

 Timestamp is 6331494a (Mon Sep 26 14:40:10 2022)

 Preferred load address is 0000000140000000

 Start         Length     Name                   Class
 0001:00000000 0006ddf0H .text$mn                CODE
 0001:0006ddf0 00001040H .text$mn$00             CODE
 0001:0006ee30 00001f6aH .text$x                 CODE
 0002:00000000 00000110H .CRT$XCA                DATA
 0002:00000110 00000110H .CRT$XCAA               DATA
 0002:00000220 00000110H .CRT$XCZ                DATA
 0002:00000330 00000110H .CRT$XIA                DATA
 0002:00000440 00000110H .CRT$XIAA               DATA
 0002:00000550 00000110H .CRT$XIAC               DATA
 0002:00000660 00000140H .CRT$XIC                DATA
 0002:000007a0 00000110H .CRT$XIZ                DATA
 0002:000008b0 00000110H .CRT$XPA                DATA
 0002:000009c0 00000120H .CRT$XPX                DATA
 0002:00000ae0 00000110H .CRT$XPXA               DATA
 0002:00000bf0 00000110H .CRT$XPZ                DATA
 0002:00000d00 00000110H .CRT$XTA                DATA
 0002:00000e10 00000110H .CRT$XTZ                DATA
 0002:00000f20 0000d060H .rdata                  DATA
 0002:0000df80 00000200H .rdata$CastGuardVftablesA DATA
 0002:0000e180 000001a0H .rdata$CastGuardVftablesC DATA
 0002:0000e320 0000060cH .rdata$r                DATA
 0002:0000e92c 00000174H .rdata$zzzdbg           DATA
 0002:0000eaa0 00000110H .rtc$IAA                DATA
 0002:0000ebb0 00000110H .rtc$IZZ                DATA
 0002:0000ecc0 00000110H .rtc$TAA                DATA
 0002:0000edd0 00000110H .rtc$TZZ                DATA
 0002:0000eee0 00006bb8H .xdata                  DATA
 0002:00015a98 00000196H .xdata$x                DATA
 0002:00015c2e 00000000H .edata                  DATA
 0003:00000000 00000da0H .data                   DATA
 0003:00000da0 00000190H .data$r                 DATA
 0003:00000f30 00000230H .data$rs                DATA
 0003:00001160 00002a19H .bss                    DATA
 0004:00000000 00005448H .pdata                  DATA
 0005:00000000 00000388H .idata$5                DATA
 0005:00000388 00000014H .idata$2                DATA
 0005:0000039c 00000014H .idata$3                DATA
 0005:000003b0 00000388H .idata$4                DATA
 0005:00000738 000007f1H .idata$6                DATA
 0006:00000000 00000175H .00cfg                  DATA
 0007:00000000 0000029fH _RDATA                  DATA

  Address         Publics by Value              Rva+Base               Lib:Object

 0000:00000000       __AbsoluteZero             0000000000000000     <absolute>
 0000:00000000       ___safe_se_handler_count   0000000000000000     <absolute>
 0000:00000000       ___safe_se_handler_table   0000000000000000     <absolute>
 0000:00000000       __arm64x_extra_rfe_table   0000000000000000     <absolute>
 0000:00000000       __arm64x_extra_rfe_table_size 0000000000000000     <absolute>
 0000:00000000       __arm64x_native_entrypoint 0000000000000000     <absolute>
 0000:00000000       __arm64x_redirection_metadata 0000000000000000     <absolute>
 0000:00000000       __arm64x_redirection_metadata_count 0000000000000000     <absolute>
 0000:00000000       __dynamic_value_reloc_table 0000000000000000     <absolute>
 0000:00000000       __enclave_config           0000000000000000     <absolute>
 0000:00000000       __guard_check_icall_a64n_fptr 0000000000000000     <absolute>
 0000:00000000       __guard_eh_cont_count      0000000000000000     <absolute>
 0000:00000000       __guard_eh_cont_table      0000000000000000     <absolute>
 0000:00000000       __guard_fids_count         0000000000000000     <absolute>
 0000:00000000       __guard_fids_table         0000000000000000     <absolute>
 0000:00000000       __guard_iat_count          0000000000000000     <absolute>
 0000:00000000       __guard_iat_table          0000000000000000     <absolute>
 0000:00000000       __guard_longjmp_count      0000000000000000     <absolute>
 0000:00000000       __guard_longjmp_table      0000000000000000     <absolute>
 0000:00000000       __hybrid_auxiliary_iat     0000000000000000     <absolute>
 0000:00000000       __hybrid_auxiliary_iat_copy 0000000000000000     <absolute>
 0000:00000000       __hybrid_code_map          0000000000000000     <absolute>
 0000:00000000       __hybrid_code_map_count    0000000000000000     <absolute>
 0000:00000000       __volatile_metadata        0000000000000000     <absolute>
 0000:00000000       __x64_code_ranges_to_entry_points 0000000000000000     <absolute>
 0000:00000000       __x64_code_ranges_to_entry_points_count 0000000000000000     <absolute>
 0000:00000100       __guard_flags              0000000000000100     <absolute>
 0000:00000000       __ImageBase                0000000140000000     <linker-defined>
 0001:00006340       ?scan_token@@YA?AUToken@@XZ 0000000140007340 f   main.obj
 0001:00006760       main                       0000000140007760 f   main.obj
 0001:00006940       __local_stdio_printf_options 0000000140007940 f i main.obj
 0001:00006950       _vfprintf_l                0000000140007950 f i main.obj
 0001:000069b0       fprintf                    00000001400079b0 f i main.obj
 0001:00006a20       printf                     0000000140007a20 f i main.obj
 0001:00006aa4       __GSHandlerCheck           0000000140007aa4 f   LIBCMT:gshandler.obj
 0001:00006ac8       __GSHandlerCheckCommon     0000000140007ac8 f   LIBCMT:gshandler.obj
 0001:00006b50       __security_check_cookie    0000000140007b50 f   LIBCMT:amdsecgs.obj
 0001:00006e88       ?configure_argv@__scrt_narrow_argv_policy@@SAHXZ 0000000140007e88 f i LIBCMT:exe_main.obj
 0001:00006ea4       ?initialize_environment@__scrt_narrow_environment_policy@@SAHXZ 0000000140007ea4 f i LIBCMT:exe_main.obj
 0001:00006ef0       ?set_app_type@__scrt_main_policy@@SAXXZ 0000000140007ef0 f i LIBCMT:exe_main.obj
 0001:00006efc       ?set_commode@__scrt_file_policy@@SAXXZ 0000000140007efc f i LIBCMT:exe_main.obj
 0001:00006f1c       ?set_fmode@__scrt_file_policy@@SAXXZ 0000000140007f1c f i LIBCMT:exe_main.obj
 0001:00006f38       mainCRTStartup             0000000140007f38 f   LIBCMT:exe_main.obj
 0001:00006f50       __raise_securityfailure    0000000140007f50 f   LIBCMT:gs_report.obj
 0001:00006f94       __report_gsfailure         0000000140007f94 f   LIBCMT:gs_report.obj
 0001:0000709c       __report_rangecheckfailure 000000014000809c f   LIBCMT:gs_report.obj
 0001:000070b4       __report_securityfailure   00000001400080b4 f   LIBCMT:gs_report.obj
 0001:00007178       __report_securityfailureEx 0000000140008178 f   LIBCMT:gs_report.obj
 0001:0000747c       NtCurrentTeb               000000014000847c f i LIBCMT:utility.obj
 0001:00007488       __scrt_acquire_startup_lock 0000000140008488 f   LIBCMT:utility.obj
 0001:000074d0       __scrt_dllmain_after_initialize_c 00000001400084d0 f   LIBCMT:utility.obj
 0001:00007514       __scrt_dllmain_before_initialize_c 0000000140008514 f   LIBCMT:utility.obj
 0001:00007530       __scrt_dllmain_crt_thread_attach 0000000140008530 f   LIBCMT:utility.obj
 0001:00007564       __scrt_dllmain_crt_thread_detach 0000000140008564 f   LIBCMT:utility.obj
 0001:00007580       __scrt_dllmain_exception_filter 0000000140008580 f   LIBCMT:utility.obj
 0001:000075f8       __scrt_dllmain_uninitialize_c 00000001400085f8 f   LIBCMT:utility.obj
 0001:00007634       __scrt_dllmain_uninitialize_critical 0000000140008634 f   LIBCMT:utility.obj
 0001:00007650       __scrt_initialize_crt      0000000140008650 f   LIBCMT:utility.obj
 0001:000076ac       __scrt_initialize_onexit_tables 00000001400086ac f   LIBCMT:utility.obj
 0001:0000775c       __scrt_is_nonwritable_in_current_image 000000014000875c f   LIBCMT:utility.obj
 0001:0000781c       __scrt_release_startup_lock 000000014000881c f   LIBCMT:utility.obj
 0001:0000784c       __scrt_uninitialize_crt    000000014000884c f   LIBCMT:utility.obj
 0001:00007880       _onexit                    0000000140008880 f   LIBCMT:utility.obj
 0001:000078c8       at_quick_exit              00000001400088c8 f   LIBCMT:utility.obj
 0001:000078ec       atexit                     00000001400088ec f   LIBCMT:utility.obj
 0001:00007990       __security_init_cookie     0000000140008990 f   LIBCMT:gs_support.obj
 0001:00007a68       _matherr                   0000000140008a68 f   LIBCMT:matherr.obj
 0001:00007a6c       _get_startup_argv_mode     0000000140008a6c f   LIBCMT:argv_mode.obj
 0001:00007a74       _get_startup_commit_mode   0000000140008a74 f   LIBCMT:commit_mode.obj
 0001:00007a78       _get_startup_file_mode     0000000140008a78 f   LIBCMT:file_mode.obj
 0001:00007a80       _get_startup_new_mode      0000000140008a80 f   LIBCMT:new_mode.obj
 0001:00007a84       _get_startup_thread_locale_mode 0000000140008a84 f   LIBCMT:thread_locale.obj
 0001:00007a88       ?__scrt_initialize_type_info@@YAXXZ 0000000140008a88 f   LIBCMT:tncleanup.obj
 0001:00007a9c       ?__scrt_uninitialize_type_info@@YAXXZ 0000000140008a9c f   LIBCMT:tncleanup.obj
 0001:00007aac       _should_initialize_environment 0000000140008aac f   LIBCMT:env_mode.obj
 0001:00007ab0       _initialize_invalid_parameter_handler 0000000140008ab0 f   LIBCMT:invalid_parameter_handler.obj
 0001:00007ab4       _initialize_denormal_control 0000000140008ab4 f   LIBCMT:denormal_control.obj
 0001:00007ab8       __local_stdio_scanf_options 0000000140008ab8 f i LIBCMT:default_local_stdio_options.obj
 0001:00007ac4       __scrt_initialize_default_local_stdio_options 0000000140008ac4 f   LIBCMT:default_local_stdio_options.obj
 0001:00007ae8       __scrt_is_user_matherr_present 0000000140008ae8 f   LIBCMT:matherr_detection.obj
 0001:00007af8       __scrt_get_dyn_tls_init_callback 0000000140008af8 f   LIBCMT:dyn_tls_init.obj
 0001:00007b04       __scrt_get_dyn_tls_dtor_callback 0000000140008b04 f   LIBCMT:dyn_tls_dtor.obj
 0001:00007b10       __crt_debugger_hook        0000000140008b10 f   LIBCMT:utility_desktop.obj
 0001:00007b1c       __scrt_fastfail            0000000140008b1c f   LIBCMT:utility_desktop.obj
 0001:00007cbc       __scrt_get_show_window_mode 0000000140008cbc f   LIBCMT:utility_desktop.obj
 0001:00007d04       __scrt_initialize_mta      0000000140008d04 f   LIBCMT:utility_desktop.obj
 0001:00007d0c       __scrt_initialize_winrt    0000000140008d0c f   LIBCMT:utility_desktop.obj
 0001:00007d10       __scrt_is_managed_app      0000000140008d10 f   LIBCMT:utility_desktop.obj
 0001:00007d78       __scrt_set_unhandled_exception_filter 0000000140008d78 f   LIBCMT:utility_desktop.obj
 0001:00007d8c       __scrt_exe_initialize_mta  0000000140008d8c f   LIBCMT:utility_desktop.obj
 0001:00007d8c       __scrt_stub_for_initialize_mta 0000000140008d8c f   LIBCMT:utility_desktop.obj
 0001:00007d90       __scrt_unhandled_exception_filter 0000000140008d90 f   LIBCMT:utility_desktop.obj
 0001:00007e04       _RTC_Initialize            0000000140008e04 f   LIBCMT:initsect.obj
 0001:00007e50       _RTC_Terminate             0000000140008e50 f   LIBCMT:initsect.obj
 0001:00007e9c       _guard_check_icall_nop     0000000140008e9c f i LIBCMT:guard_support.obj
 0001:00007ea0       ReadNoFence64              0000000140008ea0 f i LIBCMT:guard_support.obj
 0001:00007ea4       ReadPointerNoFence         0000000140008ea4 f i LIBCMT:guard_support.obj
 0001:00007ea8       __castguard_check_failure_debugbreak 0000000140008ea8 f i LIBCMT:guard_support.obj
 0001:00007ecc       __castguard_check_failure_fastfail 0000000140008ecc f i LIBCMT:guard_support.obj
 0001:00007ef8       __castguard_check_failure_nop 0000000140008ef8 f i LIBCMT:guard_support.obj
 0001:00007efc       __castguard_check_failure_os_handled 0000000140008efc f i LIBCMT:guard_support.obj
 0001:00007f90       __castguard_slow_path_check_debugbreak 0000000140008f90 f i LIBCMT:guard_support.obj
 0001:00007fd4       __castguard_slow_path_check_fastfail 0000000140008fd4 f i LIBCMT:guard_support.obj
 0001:0000801c       __castguard_slow_path_check_nop 000000014000901c f i LIBCMT:guard_support.obj
 0001:00008020       __castguard_slow_path_check_os_handled 0000000140009020 f i LIBCMT:guard_support.obj
 0001:000080a8       _guard_icall_checks_enforced 00000001400090a8 f i LIBCMT:guard_support.obj
 0001:000080c4       _guard_rf_checks_enforced  00000001400090c4 f i LIBCMT:guard_support.obj
 0001:000080c8       __isa_available_init       00000001400090c8 f   LIBCMT:cpu_disp.obj
 0001:000082e0       __scrt_is_ucrt_dll_in_use  00000001400092e0 f   LIBCMT:ucrt_detection.obj
 0001:000082f0       RtlCaptureContext          00000001400092f0 f   kernel32:KERNEL32.dll
 0001:000082f6       RtlLookupFunctionEntry     00000001400092f6 f   kernel32:KERNEL32.dll
 0001:000082fc       RtlVirtualUnwind           00000001400092fc f   kernel32:KERNEL32.dll
 0001:00008302       UnhandledExceptionFilter   0000000140009302 f   kernel32:KERNEL32.dll
 0001:00008308       SetUnhandledExceptionFilter 0000000140009308 f   kernel32:KERNEL32.dll
 0001:0000830e       GetCurrentProcess          000000014000930e f   kernel32:KERNEL32.dll
 0001:00008314       TerminateProcess           0000000140009314 f   kernel32:KERNEL32.dll
 0001:0000831a       IsProcessorFeaturePresent  000000014000931a f   kernel32:KERNEL32.dll
 0001:00008320       QueryPerformanceCounter    0000000140009320 f   kernel32:KERNEL32.dll
 0001:00008326       GetCurrentProcessId        0000000140009326 f   kernel32:KERNEL32.dll
 0001:0000832c       GetCurrentThreadId         000000014000932c f   kernel32:KERNEL32.dll
 0001:00008332       GetSystemTimeAsFileTime    0000000140009332 f   kernel32:KERNEL32.dll
 0001:00008338       InitializeSListHead        0000000140009338 f   kernel32:KERNEL32.dll
 0001:0000833e       IsDebuggerPresent          000000014000933e f   kernel32:KERNEL32.dll
 0001:00008344       GetStartupInfoW            0000000140009344 f   kernel32:KERNEL32.dll
 0001:0000834a       GetModuleHandleW           000000014000934a f   kernel32:KERNEL32.dll
 0001:00008350       __C_specific_handler       0000000140009350 f   libvcruntime:riscchandler.obj
 0001:000085c4       __vcrt_initialize          00000001400095c4 f   libvcruntime:initialization.obj
 0001:000085f8       __vcrt_thread_attach       00000001400095f8 f   libvcruntime:initialization.obj
 0001:00008614       __vcrt_thread_detach       0000000140009614 f   libvcruntime:initialization.obj
 0001:0000862c       __vcrt_uninitialize        000000014000962c f   libvcruntime:initialization.obj
 0001:0000864c       __vcrt_uninitialize_critical 000000014000964c f   libvcruntime:initialization.obj
 0001:00008674       ??$?RD@__crt_internal_free_policy@@QEBAXQEBD@Z 0000000140009674 f i libvcruntime:std_type_info.obj
 0001:00008680       ??$?RX@__crt_internal_free_policy@@QEBAXQEBX@Z 0000000140009680 f i libvcruntime:std_type_info.obj
 0001:0000868c       ??$__crt_interlocked_compare_exchange_pointer@$$CBDPEAD$$T@@YAPEBDPEDSEBDQEAD$$T@Z 000000014000968c f i libvcruntime:std_type_info.obj
 0001:00008698       ??$__crt_interlocked_read_pointer@$$CBD@@YAPEBDPEDSEBD@Z 0000000140009698 f i libvcruntime:std_type_info.obj
 0001:000086a0       ??0?$__crt_unique_heap_ptr@DU__crt_internal_free_policy@@@@QEAA@QEAD@Z 00000001400096a0 f i libvcruntime:std_type_info.obj
 0001:000086a8       ??0?$__crt_unique_heap_ptr@XU__crt_internal_free_policy@@@@QEAA@QEAX@Z 00000001400096a8 f i libvcruntime:std_type_info.obj
 0001:000086b0       ??1?$__crt_unique_heap_ptr@DU__crt_internal_free_policy@@@@QEAA@XZ 00000001400096b0 f i libvcruntime:std_type_info.obj
 0001:000086d4       ??1?$__crt_unique_heap_ptr@XU__crt_internal_free_policy@@@@QEAA@XZ 00000001400096d4 f i libvcruntime:std_type_info.obj
 0001:000086f8       ??B?$__crt_unique_heap_ptr@DU__crt_internal_free_policy@@@@QEBA_NXZ 00000001400096f8 f i libvcruntime:std_type_info.obj
 0001:00008704       ??B?$__crt_unique_heap_ptr@XU__crt_internal_free_policy@@@@QEBA_NXZ 0000000140009704 f i libvcruntime:std_type_info.obj
 0001:00008740       ?__crt_interlocked_read_64@@YA_JPED_J@Z 0000000140009740 f i libvcruntime:std_type_info.obj
 0001:00008748       ?detach@?$__crt_unique_heap_ptr@XU__crt_internal_free_policy@@@@QEAAPEAXXZ 0000000140009748 f i libvcruntime:std_type_info.obj
 0001:00008754       ?get@?$__crt_unique_heap_ptr@DU__crt_internal_free_policy@@@@QEBAPEADXZ 0000000140009754 f i libvcruntime:std_type_info.obj
 0001:00008758       ?get@?$__crt_unique_heap_ptr@XU__crt_internal_free_policy@@@@QEBAPEAXXZ 0000000140009758 f i libvcruntime:std_type_info.obj
 0001:0000875c       ?is_valid@?$__crt_unique_heap_ptr@DU__crt_internal_free_policy@@@@QEBA_NXZ 000000014000975c f i libvcruntime:std_type_info.obj
 0001:00008768       ?is_valid@?$__crt_unique_heap_ptr@XU__crt_internal_free_policy@@@@QEBA_NXZ 0000000140009768 f i libvcruntime:std_type_info.obj
 0001:00008774       ?release@?$__crt_unique_heap_ptr@DU__crt_internal_free_policy@@@@QEAAXXZ 0000000140009774 f i libvcruntime:std_type_info.obj
 0001:00008798       ?release@?$__crt_unique_heap_ptr@XU__crt_internal_free_policy@@@@QEAAXXZ 0000000140009798 f i libvcruntime:std_type_info.obj
 0001:000087bc       __std_type_info_compare    00000001400097bc f   libvcruntime:std_type_info.obj
 0001:000087ec       __std_type_info_destroy_list 00000001400097ec f   libvcruntime:std_type_info.obj
 0001:00008820       __std_type_info_hash       0000000140009820 f   libvcruntime:std_type_info.obj
 0001:00008868       __std_type_info_name       0000000140009868 f   libvcruntime:std_type_info.obj
 0001:000089c8       __DestructExceptionObject  00000001400099c8 f   libvcruntime:ehhelpers.obj
 0001:00008a50       ?_CallMemberFunction0@@YAXQEAX0@Z 0000000140009a50 f i libvcruntime:ehhelpers.obj
 0001:00008ac4       ?raw_name@type_info@@QEBAPEBDXZ 0000000140009ac4 f i libvcruntime:ehhelpers.obj
 0001:00008acc       _IsExceptionObjectToBeDestroyed 0000000140009acc f   libvcruntime:ehhelpers.obj
 0001:00008b08       _SetWinRTOutOfMemoryExceptionCallback 0000000140009b08 f   libvcruntime:ehhelpers.obj
 0001:00008b14       __AdjustPointer            0000000140009b14 f   libvcruntime:ehhelpers.obj
 0001:00008b40       __FrameUnwindFilter        0000000140009b40 f   libvcruntime:ehhelpers.obj
 0001:00008bc0       __GetPlatformExceptionInfo 0000000140009bc0 f   libvcruntime:ehhelpers.obj
 0001:00008c34       __current_exception        0000000140009c34 f   libvcruntime:ehhelpers.obj
 0001:00008c4c       __current_exception_context 0000000140009c4c f   libvcruntime:ehhelpers.obj
 0001:00008c64       __processing_throw         0000000140009c64 f   libvcruntime:ehhelpers.obj
 0001:00008c7c       __std_terminate            0000000140009c7c f   libvcruntime:ehhelpers.obj
 0001:00008c88       _is_exception_typeof       0000000140009c88 f   libvcruntime:ehhelpers.obj
 0001:00008d70       memset_repstos             0000000140009d70 f   libvcruntime:memset.obj
 0001:00008d90       memset                     0000000140009d90 f   libvcruntime:memset.obj
 0001:00009220       _NLG_Notify                000000014000a220 f   libvcruntime:notify.obj
 0001:00009240       __NLG_Dispatch2            000000014000a240 f   libvcruntime:notify.obj
 0001:00009250       __NLG_Return2              000000014000a250 f   libvcruntime:notify.obj
 0001:0000926c       __except_validate_context_record 000000014000a26c f   libvcruntime:jbcxrval.obj
 0001:000092b0       __except_validate_jump_buffer 000000014000a2b0 f   libvcruntime:jbcxrval.obj
 0001:00009300       __except_validate_jump_buffer_common 000000014000a300 f i libvcruntime:jbcxrval.obj
 0001:00009374       ??$?RU__vcrt_ptd@@@__crt_internal_free_policy@@QEBAXQEBU__vcrt_ptd@@@Z 000000014000a374 f i libvcruntime:per_thread_data.obj
 0001:00009380       ??0?$__crt_unique_heap_ptr@U__vcrt_ptd@@U__crt_internal_free_policy@@@@QEAA@QEAU__vcrt_ptd@@@Z 000000014000a380 f i libvcruntime:per_thread_data.obj
 0001:000093a8       ??1?$__crt_unique_heap_ptr@U__vcrt_ptd@@U__crt_internal_free_policy@@@@QEAA@XZ 000000014000a3a8 f i libvcruntime:per_thread_data.obj
 0001:000093d8       ??B?$__crt_unique_heap_ptr@U__vcrt_ptd@@U__crt_internal_free_policy@@@@QEBA_NXZ 000000014000a3d8 f i libvcruntime:per_thread_data.obj
 0001:000093e4       ?detach@?$__crt_unique_heap_ptr@U__vcrt_ptd@@U__crt_internal_free_policy@@@@QEAAPEAU__vcrt_ptd@@XZ 000000014000a3e4 f i libvcruntime:per_thread_data.obj
 0001:000093f0       ?get@?$__crt_unique_heap_ptr@U__vcrt_ptd@@U__crt_internal_free_policy@@@@QEBAPEAU__vcrt_ptd@@XZ 000000014000a3f0 f i libvcruntime:per_thread_data.obj
 0001:000093f4       ?is_valid@?$__crt_unique_heap_ptr@U__vcrt_ptd@@U__crt_internal_free_policy@@@@QEBA_NXZ 000000014000a3f4 f i libvcruntime:per_thread_data.obj
 0001:00009400       ?release@?$__crt_unique_heap_ptr@U__vcrt_ptd@@U__crt_internal_free_policy@@@@QEAAXXZ 000000014000a400 f i libvcruntime:per_thread_data.obj
 0001:00009458       __vcrt_freefls             000000014000a458 f   libvcruntime:per_thread_data.obj
 0001:00009480       __vcrt_freeptd             000000014000a480 f   libvcruntime:per_thread_data.obj
 0001:000094e0       __vcrt_getptd              000000014000a4e0 f   libvcruntime:per_thread_data.obj
 0001:00009500       __vcrt_getptd_noexit       000000014000a500 f   libvcruntime:per_thread_data.obj
 0001:000095f0       __vcrt_getptd_noinit       000000014000a5f0 f   libvcruntime:per_thread_data.obj
 0001:00009650       __vcrt_initialize_ptd      000000014000a650 f   libvcruntime:per_thread_data.obj
 0001:000096a8       __vcrt_uninitialize_ptd    000000014000a6a8 f   libvcruntime:per_thread_data.obj
 0001:000096d4       __vcrt_initialize_locks    000000014000a6d4 f   libvcruntime:locks.obj
 0001:0000972c       __vcrt_lock                000000014000a72c f   libvcruntime:locks.obj
 0001:0000974c       __vcrt_uninitialize_locks  000000014000a74c f   libvcruntime:locks.obj
 0001:00009790       __vcrt_unlock              000000014000a790 f   libvcruntime:locks.obj
 0001:000097b0       ??$?0$00@DName@@QEAA@PEBDU?$StringLifeSelector@$00@@@Z 000000014000a7b0 f i libvcruntime:undname.obj
 0001:00009800       ??$?0$00@pcharNode@@QEAA@PEBDHU?$StringLifeSelector@$00@@@Z 000000014000a800 f i libvcruntime:undname.obj
 0001:0000981c       ??$?0$01@DName@@QEAA@PEBDU?$StringLifeSelector@$01@@@Z 000000014000a81c f i libvcruntime:undname.obj
 0001:0000986c       ??$?0$01@pcharNode@@QEAA@PEBDHU?$StringLifeSelector@$01@@@Z 000000014000a86c f i libvcruntime:undname.obj
 0001:000098fc       ??$?0$0A@@DName@@QEAA@PEBDU?$StringLifeSelector@$0A@@@@Z 000000014000a8fc f i libvcruntime:undname.obj
 0001:0000994c       ??$?0$0A@@pcharNode@@QEAA@PEBDHU?$StringLifeSelector@$0A@@@@Z 000000014000a94c f i libvcruntime:undname.obj
 0001:000099dc       ??$?0_K$0A@@?$optional@_K@std@@QEAA@$$QEA_K@Z 000000014000a9dc f i libvcruntime:undname.obj
 0001:000099f0       ??$?0_K@?$_Optional_construct_base@_K@std@@QEAA@Uin_place_t@1@$$QEA_K@Z 000000014000a9f0 f i libvcruntime:undname.obj
 0001:00009a04       ??$?0_K@?$_Optional_destruct_base@_K$00@std@@QEAA@Uin_place_t@1@$$QEA_K@Z 000000014000aa04 f i libvcruntime:undname.obj
 0001:00009a18       ??$append@VDNameNode@@@DName@@AEAAXPEBVDNameNode@@@Z 000000014000aa18 f i libvcruntime:undname.obj
 0001:00009a94       ??$append@VDNameStatusNode@@@DName@@AEAAXPEBVDNameStatusNode@@@Z 000000014000aa94 f i libvcruntime:undname.obj
 0001:00009b10       ??$append@VcharNode@@@DName@@AEAAXPEBVcharNode@@@Z 000000014000ab10 f i libvcruntime:undname.obj
 0001:00009b8c       ??$append@VpDNameNode@@@DName@@AEAAXPEBVpDNameNode@@@Z 000000014000ab8c f i libvcruntime:undname.obj
 0001:00009c08       ??$append@VpcharNode@@@DName@@AEAAXPEBVpcharNode@@@Z 000000014000ac08 f i libvcruntime:undname.obj
 0001:00009c84       ??$doPchar@$00@DName@@AEAAXPEBDH@Z 000000014000ac84 f i libvcruntime:undname.obj
 0001:00009d50       ??$doPchar@$01@DName@@AEAAXPEBDH@Z 000000014000ad50 f i libvcruntime:undname.obj
 0001:00009e0c       ??$doPchar@$0A@@DName@@AEAAXPEBDH@Z 000000014000ae0c f i libvcruntime:undname.obj
 0001:00009ec8       ??$forward@_K@std@@YA$$QEA_KAEA_K@Z 000000014000aec8 f i libvcruntime:undname.obj
 0001:0000a02c       ??$size@D$04@std@@YA_KAEAY04$$CBD@Z 000000014000b02c f i libvcruntime:undname.obj
 0001:0000a034       ??0?$_Optional_construct_base@_K@std@@QEAA@XZ 000000014000b034 f i libvcruntime:undname.obj
 0001:0000a040       ??0?$_Optional_destruct_base@_K$00@std@@QEAA@XZ 000000014000b040 f i libvcruntime:undname.obj
 0001:0000a04c       ??0?$optional@_K@std@@QEAA@XZ 000000014000b04c f i libvcruntime:undname.obj
 0001:0000a058       ??0Block@_HeapManager@@QEAA@XZ 000000014000b058 f i libvcruntime:undname.obj
 0001:0000a064       ??0DName@@QEAA@AEAPEBDD@Z  000000014000b064 f   libvcruntime:undname.obj
 0001:0000a140       ??0DName@@QEAA@AEBUStringLiteral@@@Z 000000014000b140 f   libvcruntime:undname.obj
 0001:0000a178       ??0DName@@QEAA@AEBV0@@Z    000000014000b178 f i libvcruntime:undname.obj
 0001:0000a18c       ??0DName@@QEAA@D@Z         000000014000b18c f   libvcruntime:undname.obj
 0001:0000a1b4       ??0DName@@QEAA@PEAV0@@Z    000000014000b1b4 f   libvcruntime:undname.obj
 0001:0000a258       ??0DName@@QEAA@W4DNameStatus@@@Z 000000014000b258 f   libvcruntime:undname.obj
 0001:0000a290       ??0DName@@QEAA@XZ          000000014000b290 f i libvcruntime:undname.obj
 0001:0000a2a0       ??0DName@@QEAA@_J@Z        000000014000b2a0 f   libvcruntime:undname.obj
 0001:0000a370       ??0DName@@QEAA@_K@Z        000000014000b370 f   libvcruntime:undname.obj
 0001:0000a41c       ??0DNameNode@@IEAA@XZ      000000014000b41c f i libvcruntime:undname.obj
 0001:0000a430       ??0Replicator@@QEAA@XZ     000000014000b430 f i libvcruntime:undname.obj
 0001:0000a444       ??0UnDecorator@@QEAA@PEBDP6APEADJ@ZK@Z 000000014000b444 f i libvcruntime:undname.obj
 0001:0000a4a8       ??0_Nontrivial_dummy_type@std@@QEAA@XZ 000000014000b4a8 f i libvcruntime:undname.obj
 0001:0000a4ac       ??0charNode@@QEAA@D@Z      000000014000b4ac f i libvcruntime:undname.obj
 0001:0000a4c4       ??0pDNameNode@@QEAA@PEAVDName@@@Z 000000014000b4c4 f   libvcruntime:undname.obj
 0001:0000a4f4       ??0pairNode@@QEAA@PEBVDNameNode@@0@Z 000000014000b4f4 f i libvcruntime:undname.obj
 0001:0000a51c       ??2@YAPEAX_KAEAV_HeapManager@@H@Z 000000014000b51c f   libvcruntime:undname.obj
 0001:0000a550       ??4DName@@QEAAAEAV0@AEBUStringLiteral@@@Z 000000014000b550 f   libvcruntime:undname.obj
 0001:0000a580       ??4DName@@QEAAAEAV0@AEBV0@@Z 000000014000b580 f   libvcruntime:undname.obj
 0001:0000a594       ??4DName@@QEAAAEAV0@D@Z    000000014000b594 f i libvcruntime:undname.obj
 0001:0000a5bc       ??4DName@@QEAAAEAV0@PEAV0@@Z 000000014000b5bc f   libvcruntime:undname.obj
 0001:0000a650       ??4DName@@QEAAAEAV0@W4DNameStatus@@@Z 000000014000b650 f   libvcruntime:undname.obj
 0001:0000a68c       ??AReplicator@@QEBA?AVDName@@H@Z 000000014000b68c f   libvcruntime:undname.obj
 0001:0000a6dc       ??B?$optional@_K@std@@QEBA_NXZ 000000014000b6dc f i libvcruntime:undname.obj
 0001:0000a6e0       ??D?$_Optional_construct_base@_K@std@@QEGAAAEA_KXZ 000000014000b6e0 f i libvcruntime:undname.obj
 0001:0000a6e4       ??H@YA?AVDName@@AEBUStringLiteral@@AEBV0@@Z 000000014000b6e4 f i libvcruntime:undname.obj
 0001:0000a728       ??H@YA?AVDName@@DAEBV0@@Z  000000014000b728 f i libvcruntime:undname.obj
 0001:0000a77c       ??H@YA?AVDName@@W4DNameStatus@@AEBV0@@Z 000000014000b77c f i libvcruntime:undname.obj
 0001:0000a7d8       ??HDName@@QEBA?AV0@AEBUStringLiteral@@@Z 000000014000b7d8 f   libvcruntime:undname.obj
 0001:0000a80c       ??HDName@@QEBA?AV0@AEBV0@@Z 000000014000b80c f   libvcruntime:undname.obj
 0001:0000a840       ??HDName@@QEBA?AV0@D@Z     000000014000b840 f   libvcruntime:undname.obj
 0001:0000a874       ??HDName@@QEBA?AV0@PEAV0@@Z 000000014000b874 f   libvcruntime:undname.obj
 0001:0000a8a8       ??HDName@@QEBA?AV0@W4DNameStatus@@@Z 000000014000b8a8 f   libvcruntime:undname.obj
 0001:0000a8dc       ??HStringLiteral@@QEBA?AU0@H@Z 000000014000b8dc f i libvcruntime:undname.obj
 0001:0000a8f8       ??YDName@@QEAAAEAV0@AEBUStringLiteral@@@Z 000000014000b8f8 f   libvcruntime:undname.obj
 0001:0000a998       ??YDName@@QEAAAEAV0@AEBV0@@Z 000000014000b998 f   libvcruntime:undname.obj
 0001:0000aa08       ??YDName@@QEAAAEAV0@D@Z    000000014000ba08 f   libvcruntime:undname.obj
 0001:0000aa90       ??YDName@@QEAAAEAV0@PEAV0@@Z 000000014000ba90 f   libvcruntime:undname.obj
 0001:0000ab48       ??YDName@@QEAAAEAV0@W4DNameStatus@@@Z 000000014000bb48 f   libvcruntime:undname.obj
 0001:0000abb4       ??YReplicator@@QEAAAEAV0@AEBVDName@@@Z 000000014000bbb4 f   libvcruntime:undname.obj
 0001:0000ac24       ??_5DName@@QEAAAEAV0@AEBV0@@Z 000000014000bc24 f   libvcruntime:undname.obj
 0001:0000ac40       ??__K_l@@YA?AUStringLiteral@@PEBD_K@Z 000000014000bc40 f i libvcruntime:undname.obj
 0001:0000ac50       ?Constructor@_HeapManager@@QEAAXP6APEAX_K@ZP6AXPEAX@Z@Z 000000014000bc50 f i libvcruntime:undname.obj
 0001:0000ac6c       ?Destructor@_HeapManager@@QEAAXXZ 000000014000bc6c f i libvcruntime:undname.obj
 0001:0000acc8       ?UScore@UnDecorator@@SA?AUStringLiteral@@W4Tokens@@@Z 000000014000bcc8 f   libvcruntime:undname.obj
 0001:0000ad28       ?composeDeclaration@UnDecorator@@CA?AVDName@@AEBV2@@Z 000000014000bd28 f i libvcruntime:undname.obj
 0001:0000bf64       ?doAccessSpecifiers@UnDecorator@@SAHXZ 000000014000cf64 f i libvcruntime:undname.obj
 0001:0000bf78       ?doAllocationLanguage@UnDecorator@@SAHXZ 000000014000cf78 f i libvcruntime:undname.obj
 0001:0000bf8c       ?doAllocationModel@UnDecorator@@SAHXZ 000000014000cf8c f i libvcruntime:undname.obj
 0001:0000bfa0       ?doEcsu@UnDecorator@@SAHXZ 000000014000cfa0 f i libvcruntime:undname.obj
 0001:0000bfb4       ?doEllipsis@UnDecorator@@SAHXZ 000000014000cfb4 f i libvcruntime:undname.obj
 0001:0000bfc8       ?doFunctionReturns@UnDecorator@@SAHXZ 000000014000cfc8 f i libvcruntime:undname.obj
 0001:0000bfdc       ?doMSKeywords@UnDecorator@@SAHXZ 000000014000cfdc f i libvcruntime:undname.obj
 0001:0000bff0       ?doMemberTypes@UnDecorator@@SAHXZ 000000014000cff0 f i libvcruntime:undname.obj
 0001:0000c004       ?doNameOnly@UnDecorator@@SAHXZ 000000014000d004 f i libvcruntime:undname.obj
 0001:0000c014       ?doNoIdentCharCheck@UnDecorator@@SAHXZ 000000014000d014 f i libvcruntime:undname.obj
 0001:0000c024       ?doPchar@DName@@AEAAXD@Z   000000014000d024 f   libvcruntime:undname.obj
 0001:0000c088       ?doPtr64@UnDecorator@@SAHXZ 000000014000d088 f i libvcruntime:undname.obj
 0001:0000c09c       ?doRestrictionSpec@UnDecorator@@SAHXZ 000000014000d09c f i libvcruntime:undname.obj
 0001:0000c0b0       ?doThisTypes@UnDecorator@@SAHXZ 000000014000d0b0 f i libvcruntime:undname.obj
 0001:0000c0c8       ?doThrowTypes@UnDecorator@@SAHXZ 000000014000d0c8 f i libvcruntime:undname.obj
 0001:0000c0dc       ?doTypeOnly@UnDecorator@@SAHXZ 000000014000d0dc f i libvcruntime:undname.obj
 0001:0000c0ec       ?doUnderScore@UnDecorator@@SAHXZ 000000014000d0ec f i libvcruntime:undname.obj
 0001:0000c0fc       ?getAddressOf@UnDecorator@@CA?AVDName@@XZ 000000014000d0fc f   libvcruntime:undname.obj
 0001:0000c1b0       ?getArgumentList@UnDecorator@@CA?AVDName@@XZ 000000014000d1b0 f   libvcruntime:undname.obj
 0001:0000c3d4       ?getArgumentTypes@UnDecorator@@CA?AVDName@@XZ 000000014000d3d4 f   libvcruntime:undname.obj
 0001:0000c574       ?getArrayAccess@UnDecorator@@CA?AVDName@@XZ 000000014000d574 f   libvcruntime:undname.obj
 0001:0000c634       ?getArrayObject@UnDecorator@@CA?AVDName@@XZ 000000014000d634 f   libvcruntime:undname.obj
 0001:0000c71c       ?getArrayType@UnDecorator@@CA?AVDName@@AEBV2@@Z 000000014000d71c f i libvcruntime:undname.obj
 0001:0000c9f4       ?getBasedType@UnDecorator@@CA?AVDName@@XZ 000000014000d9f4 f   libvcruntime:undname.obj
 0001:0000cb28       ?getBasicDataType@UnDecorator@@CA?AVDName@@AEBV2@@Z 000000014000db28 f   libvcruntime:undname.obj
 0001:0000d2a8       ?getCHPEName@UnDecorator@@QEAAPEADPEADH@Z 000000014000e2a8 f i libvcruntime:undname.obj
 0001:0000d40c       ?getCallIndex@UnDecorator@@CA?AVDName@@XZ 000000014000e40c f i libvcruntime:undname.obj
 0001:0000d42c       ?getCallingConvention@UnDecorator@@CA?AVDName@@XZ 000000014000e42c f   libvcruntime:undname.obj
 0001:0000d5cc       ?getDataIndirectType@UnDecorator@@CA?AVDName@@AEBV2@W4IndirectionKind@@0H@Z 000000014000e5cc f   libvcruntime:undname.obj
 0001:0000e0c4       ?getDataIndirectType@UnDecorator@@CA?AVDName@@XZ 000000014000f0c4 f i libvcruntime:undname.obj
 0001:0000e10c       ?getDataType@UnDecorator@@CA?AVDName@@PEAV2@@Z 000000014000f10c f   libvcruntime:undname.obj
 0001:0000e264       ?getDecoratedName@UnDecorator@@CA?AVDName@@XZ 000000014000f264 f   libvcruntime:undname.obj
 0001:0000e604       ?getDimension@UnDecorator@@CA?AVDName@@_N@Z 000000014000f604 f   libvcruntime:undname.obj
 0001:0000e7a0       ?getDispatchTarget@UnDecorator@@CA?AVDName@@XZ 000000014000f7a0 f   libvcruntime:undname.obj
 0001:0000e800       ?getDisplacement@UnDecorator@@CA?AVDName@@XZ 000000014000f800 f i libvcruntime:undname.obj
 0001:0000e820       ?getECSUDataType@UnDecorator@@CA?AVDName@@XZ 000000014000f820 f   libvcruntime:undname.obj
 0001:0000ea78       ?getECSUName@UnDecorator@@CA?AVDName@@XZ 000000014000fa78 f i libvcruntime:undname.obj
 0001:0000ea94       ?getEnumType@UnDecorator@@CA?AVDName@@XZ 000000014000fa94 f i libvcruntime:undname.obj
 0001:0000ec10       ?getExtendedDataIndirectType@UnDecorator@@CA?AVDName@@AEAW4IndirectionKind@@AEA_NH@Z 000000014000fc10 f   libvcruntime:undname.obj
 0001:0000ee94       ?getExternalDataType@UnDecorator@@CA?AVDName@@AEBV2@@Z 000000014000fe94 f i libvcruntime:undname.obj
 0001:0000ef84       ?getFloatingPoint@UnDecorator@@CA?AVDName@@H@Z 000000014000ff84 f   libvcruntime:undname.obj
 0001:0000f144       ?getFunctionIndirectType@UnDecorator@@CA?AVDName@@AEBV2@@Z 0000000140010144 f   libvcruntime:undname.obj
 0001:0000f7b4       ?getGuardNumber@UnDecorator@@CA?AVDName@@XZ 00000001400107b4 f i libvcruntime:undname.obj
 0001:0000f7d4       ?getLastChar@DName@@QEBADXZ 00000001400107d4 f i libvcruntime:undname.obj
 0001:0000f7f4       ?getLastChar@DNameStatusNode@@UEBADXZ 00000001400107f4 f i libvcruntime:undname.obj
 0001:0000f804       ?getLastChar@charNode@@UEBADXZ 0000000140010804 f i libvcruntime:undname.obj
 0001:0000f808       ?getLastChar@pDNameNode@@UEBADXZ 0000000140010808 f i libvcruntime:undname.obj
 0001:0000f83c       ?getLastChar@pairNode@@UEBADXZ 000000014001083c f i libvcruntime:undname.obj
 0001:0000f880       ?getLastChar@pcharNode@@UEBADXZ 0000000140010880 f i libvcruntime:undname.obj
 0001:0000f89c       ?getLexicalFrame@UnDecorator@@CA?AVDName@@XZ 000000014001089c f i libvcruntime:undname.obj
 0001:0000f918       ?getMemberAccess@UnDecorator@@CA?AVDName@@XZ 0000000140010918 f   libvcruntime:undname.obj
 0001:0000f9d0       ?getMemoryWithBuffer@_HeapManager@@QEAAPEAX_K@Z 00000001400109d0 f   libvcruntime:undname.obj
 0001:0000fa84       ?getMemoryWithoutBuffer@_HeapManager@@QEAAPEAX_K@Z 0000000140010a84 f   libvcruntime:undname.obj
 0001:0000fa9c       ?getNoexcept@UnDecorator@@CA?AVDName@@XZ 0000000140010a9c f   libvcruntime:undname.obj
 0001:0000fb18       ?getNumberOfDimensions@UnDecorator@@CAHXZ 0000000140010b18 f   libvcruntime:undname.obj
 0001:0000fb9c       ?getOperatorName@UnDecorator@@CA?AVDName@@_NPEA_N@Z 0000000140010b9c f i libvcruntime:undname.obj
 0001:00010828       ?getPointerToMember@UnDecorator@@CA?AVDName@@XZ 0000000140011828 f   libvcruntime:undname.obj
 0001:0001095c       ?getPointerType@UnDecorator@@CA?AVDName@@AEBV2@0@Z 000000014001195c f i libvcruntime:undname.obj
 0001:00010980       ?getPointerTypeArray@UnDecorator@@CA?AVDName@@AEBV2@0@Z 0000000140011980 f i libvcruntime:undname.obj
 0001:000109a0       ?getPrimaryDataType@UnDecorator@@CA?AVDName@@AEBV2@@Z 00000001400119a0 f   libvcruntime:undname.obj
 0001:00010d08       ?getPtrRefDataType@UnDecorator@@CA?AVDName@@AEBV2@H@Z 0000000140011d08 f   libvcruntime:undname.obj
 0001:00010f48       ?getPtrRefType@UnDecorator@@CA?AVDName@@AEBV2@0W4IndirectionKind@@@Z 0000000140011f48 f   libvcruntime:undname.obj
 0001:00011194       ?getReferenceType@UnDecorator@@CA?AVDName@@AEBV2@0W4IndirectionKind@@@Z 0000000140012194 f i libvcruntime:undname.obj
 0001:000111b0       ?getRestrictionSpec@UnDecorator@@CA?AVDName@@XZ 00000001400121b0 f   libvcruntime:undname.obj
 0001:00011400       ?getReturnType@UnDecorator@@CA?AVDName@@PEAV2@@Z 0000000140012400 f   libvcruntime:undname.obj
 0001:00011444       ?getScope@UnDecorator@@CA?AVDName@@XZ 0000000140012444 f   libvcruntime:undname.obj
 0001:00011a2c       ?getScopedName@UnDecorator@@CA?AVDName@@XZ 0000000140012a2c f   libvcruntime:undname.obj
 0001:00011bb8       ?getSignedDimension@UnDecorator@@CA?AVDName@@XZ 0000000140012bb8 f   libvcruntime:undname.obj
 0001:00011c60       ?getStorageConvention@UnDecorator@@CA?AVDName@@XZ 0000000140012c60 f i libvcruntime:undname.obj
 0001:00011ca8       ?getString@DName@@QEBAPEADPEAD0@Z 0000000140012ca8 f i libvcruntime:undname.obj
 0001:00011cc8       ?getString@DName@@QEBAPEADPEADH@Z 0000000140012cc8 f i libvcruntime:undname.obj
 0001:00011d80       ?getString@DNameStatusNode@@UEBAPEADPEAD0@Z 0000000140012d80 f i libvcruntime:undname.obj
 0001:00011dd8       ?getString@charNode@@UEBAPEADPEAD0@Z 0000000140012dd8 f i libvcruntime:undname.obj
 0001:00011df0       ?getString@pDNameNode@@UEBAPEADPEAD0@Z 0000000140012df0 f i libvcruntime:undname.obj
 0001:00011e28       ?getString@pairNode@@UEBAPEADPEAD0@Z 0000000140012e28 f i libvcruntime:undname.obj
 0001:00011e88       ?getString@pcharNode@@UEBAPEADPEAD0@Z 0000000140012e88 f i libvcruntime:undname.obj
 0001:00011ecc       ?getStringEncoding@UnDecorator@@CA?AVDName@@W4PrefixKind@@H@Z 0000000140012ecc f   libvcruntime:undname.obj
 0001:00011ff8       ?getStringHelper@@YAPEADPEADPEBD1H@Z 0000000140012ff8 f i libvcruntime:undname.obj
 0001:00012030       ?getStringObject@UnDecorator@@CA?AVDName@@XZ 0000000140013030 f   libvcruntime:undname.obj
 0001:000120b4       ?getSymbolName@UnDecorator@@CA?AVDName@@XZ 00000001400130b4 f i libvcruntime:undname.obj
 0001:00012114       ?getTemplateArgumentList@UnDecorator@@CA?AVDName@@XZ 0000000140013114 f   libvcruntime:undname.obj
 0001:000123b8       ?getTemplateName@UnDecorator@@CA?AVDName@@_N@Z 00000001400133b8 f   libvcruntime:undname.obj
 0001:000126f0       ?getTemplateNonTypeArgument@UnDecorator@@CA?AVDName@@XZ 00000001400136f0 f   libvcruntime:undname.obj
 0001:00012d94       ?getTemplateTypeArgument@UnDecorator@@CA?AVDName@@XZ 0000000140013d94 f   libvcruntime:undname.obj
 0001:00012f58       ?getThisType@UnDecorator@@CA?AVDName@@XZ 0000000140013f58 f i libvcruntime:undname.obj
 0001:00012fa8       ?getThrowTypes@UnDecorator@@CA?AVDName@@XZ 0000000140013fa8 f   libvcruntime:undname.obj
 0001:00012fd4       ?getTypeEncoding@UnDecorator@@CAHXZ 0000000140013fd4 f i libvcruntime:undname.obj
 0001:00013454       ?getUndecoratedName@UnDecorator@@QEAAPEADPEADH@Z 0000000140014454 f i libvcruntime:undname.obj
 0001:000135fc       ?getUnionObject@UnDecorator@@CA?AVDName@@XZ 00000001400145fc f   libvcruntime:undname.obj
 0001:00013708       ?getVCallThunkType@UnDecorator@@CA?AVDName@@XZ 0000000140014708 f i libvcruntime:undname.obj
 0001:0001379c       ?getValue@UnDecorator@@CA?AV?$optional@_K@std@@XZ 000000014001479c f   libvcruntime:undname.obj
 0001:0001382c       ?getValueObject@UnDecorator@@CA?AVDName@@XZ 000000014001482c f   libvcruntime:undname.obj
 0001:000139bc       ?getVbTableType@UnDecorator@@CA?AVDName@@AEBV2@@Z 00000001400149bc f i libvcruntime:undname.obj
 0001:000139d8       ?getVdispMapType@UnDecorator@@CA?AVDName@@AEBV2@@Z 00000001400149d8 f i libvcruntime:undname.obj
 0001:00013a74       ?getVfTableType@UnDecorator@@CA?AVDName@@AEBV2@@Z 0000000140014a74 f i libvcruntime:undname.obj
 0001:00013d00       ?getZName@UnDecorator@@CA?AVDName@@_N0@Z 0000000140014d00 f   libvcruntime:undname.obj
 0001:00014098       ?haveTemplateParameters@UnDecorator@@SAHXZ 0000000140015098 f i libvcruntime:undname.obj
 0001:000140a8       ?isArray@DName@@QEBAHXZ    00000001400150a8 f i libvcruntime:undname.obj
 0001:000140b4       ?isComArray@DName@@QEBAHXZ 00000001400150b4 f i libvcruntime:undname.obj
 0001:000140c0       ?isEmpty@DName@@QEBAHXZ    00000001400150c0 f i libvcruntime:undname.obj
 0001:000140cc       ?isFull@Replicator@@QEBAHXZ 00000001400150cc f i libvcruntime:undname.obj
 0001:000140d8       ?isNoTE@DName@@QEBAHXZ     00000001400150d8 f i libvcruntime:undname.obj
 0001:000140e4       ?isPinPtr@DName@@QEBAHXZ   00000001400150e4 f i libvcruntime:undname.obj
 0001:000140f0       ?isPtrRef@DName@@QEBAHXZ   00000001400150f0 f i libvcruntime:undname.obj
 0001:000140fc       ?isUDC@DName@@QEBAHXZ      00000001400150fc f i libvcruntime:undname.obj
 0001:00014118       ?isUDTThunk@DName@@QEBAHXZ 0000000140015118 f i libvcruntime:undname.obj
 0001:00014134       ?isVCallThunk@DName@@QEBAHXZ 0000000140015134 f i libvcruntime:undname.obj
 0001:00014140       ?isValid@DName@@QEBAHXZ    0000000140015140 f i libvcruntime:undname.obj
 0001:0001414c       ?length@DName@@QEBAHXZ     000000014001514c f i libvcruntime:undname.obj
 0001:0001416c       ?length@DNameStatusNode@@UEBAHXZ 000000014001516c f i libvcruntime:undname.obj
 0001:00014170       ?length@charNode@@UEBAHXZ  0000000140015170 f i libvcruntime:undname.obj
 0001:00014178       ?length@pDNameNode@@UEBAHXZ 0000000140015178 f i libvcruntime:undname.obj
 0001:000141ac       ?length@pairNode@@UEBAHXZ  00000001400151ac f i libvcruntime:undname.obj
 0001:00014204       ?length@pcharNode@@UEBAHXZ 0000000140015204 f i libvcruntime:undname.obj
 0001:00014208       ?make@DNameStatusNode@@SAPEBV1@W4DNameStatus@@@Z 0000000140015208 f i libvcruntime:undname.obj
 0001:00014230       ?parseDecoratedName@UnDecorator@@CA?AVDName@@XZ 0000000140015230 f   libvcruntime:undname.obj
 0001:00014388       ?raw_length@DNameStatusNode@@UEBAHXZ 0000000140015388 f i libvcruntime:undname.obj
 0001:0001438c       ?raw_length@charNode@@UEBAHXZ 000000014001538c f i libvcruntime:undname.obj
 0001:00014394       ?raw_length@pDNameNode@@UEBAHXZ 0000000140015394 f i libvcruntime:undname.obj
 0001:00014398       ?raw_length@pairNode@@UEBAHXZ 0000000140015398 f i libvcruntime:undname.obj
 0001:0001439c       ?raw_length@pcharNode@@UEBAHXZ 000000014001539c f i libvcruntime:undname.obj
 0001:000143a0       ?setIsArray@DName@@QEAAXXZ 00000001400153a0 f i libvcruntime:undname.obj
 0001:000143a8       ?setIsComArray@DName@@QEAAXXZ 00000001400153a8 f i libvcruntime:undname.obj
 0001:000143b0       ?setIsNoTE@DName@@QEAAXXZ  00000001400153b0 f i libvcruntime:undname.obj
 0001:000143b8       ?setIsPinPtr@DName@@QEAAXXZ 00000001400153b8 f i libvcruntime:undname.obj
 0001:000143c0       ?setIsUDC@DName@@QEAAXXZ   00000001400153c0 f i libvcruntime:undname.obj
 0001:000143d0       ?setIsVCallThunk@DName@@QEAAXXZ 00000001400153d0 f i libvcruntime:undname.obj
 0001:000143d8       ?setPtrRef@DName@@QEAAAEAV1@XZ 00000001400153d8 f i libvcruntime:undname.obj
 0001:000143e4       ?status@DName@@QEBA?AW4DNameStatus@@XZ 00000001400153e4 f i libvcruntime:undname.obj
 0001:0001445c       __unDName                  000000014001545c f   libvcruntime:undname.obj
 0001:0001448c       __unDNameEx                000000014001548c f   libvcruntime:undname.obj
 0001:0001460c       _vsprintf_s_l              000000014001560c f i libvcruntime:undname.obj
 0001:00014688       snprintf                   0000000140015688 f i libvcruntime:undname.obj
 0001:000146f4       sprintf_s                  00000001400156f4 f i libvcruntime:undname.obj
 0001:0001475c       unDNameGenerateCHPE        000000014001575c f   libvcruntime:undname.obj
 0001:000148a4       vsnprintf                  00000001400158a4 f i libvcruntime:undname.obj
 0001:00014920       ??$__crt_interlocked_exchange_pointer@UHINSTANCE__@@PEAU1@@@YAPEAUHINSTANCE__@@PEDSEAU0@QEAU0@@Z 0000000140015920 f i libvcruntime:winapi_downlevel.obj
 0001:00014928       ??$__crt_interlocked_exchange_pointer@UHINSTANCE__@@PEAX@@YAPEAUHINSTANCE__@@PEDSEAU0@QEAX@Z 0000000140015928 f i libvcruntime:winapi_downlevel.obj
 0001:00014930       ??$__crt_interlocked_exchange_pointer@XPEAX@@YAPEAXPEDSEAXQEAX@Z 0000000140015930 f i libvcruntime:winapi_downlevel.obj
 0001:00014938       ??$__crt_interlocked_read_pointer@UHINSTANCE__@@@@YAPEAUHINSTANCE__@@PEDSEAU0@@Z 0000000140015938 f i libvcruntime:winapi_downlevel.obj
 0001:00014940       ??$__crt_interlocked_read_pointer@X@@YAPEAXPEDSEAX@Z 0000000140015940 f i libvcruntime:winapi_downlevel.obj
 0001:00014fc8       __vcrt_FlsAlloc            0000000140015fc8 f   libvcruntime:winapi_downlevel.obj
 0001:00015020       __vcrt_FlsFree             0000000140016020 f   libvcruntime:winapi_downlevel.obj
 0001:00015078       __vcrt_FlsGetValue         0000000140016078 f   libvcruntime:winapi_downlevel.obj
 0001:000150d0       __vcrt_FlsSetValue         00000001400160d0 f   libvcruntime:winapi_downlevel.obj
 0001:00015138       __vcrt_InitializeCriticalSectionEx 0000000140016138 f   libvcruntime:winapi_downlevel.obj
 0001:000151b4       ??$__crt_interlocked_exchange_pointer@$$A6AXXZP6AXXZ@@YAP6AXXZPEDS6AXXZQ6AXXZ@Z 00000001400161b4 f i libvcruntime:purevirt.obj
 0001:000151bc       ??$__crt_interlocked_read_pointer@$$A6AXXZ@@YAP6AXXZPEDS6AXXZ@Z 00000001400161bc f i libvcruntime:purevirt.obj
 0001:000151c4       _get_purecall_handler      00000001400161c4 f   libvcruntime:purevirt.obj
 0001:000151d0       _purecall                  00000001400161d0 f   libvcruntime:purevirt.obj
 0001:000151f0       _set_purecall_handler      00000001400161f0 f   libvcruntime:purevirt.obj
 0001:00015200       ??$?0AEAViterator@TryBlockMap4@FH4@@AEAV012@$0A@@?$pair@Viterator@TryBlockMap4@FH4@@V123@@std@@QEAA@AEAViterator@TryBlockMap4@FH4@@0@Z 0000000140016200 f i libvcruntime:risctrnsctrl.obj
 0001:0001521c       ??$?0AEAViterator@TryBlockMap@__FrameHandler3@@AEAV012@$0A@@?$pair@Viterator@TryBlockMap@__FrameHandler3@@V123@@std@@QEAA@AEAViterator@TryBlockMap@__FrameHandler3@@0@Z 000000014001621c f i libvcruntime:risctrnsctrl.obj
 0001:000153c4       ??$_CallSETranslator@V__FrameHandler3@@@@YAHPEAUEHExceptionRecord@@PEA_KPEAU_CONTEXT@@PEAU_xDISPATCHER_CONTEXT@@PEBU_s_FuncInfo@@K1H@Z 00000001400163c4 f i libvcruntime:risctrnsctrl.obj
 0001:0001542c       ??$_CallSETranslator@V__FrameHandler4@@@@YAHPEAUEHExceptionRecord@@PEA_KPEAU_CONTEXT@@PEAU_xDISPATCHER_CONTEXT@@PEAUFuncInfo4@FH4@@K1H@Z 000000014001642c f i libvcruntime:risctrnsctrl.obj
 0001:00015494       ??$forward@AEAViterator@TryBlockMap4@FH4@@@std@@YAAEAViterator@TryBlockMap4@FH4@@AEAV123@@Z 0000000140016494 f i libvcruntime:risctrnsctrl.obj
 0001:00015498       ??$forward@AEAViterator@TryBlockMap@__FrameHandler3@@@std@@YAAEAViterator@TryBlockMap@__FrameHandler3@@AEAV123@@Z 0000000140016498 f i libvcruntime:risctrnsctrl.obj
 0001:0001549c       ??0FuncInfo4@FH4@@QEAA@XZ  000000014001649c f i libvcruntime:risctrnsctrl.obj
 0001:000154b4       ??0FuncInfoHeader@FH4@@QEAA@XZ 00000001400164b4 f i libvcruntime:risctrnsctrl.obj
 0001:000154bc       ??0iterator@TryBlockMap4@FH4@@QEAA@AEAV12@I@Z 00000001400164bc f i libvcruntime:risctrnsctrl.obj
 0001:000154cc       ??0iterator@TryBlockMap@__FrameHandler3@@QEAA@AEAV12@I@Z 00000001400164cc f i libvcruntime:risctrnsctrl.obj
 0001:000154dc       ??4iterator@TryBlockMap4@FH4@@QEAAAEAV012@AEBV012@@Z 00000001400164dc f i libvcruntime:risctrnsctrl.obj
 0001:000154e8       ??9iterator@TryBlockMap4@FH4@@QEBA_NAEBV012@@Z 00000001400164e8 f i libvcruntime:risctrnsctrl.obj
 0001:000154f4       ??Diterator@TryBlockMap4@FH4@@QEAA?AUTryBlockMapEntry4@2@XZ 00000001400164f4 f i libvcruntime:risctrnsctrl.obj
 0001:00015508       ??Eiterator@TryBlockMap4@FH4@@QEAAAEAV012@XZ 0000000140016508 f i libvcruntime:risctrnsctrl.obj
 0001:000155cc       ?CatchTryBlock@__FrameHandler3@@SAPEBU_s_TryBlockMapEntry@@PEBU_s_FuncInfo@@H@Z 00000001400165cc f   libvcruntime:risctrnsctrl.obj
 0001:00015648       ?DecompFuncInfo@FH4@@YA_JPEAEAEAUFuncInfo4@1@_KH@Z 0000000140016648 f i libvcruntime:risctrnsctrl.obj
 0001:00015660       ?DecompFuncInfo@FH4@@YA_JPEAEAEAUFuncInfo4@1@_KH_N@Z 0000000140016660 f i libvcruntime:risctrnsctrl.obj
 0001:000157cc       ?DecompTryBlock@TryBlockMap4@FH4@@AEAAXXZ 00000001400167cc f i libvcruntime:risctrnsctrl.obj
 0001:00015884       ?ExecutionInCatch@__FrameHandler3@@SA_NPEAU_xDISPATCHER_CONTEXT@@PEBU_s_FuncInfo@@@Z 0000000140016884 f   libvcruntime:risctrnsctrl.obj
 0001:000158b8       ?ExecutionInCatch@__FrameHandler4@@SA_NPEAU_xDISPATCHER_CONTEXT@@PEAUFuncInfo4@FH4@@@Z 00000001400168b8 f   libvcruntime:risctrnsctrl.obj
 0001:000158c0       ?FrameUnwindToEmptyState@__FrameHandler3@@SAXPEA_KPEAU_xDISPATCHER_CONTEXT@@PEBU_s_FuncInfo@@@Z 00000001400168c0 f   libvcruntime:risctrnsctrl.obj
 0001:00015940       ?FrameUnwindToEmptyState@__FrameHandler4@@SAXPEA_KPEAU_xDISPATCHER_CONTEXT@@PEAUFuncInfo4@FH4@@@Z 0000000140016940 f   libvcruntime:risctrnsctrl.obj
 0001:00015980       ?GetEstablisherFrame@__FrameHandler3@@SAPEA_KPEA_KPEAU_xDISPATCHER_CONTEXT@@PEBU_s_FuncInfo@@0@Z 0000000140016980 f   libvcruntime:risctrnsctrl.obj
 0001:00015a80       ?GetEstablisherFrame@__FrameHandler4@@SAPEA_KPEA_KPEAU_xDISPATCHER_CONTEXT@@PEAUFuncInfo4@FH4@@0@Z 0000000140016a80 f   libvcruntime:risctrnsctrl.obj
 0001:00015aac       ?GetRangeOfTrysToCheck@__FrameHandler3@@SA?AU?$pair@Viterator@TryBlockMap@__FrameHandler3@@V123@@std@@AEAVTryBlockMap@1@HPEAU_xDISPATCHER_CONTEXT@@PEBU_s_FuncInfo@@H@Z 0000000140016aac f   libvcruntime:risctrnsctrl.obj
 0001:00015c3c       ?GetRangeOfTrysToCheck@__FrameHandler4@@SA?AU?$pair@Viterator@TryBlockMap4@FH4@@V123@@std@@AEAVTryBlockMap4@FH4@@HPEAU_xDISPATCHER_CONTEXT@@PEAUFuncInfo4@5@H@Z 0000000140016c3c f   libvcruntime:risctrnsctrl.obj
 0001:00015e00       ?ReadInt@FH4@@YAHPEAPEAE@Z 0000000140016e00 f i libvcruntime:risctrnsctrl.obj
 0001:00015e10       ?ReadUnsigned@FH4@@YAIPEAPEAE@Z 0000000140016e10 f i libvcruntime:risctrnsctrl.obj
 0001:00015e4c       ?UnwindNestedFrames@__FrameHandler3@@SAXPEA_KPEAUEHExceptionRecord@@PEAU_CONTEXT@@0PEAXPEBU_s_FuncInfo@@HHPEBU_s_HandlerType@@PEAU_xDISPATCHER_CONTEXT@@E@Z 0000000140016e4c f   libvcruntime:risctrnsctrl.obj
 0001:00015f90       ?UnwindNestedFrames@__FrameHandler4@@SAXPEA_KPEAUEHExceptionRecord@@PEAU_CONTEXT@@0PEAXPEAUFuncInfo4@FH4@@HHPEAUHandlerType4@5@PEAU_xDISPATCHER_CONTEXT@@E@Z 0000000140016f90 f   libvcruntime:risctrnsctrl.obj
 0001:000160f8       ?begin@TryBlockMap4@FH4@@QEAA?AViterator@12@XZ 00000001400170f8 f i libvcruntime:risctrnsctrl.obj
 0001:00016108       ?end@TryBlockMap4@FH4@@QEAA?AViterator@12@XZ 0000000140017108 f i libvcruntime:risctrnsctrl.obj
 0001:00016118       ?imageRelToByteBuffer@FH4@@YAPEAE_KH@Z 0000000140017118 f i libvcruntime:risctrnsctrl.obj
 0001:00016120       ?incrementToSentinel@iterator@TryBlockMap4@FH4@@QEAAXXZ 0000000140017120 f i libvcruntime:risctrnsctrl.obj
 0001:00016124       ?setBuffer@TryBlockMap4@FH4@@QEAAXViterator@12@@Z 0000000140017124 f i libvcruntime:risctrnsctrl.obj
 0001:00016358       _CreateFrameInfo           0000000140017358 f   libvcruntime:risctrnsctrl.obj
 0001:000163a0       _FindAndUnlinkFrame        00000001400173a0 f   libvcruntime:risctrnsctrl.obj
 0001:00016408       _GetImageBase              0000000140017408 f   libvcruntime:risctrnsctrl.obj
 0001:00016420       _GetThrowImageBase         0000000140017420 f   libvcruntime:risctrnsctrl.obj
 0001:00016438       _SetImageBase              0000000140017438 f   libvcruntime:risctrnsctrl.obj
 0001:00016458       _SetThrowImageBase         0000000140017458 f   libvcruntime:risctrnsctrl.obj
 0001:00016478       __CxxFrameHandler          0000000140017478 f   libvcruntime:risctrnsctrl.obj
 0001:00016480       __CxxFrameHandler2         0000000140017480 f   libvcruntime:risctrnsctrl.obj
 0001:00016488       __CxxFrameHandler3         0000000140017488 f   libvcruntime:risctrnsctrl.obj
 0001:00016530       __CxxFrameHandler4         0000000140017530 f   libvcruntime:risctrnsctrl.obj
 0001:00016630       memcpy_repmovs             0000000140017630 f   libvcruntime:memcpy.obj
 0001:00016650       memcpy                     0000000140017650 f   libvcruntime:memcpy.obj
 0001:00016650       memmove                    0000000140017650 f   libvcruntime:memcpy.obj
 0001:00016e70       ?GetCurrentState@__FrameHandler3@@SAHPEA_KPEAU_xDISPATCHER_CONTEXT@@PEBU_s_FuncInfo@@@Z 0000000140017e70 f   libvcruntime:ehstate.obj
 0001:00016ea0       ?GetUnwindTryBlock@__FrameHandler3@@SAHPEA_KPEAU_xDISPATCHER_CONTEXT@@PEBU_s_FuncInfo@@@Z 0000000140017ea0 f   libvcruntime:ehstate.obj
 0001:00016ed4       ?SetState@__FrameHandler3@@SAXPEA_KPEBU_s_FuncInfo@@H@Z 0000000140017ed4 f   libvcruntime:ehstate.obj
 0001:00016ee4       ?SetUnwindTryBlock@__FrameHandler3@@SAXPEA_KPEAU_xDISPATCHER_CONTEXT@@PEBU_s_FuncInfo@@H@Z 0000000140017ee4 f   libvcruntime:ehstate.obj
 0001:00016f30       ?StateFromControlPc@__FrameHandler3@@SAHPEBU_s_FuncInfo@@PEAU_xDISPATCHER_CONTEXT@@@Z 0000000140017f30 f   libvcruntime:ehstate.obj
 0001:00016f3c       ?StateFromControlPc@__FrameHandler4@@SAHPEAUFuncInfo4@FH4@@PEAU_xDISPATCHER_CONTEXT@@@Z 0000000140017f3c f   libvcruntime:ehstate.obj
 0001:00016f48       ?StateFromIp@__FrameHandler3@@SAHPEBU_s_FuncInfo@@PEAU_xDISPATCHER_CONTEXT@@_K@Z 0000000140017f48 f   libvcruntime:ehstate.obj
 0001:00016fc8       ?StateFromIp@__FrameHandler4@@SAHPEAUFuncInfo4@FH4@@PEAU_xDISPATCHER_CONTEXT@@_K@Z 0000000140017fc8 f   libvcruntime:ehstate.obj
 0001:000170f0       ?__FuncRelToRealOffset@@YA_KPEAU_xDISPATCHER_CONTEXT@@I@Z 00000001400180f0 f i libvcruntime:ehstate.obj
 0001:00017104       ?__RVAtoRealOffset@@YA_KPEAU_xDISPATCHER_CONTEXT@@H@Z 0000000140018104 f i libvcruntime:ehstate.obj
 0001:00018ca0       ??$TypeMatchHelper@V__FrameHandler3@@@@YAHPEBU_s_HandlerType@@PEBU_s_CatchableType@@PEBU_s_ThrowInfo@@@Z 0000000140019ca0 f i libvcruntime:frame.obj
 0001:00018e2c       ??$TypeMatchHelper@V__FrameHandler4@@@@YAHPEAUHandlerType4@FH4@@PEBU_s_CatchableType@@PEBU_s_ThrowInfo@@@Z 0000000140019e2c f i libvcruntime:frame.obj
 0001:00018fc0       ??$__InternalCxxFrameHandler@V__FrameHandler3@@@@YA?AW4_EXCEPTION_DISPOSITION@@PEAUEHExceptionRecord@@PEA_KPEAU_CONTEXT@@PEAU_xDISPATCHER_CONTEXT@@PEBU_s_FuncInfo@@H1E@Z 0000000140019fc0 f i libvcruntime:frame.obj
 0001:00019284       ??$__InternalCxxFrameHandler@V__FrameHandler4@@@@YA?AW4_EXCEPTION_DISPOSITION@@PEAUEHExceptionRecord@@PEA_KPEAU_CONTEXT@@PEAU_xDISPATCHER_CONTEXT@@PEAUFuncInfo4@FH4@@H1E@Z 000000014001a284 f i libvcruntime:frame.obj
 0001:000195c0       ??0HandlerMap4@FH4@@QEAA@PEBUTryBlockMapEntry4@1@_KH@Z 000000014001a5c0 f i libvcruntime:frame.obj
 0001:00019658       ??0HandlerMap@__FrameHandler3@@QEAA@PEBU_s_TryBlockMapEntry@@_KI@Z 000000014001a658 f i libvcruntime:frame.obj
 0001:00019674       ??0HandlerType4@FH4@@QEAA@XZ 000000014001a674 f i libvcruntime:frame.obj
 0001:00019690       ??0TryBlockMap4@FH4@@QEAA@PEBUFuncInfo4@1@_K@Z 000000014001a690 f i libvcruntime:frame.obj
 0001:0001979c       ??0TryBlockMap@__FrameHandler3@@QEAA@PEBU_s_FuncInfo@@_K@Z 000000014001a79c f i libvcruntime:frame.obj
 0001:000197ac       ??0UWMap4@FH4@@QEAA@PEBUFuncInfo4@1@_K@Z 000000014001a7ac f i libvcruntime:frame.obj
 0001:00019800       ??0bad_exception@std@@QEAA@AEBV01@@Z 000000014001a800 f i libvcruntime:frame.obj
 0001:0001984c       ??0bad_exception@std@@QEAA@XZ 000000014001a84c f i libvcruntime:frame.obj
 0001:00019874       ??0exception@std@@QEAA@AEBV01@@Z 000000014001a874 f i libvcruntime:frame.obj
 0001:000198b4       ??0exception@std@@QEAA@QEBDH@Z 000000014001a8b4 f i libvcruntime:frame.obj
 0001:000198d0       ??0iterator@HandlerMap4@FH4@@QEAA@AEAV12@I@Z 000000014001a8d0 f i libvcruntime:frame.obj
 0001:000198e0       ??0iterator@HandlerMap@__FrameHandler3@@QEAA@AEAV12@I@Z 000000014001a8e0 f i libvcruntime:frame.obj
 0001:000198f0       ??0iterator@UWMap4@FH4@@QEAA@AEAV12@PEAE@Z 000000014001a8f0 f i libvcruntime:frame.obj
 0001:00019900       ??1bad_exception@std@@UEAA@XZ 000000014001a900 f i libvcruntime:frame.obj
 0001:00019918       ??1exception@std@@UEAA@XZ  000000014001a918 f i libvcruntime:frame.obj
 0001:00019930       ??4iterator@UWMap4@FH4@@QEAAAEAV012@AEBV012@@Z 000000014001a930 f i libvcruntime:frame.obj
 0001:00019958       ??8iterator@HandlerMap4@FH4@@QEBA_NAEBV012@@Z 000000014001a958 f i libvcruntime:frame.obj
 0001:00019964       ??8iterator@HandlerMap@__FrameHandler3@@QEBA_NAEBV012@@Z 000000014001a964 f i libvcruntime:frame.obj
 0001:00019970       ??8type_info@@QEBA_NAEBV0@@Z 000000014001a970 f i libvcruntime:frame.obj
 0001:00019994       ??9iterator@HandlerMap4@FH4@@QEBA_NAEBV012@@Z 000000014001a994 f i libvcruntime:frame.obj
 0001:000199a0       ??9iterator@HandlerMap@__FrameHandler3@@QEBA_NAEBV012@@Z 000000014001a9a0 f i libvcruntime:frame.obj
 0001:000199ac       ??Diterator@HandlerMap4@FH4@@QEAA?AUHandlerType4@2@XZ 000000014001a9ac f i libvcruntime:frame.obj
 0001:000199d4       ??Diterator@HandlerMap@__FrameHandler3@@QEAA?BU_s_HandlerType@@XZ 000000014001a9d4 f i libvcruntime:frame.obj
 0001:00019a00       ??Diterator@TryBlockMap@__FrameHandler3@@QEAA?BU_s_TryBlockMapEntry@@XZ 000000014001aa00 f i libvcruntime:frame.obj
 0001:00019a38       ??Diterator@UWMap4@FH4@@QEAA?AUUnwindMapEntry4@2@XZ 000000014001aa38 f i libvcruntime:frame.obj
 0001:00019aa0       ??Eiterator@HandlerMap4@FH4@@QEAAAEAV012@XZ 000000014001aaa0 f i libvcruntime:frame.obj
 0001:00019ac4       ??Eiterator@HandlerMap@__FrameHandler3@@QEAAAEAV012@XZ 000000014001aac4 f i libvcruntime:frame.obj
 0001:00019acc       ??Eiterator@TryBlockMap@__FrameHandler3@@QEAAAEAV012@XZ 000000014001aacc f i libvcruntime:frame.obj
 0001:00019ad4       ??Eiterator@UWMap4@FH4@@QEAAAEAV012@XZ 000000014001aad4 f i libvcruntime:frame.obj
 0001:00019afc       ??Giterator@UWMap4@FH4@@QEBA_JAEBV012@@Z 000000014001aafc f i libvcruntime:frame.obj
 0001:00019b08       ??Miterator@TryBlockMap4@FH4@@QEBA_NAEBV012@@Z 000000014001ab08 f i libvcruntime:frame.obj
 0001:00019b14       ??Miterator@TryBlockMap@__FrameHandler3@@QEBA_NAEBV012@@Z 000000014001ab14 f i libvcruntime:frame.obj
 0001:00019b20       ??Oiterator@UWMap4@FH4@@QEBA_NAEBV012@@Z 000000014001ab20 f i libvcruntime:frame.obj
 0001:00019b30       ??Piterator@UWMap4@FH4@@QEBA_NAEBV012@@Z 000000014001ab30 f i libvcruntime:frame.obj
 0001:00019b40       ??_Ebad_exception@std@@UEAAPEAXI@Z 000000014001ab40 f i libvcruntime:frame.obj
 0001:00019b40       ??_Gbad_exception@std@@UEAAPEAXI@Z 000000014001ab40 f i libvcruntime:frame.obj
 0001:00019b94       ??_Eexception@std@@UEAAPEAXI@Z 000000014001ab94 f i libvcruntime:frame.obj
 0001:00019b94       ??_Gexception@std@@UEAAPEAXI@Z 000000014001ab94 f i libvcruntime:frame.obj
 0001:00019be8       ?BuildCatchObject@__FrameHandler3@@SAXPEAUEHExceptionRecord@@PEAXPEBU_s_HandlerType@@PEBU_s_CatchableType@@@Z 000000014001abe8 f   libvcruntime:frame.obj
 0001:00019bf0       ?BuildCatchObject@__FrameHandler4@@SAXPEAUEHExceptionRecord@@PEAXPEAUHandlerType4@FH4@@PEBU_s_CatchableType@@@Z 000000014001abf0 f   libvcruntime:frame.obj
 0001:00019bf8       ?BuildCatchObjectHelper@__FrameHandler3@@SAHPEAUEHExceptionRecord@@PEAXPEBU_s_HandlerType@@PEBU_s_CatchableType@@@Z 000000014001abf8 f   libvcruntime:frame.obj
 0001:00019c00       ?BuildCatchObjectHelper@__FrameHandler4@@SAHPEAUEHExceptionRecord@@PEAXPEAUHandlerType4@FH4@@PEBU_s_CatchableType@@@Z 000000014001ac00 f   libvcruntime:frame.obj
 0001:00019c08       ?CxxCallCatchBlock@__FrameHandler3@@SAPEAXPEAU_EXCEPTION_RECORD@@@Z 000000014001ac08 f   libvcruntime:frame.obj
 0001:00019e6c       ?CxxCallCatchBlock@__FrameHandler4@@SAPEAXPEAU_EXCEPTION_RECORD@@@Z 000000014001ae6c f   libvcruntime:frame.obj
 0001:0001a150       ?DecompHandler@HandlerMap4@FH4@@AEAAXXZ 000000014001b150 f i libvcruntime:frame.obj
 0001:0001a430       ?FrameUnwindToState@__FrameHandler3@@SAXPEA_KPEAU_xDISPATCHER_CONTEXT@@PEBU_s_FuncInfo@@H@Z 000000014001b430 f   libvcruntime:frame.obj
 0001:0001a61c       ?FrameUnwindToState@__FrameHandler4@@SAXPEA_KPEAU_xDISPATCHER_CONTEXT@@PEAUFuncInfo4@FH4@@H@Z 000000014001b61c f   libvcruntime:frame.obj
 0001:0001a9d4       ?GetHandlerSearchState@__FrameHandler3@@SAHPEA_KPEAU_xDISPATCHER_CONTEXT@@PEBU_s_FuncInfo@@@Z 000000014001b9d4 f i libvcruntime:frame.obj
 0001:0001aa90       ?GetHandlerSearchState@__FrameHandler4@@SAHPEA_KPEAU_xDISPATCHER_CONTEXT@@PEAUFuncInfo4@FH4@@@Z 000000014001ba90 f i libvcruntime:frame.obj
 0001:0001ab0c       ?GetMaxState@__FrameHandler3@@SAHPEAU_xDISPATCHER_CONTEXT@@PEBU_s_FuncInfo@@@Z 000000014001bb0c f i libvcruntime:frame.obj
 0001:0001ab10       ?GetMaxState@__FrameHandler4@@SAHPEAU_xDISPATCHER_CONTEXT@@PEAUFuncInfo4@FH4@@@Z 000000014001bb10 f i libvcruntime:frame.obj
 0001:0001ad2c       ?ReadEntry@UWMap4@FH4@@AEAAXPEAPEAE@Z 000000014001bd2c f i libvcruntime:frame.obj
 0001:0001adf0       ?TypeMatch@__FrameHandler3@@SAHPEBU_s_HandlerType@@PEBU_s_CatchableType@@PEBU_s_ThrowInfo@@@Z 000000014001bdf0 f   libvcruntime:frame.obj
 0001:0001adf8       ?TypeMatch@__FrameHandler4@@SAHPEAUHandlerType4@FH4@@PEBU_s_CatchableType@@PEBU_s_ThrowInfo@@@Z 000000014001bdf8 f   libvcruntime:frame.obj
 0001:0001ae00       ?WalkBack@UWMap4@FH4@@AEAAXPEAPEAE@Z 000000014001be00 f i libvcruntime:frame.obj
 0001:0001ae44       ?WalkBack@iterator@UWMap4@FH4@@QEAAXXZ 000000014001be44 f i libvcruntime:frame.obj
 0001:0001ae90       ?WalkForward@UWMap4@FH4@@AEAAXPEAPEAE@Z 000000014001be90 f i libvcruntime:frame.obj
 0001:0001ae98       ?_CallMemberFunction1@@YAXQEAX00@Z 000000014001be98 f i libvcruntime:frame.obj
 0001:0001aea4       ?_CallMemberFunction2@@YAXQEAX00H@Z 000000014001bea4 f i libvcruntime:frame.obj
 0001:0001aed4       ?begin@HandlerMap4@FH4@@QEAA?AViterator@12@XZ 000000014001bed4 f i libvcruntime:frame.obj
 0001:0001aee4       ?begin@HandlerMap@__FrameHandler3@@QEAA?AViterator@12@XZ 000000014001bee4 f i libvcruntime:frame.obj
 0001:0001aef4       ?begin@UWMap4@FH4@@QEAA?AViterator@12@XZ 000000014001bef4 f i libvcruntime:frame.obj
 0001:0001af08       ?end@HandlerMap4@FH4@@QEAA?AViterator@12@XZ 000000014001bf08 f i libvcruntime:frame.obj
 0001:0001af18       ?end@HandlerMap@__FrameHandler3@@QEAA?AViterator@12@XZ 000000014001bf18 f i libvcruntime:frame.obj
 0001:0001af28       ?getESTypes@__FrameHandler3@@SAPEBU_s_ESTypeList@@PEBU_s_FuncInfo@@@Z 000000014001bf28 f i libvcruntime:frame.obj
 0001:0001af5c       ?getESTypes@__FrameHandler4@@SAPEBU_s_ESTypeList@@PEAUFuncInfo4@FH4@@@Z 000000014001bf5c f i libvcruntime:frame.obj
 0001:0001af60       ?getLastEntry@HandlerMap4@FH4@@QEAAPEAUHandlerType4@2@XZ 000000014001bf60 f i libvcruntime:frame.obj
 0001:0001afc4       ?getLastEntry@HandlerMap@__FrameHandler3@@QEAAPEBU_s_HandlerType@@XZ 000000014001bfc4 f i libvcruntime:frame.obj
 0001:0001afdc       ?getMagicNum@__FrameHandler3@@SAIPEBU_s_FuncInfo@@@Z 000000014001bfdc f i libvcruntime:frame.obj
 0001:0001afe8       ?getMagicNum@__FrameHandler4@@SAIPEAUFuncInfo4@FH4@@@Z 000000014001bfe8 f i libvcruntime:frame.obj
 0001:0001aff0       ?getNumTryBlocks@TryBlockMap4@FH4@@QEAAIXZ 000000014001bff0 f i libvcruntime:frame.obj
 0001:0001aff4       ?getNumTryBlocks@TryBlockMap@__FrameHandler3@@QEAAIXZ 000000014001bff4 f i libvcruntime:frame.obj
 0001:0001affc       ?getStartStop@UWMap4@FH4@@QEAAXHHAEAViterator@12@0@Z 000000014001bffc f i libvcruntime:frame.obj
 0001:0001b100       ?getStateFromIterators@UWMap4@FH4@@SAHAEBViterator@12@H0H0@Z 000000014001c100 f i libvcruntime:frame.obj
 0001:0001b200       ?isEHs@__FrameHandler3@@SA_NPEBU_s_FuncInfo@@@Z 000000014001c200 f i libvcruntime:frame.obj
 0001:0001b208       ?isEHs@__FrameHandler4@@SA_NPEAUFuncInfo4@FH4@@@Z 000000014001c208 f i libvcruntime:frame.obj
 0001:0001b214       ?isNoExcept@__FrameHandler3@@SA_NPEBU_s_FuncInfo@@@Z 000000014001c214 f i libvcruntime:frame.obj
 0001:0001b220       ?isNoExcept@__FrameHandler4@@SA_NPEAUFuncInfo4@FH4@@@Z 000000014001c220 f i libvcruntime:frame.obj
 0001:0001b22c       ?reset@HandlerType4@FH4@@QEAAXXZ 000000014001c22c f i libvcruntime:frame.obj
 0001:0001b248       ?resetBuffer@HandlerMap4@FH4@@QEAAXXZ 000000014001c248 f i libvcruntime:frame.obj
 0001:0001b258       ?setBuffer@HandlerMap4@FH4@@QEAAXI@Z 000000014001c258 f i libvcruntime:frame.obj
 0001:0001b2a0       ?what@exception@std@@UEBAPEBDXZ 000000014001c2a0 f i libvcruntime:frame.obj
 0001:0001b2b8       __BuildCatchObject         000000014001c2b8 f   libvcruntime:frame.obj
 0001:0001b2c0       __BuildCatchObjectHelper   000000014001c2c0 f   libvcruntime:frame.obj
 0001:0001b2c8       __TypeMatch                000000014001c2c8 f   libvcruntime:frame.obj
 0001:0001b2d0       __vcrt_EncodePointer       000000014001c2d0 f i libvcruntime:frame.obj
 0001:0001b2f0       _CallSettingFrame          000000014001c2f0 f   libvcruntime:handlers.obj
 0001:0001b340       _CallSettingFrame_LookupContinuationIndex 000000014001c340 f   libvcruntime:handlers.obj
 0001:0001b370       _CallSettingFrame_NotifyContinuationAddr 000000014001c370 f   libvcruntime:handlers.obj
 0001:0001b3a0       _CallSettingFrameEncoded   000000014001c3a0 f   libvcruntime:handlers.obj
 0001:0001b428       ??$?RD@__crt_public_free_policy@@QEBAXQEBD@Z 000000014001c428 f i libvcruntime:std_exception.obj
 0001:0001b434       ??0?$__crt_unique_heap_ptr@DU__crt_public_free_policy@@@@QEAA@QEAD@Z 000000014001c434 f i libvcruntime:std_exception.obj
 0001:0001b43c       ??1?$__crt_unique_heap_ptr@DU__crt_public_free_policy@@@@QEAA@XZ 000000014001c43c f i libvcruntime:std_exception.obj
 0001:0001b460       ??B?$__crt_unique_heap_ptr@DU__crt_public_free_policy@@@@QEBA_NXZ 000000014001c460 f i libvcruntime:std_exception.obj
 0001:0001b46c       ?detach@?$__crt_unique_heap_ptr@DU__crt_public_free_policy@@@@QEAAPEADXZ 000000014001c46c f i libvcruntime:std_exception.obj
 0001:0001b478       ?get@?$__crt_unique_heap_ptr@DU__crt_public_free_policy@@@@QEBAPEADXZ 000000014001c478 f i libvcruntime:std_exception.obj
 0001:0001b47c       ?is_valid@?$__crt_unique_heap_ptr@DU__crt_public_free_policy@@@@QEBA_NXZ 000000014001c47c f i libvcruntime:std_exception.obj
 0001:0001b488       ?release@?$__crt_unique_heap_ptr@DU__crt_public_free_policy@@@@QEAAXXZ 000000014001c488 f i libvcruntime:std_exception.obj
 0001:0001b4ac       __std_exception_copy       000000014001c4ac f   libvcruntime:std_exception.obj
 0001:0001b55c       __std_exception_destroy    000000014001c55c f   libvcruntime:std_exception.obj
 0001:0001b58c       _CxxThrowException         000000014001c58c f   libvcruntime:throw.obj
 0001:0001b654       ??$?RPEAU__crt_stdio_stream_data@@@__crt_internal_free_policy@@QEBAXQEBQEAU__crt_stdio_stream_data@@@Z 000000014001c654 f i libucrt:_file.obj
 0001:0001b660       ??0?$__crt_unique_heap_ptr@PEAU__crt_stdio_stream_data@@U__crt_internal_free_policy@@@@QEAA@QEAPEAU__crt_stdio_stream_data@@@Z 000000014001c660 f i libucrt:_file.obj
 0001:0001b668       ??0__crt_stdio_stream@@QEAA@QEAU_iobuf@@@Z 000000014001c668 f i libucrt:_file.obj
 0001:0001b670       ??1?$__crt_unique_heap_ptr@PEAU__crt_stdio_stream_data@@U__crt_internal_free_policy@@@@QEAA@XZ 000000014001c670 f i libucrt:_file.obj
 0001:0001b694       ??C__crt_stdio_stream@@QEBAPEAU__crt_stdio_stream_data@@XZ 000000014001c694 f i libucrt:_file.obj
 0001:0001b698       ?detach@?$__crt_unique_heap_ptr@PEAU__crt_stdio_stream_data@@U__crt_internal_free_policy@@@@QEAAPEAPEAU__crt_stdio_stream_data@@XZ 000000014001c698 f i libucrt:_file.obj
 0001:0001b6a4       ?release@?$__crt_unique_heap_ptr@PEAU__crt_stdio_stream_data@@U__crt_internal_free_policy@@@@QEAAXXZ 000000014001c6a4 f i libucrt:_file.obj
 0001:0001b6c8       __acrt_initialize_stdio    000000014001c6c8 f   libucrt:_file.obj
 0001:0001b830       __acrt_iob_func            000000014001c830 f   libucrt:_file.obj
 0001:0001b848       __acrt_uninitialize_stdio  000000014001c848 f   libucrt:_file.obj
 0001:0001b8bc       _get_stream_buffer_pointers 000000014001c8bc f   libucrt:_file.obj
 0001:0001b914       _lock_file                 000000014001c914 f   libucrt:_file.obj
 0001:0001b924       _unlock_file               000000014001c924 f   libucrt:_file.obj
 0001:0001b934       ??$__crt_interlocked_read@J@@YAJPEDJ@Z 000000014001c934 f i libucrt:fclose.obj
 0001:0001b938       ?__crt_interlocked_read_32@@YAHPEDH@Z 000000014001c938 f i libucrt:fclose.obj
 0001:0001b93c       ?get_flags@__crt_stdio_stream@@QEBAJXZ 000000014001c93c f i libucrt:fclose.obj
 0001:0001b944       ?is_in_use@__crt_stdio_stream@@QEBA_NXZ 000000014001c944 f i libucrt:fclose.obj
 0001:0001b954       ?is_string_backed@__crt_stdio_stream@@QEBA_NXZ 000000014001c954 f i libucrt:fclose.obj
 0001:0001b964       ?public_stream@__crt_stdio_stream@@QEBAPEAU_iobuf@@XZ 000000014001c964 f i libucrt:fclose.obj
 0001:0001b968       ?valid@__crt_stdio_stream@@QEBA_NXZ 000000014001c968 f i libucrt:fclose.obj
 0001:0001b974       _fclose_nolock             000000014001c974 f   libucrt:fclose.obj
 0001:0001ba18       fclose                     000000014001ca18 f   libucrt:fclose.obj
 0001:0001bc8c       ??$getc_nolock@PEAU_iobuf@@@?$__crt_char_traits@D@@SAH$$QEAPEAU_iobuf@@@Z 000000014001cc8c f i libucrt:fgets.obj
 0001:0001bc98       ??$getc_nolock@PEAU_iobuf@@@?$__crt_char_traits@_W@@SAG$$QEAPEAU_iobuf@@@Z 000000014001cc98 f i libucrt:fgets.obj
 0001:0001bca4       ?validate_stream_is_ansi_if_required@?$__acrt_stdio_char_traits@D@@SA_NQEAU_iobuf@@@Z 000000014001cca4 f i libucrt:fgets.obj
 0001:0001bd64       ?validate_stream_is_ansi_if_required@?$__acrt_stdio_char_traits@_W@@SA_NQEAU_iobuf@@@Z 000000014001cd64 f i libucrt:fgets.obj
 0001:0001bd68       fgets                      000000014001cd68 f   libucrt:fgets.obj
 0001:0001bd70       fgetws                     000000014001cd70 f   libucrt:fgets.obj
 0001:0001c02c       ??$open_file@AEBQEBDAEBQEBDAEBHPEAU_iobuf@@@?$__crt_char_traits@D@@SAPEAU_iobuf@@AEBQEBD0AEBH$$QEAPEAU1@@Z 000000014001d02c f i libucrt:fopen.obj
 0001:0001c044       ??$open_file@AEBQEB_WAEBQEB_WAEBHPEAU_iobuf@@@?$__crt_char_traits@_W@@SAPEAU_iobuf@@AEBQEB_W0AEBH$$QEAPEAU1@@Z 000000014001d044 f i libucrt:fopen.obj
 0001:0001c05c       ?unlock@__crt_stdio_stream@@QEBAXXZ 000000014001d05c f i libucrt:fopen.obj
 0001:0001c068       _fsopen                    000000014001d068 f   libucrt:fopen.obj
 0001:0001c070       _wfopen                    000000014001d070 f   libucrt:fopen.obj
 0001:0001c080       _wfopen_s                  000000014001d080 f   libucrt:fopen.obj
 0001:0001c0f0       _wfsopen                   000000014001d0f0 f   libucrt:fopen.obj
 0001:0001c0f8       fopen                      000000014001d0f8 f   libucrt:fopen.obj
 0001:0001c108       fopen_s                    000000014001d108 f   libucrt:fopen.obj
 0001:0001c178       ?__acrt_stdio_reset_buffer@@YAXV__crt_stdio_stream@@@Z 000000014001d178 f i libucrt:fread.obj
 0001:0001c188       ?has_any_buffer@__crt_stdio_stream@@QEBA_NXZ 000000014001d188 f i libucrt:fread.obj
 0001:0001c19c       ?has_any_of@__crt_stdio_stream@@QEBA_NJ@Z 000000014001d19c f i libucrt:fread.obj
 0001:0001c1ac       ?set_flags@__crt_stdio_stream@@QEBA_NJ@Z 000000014001d1ac f i libucrt:fread.obj
 0001:0001c1d4       _fread_nolock              000000014001d1d4 f   libucrt:fread.obj
 0001:0001c1f8       _fread_nolock_s            000000014001d1f8 f   libucrt:fread.obj
 0001:0001c4f0       fread                      000000014001d4f0 f   libucrt:fread.obj
 0001:0001c514       fread_s                    000000014001d514 f   libucrt:fread.obj
 0001:0001c68c       ?LongLongSub@@YAJ_J0PEA_J@Z 000000014001d68c f i libucrt:fseek.obj
 0001:0001c950       ?has_all_of@__crt_stdio_stream@@QEBA_NJ@Z 000000014001d950 f i libucrt:fseek.obj
 0001:0001c964       ?lowio_handle@__crt_stdio_stream@@QEBAHXZ 000000014001d964 f i libucrt:fseek.obj
 0001:0001c96c       ?unset_flags@__crt_stdio_stream@@QEBA_NJ@Z 000000014001d96c f i libucrt:fseek.obj
 0001:0001c99c       _fseek_nolock              000000014001d99c f   libucrt:fseek.obj
 0001:0001c9a8       _fseeki64                  000000014001d9a8 f   libucrt:fseek.obj
 0001:0001c9b0       _fseeki64_nolock           000000014001d9b0 f   libucrt:fseek.obj
 0001:0001c9b8       fseek                      000000014001d9b8 f   libucrt:fseek.obj
 0001:0001d134       ?ctrl_z@__crt_stdio_stream@@QEBA_NXZ 000000014001e134 f i libucrt:ftell.obj
 0001:0001d144       ?has_big_buffer@__crt_stdio_stream@@QEBA_NXZ 000000014001e144 f i libucrt:ftell.obj
 0001:0001d154       ?has_crt_buffer@__crt_stdio_stream@@QEBA_NXZ 000000014001e154 f i libucrt:ftell.obj
 0001:0001d164       ?has_setvbuf_buffer@__crt_stdio_stream@@QEBA_NXZ 000000014001e164 f i libucrt:ftell.obj
 0001:0001d174       _ftell_nolock              000000014001e174 f   libucrt:ftell.obj
 0001:0001d1a4       _ftelli64                  000000014001e1a4 f   libucrt:ftell.obj
 0001:0001d1ac       _ftelli64_nolock           000000014001e1ac f   libucrt:ftell.obj
 0001:0001d1b4       _utf8_no_of_trailbytes     000000014001e1b4 f i libucrt:ftell.obj
 0001:0001d1c8       ftell                      000000014001e1c8 f   libucrt:ftell.obj
 0001:0001d1d0       rewind                     000000014001e1d0 f   libucrt:rewind.obj
 0001:0001d2c4       ??$?0AEBV?$stream_output_adapter@D@__crt_stdio_output@@AEB_KAEBQEBDAEBQEAU__crt_locale_pointers@@AEBQEAD@?$format_validation_base@DV?$stream_output_adapter@D@__crt_stdio_output@@@__crt_stdio_output@@IEAA@AEBV?$stream_output_adapter@D@1@AEB_KAEBQEBDAEBQEAU__crt_locale_pointers@@AEBQEAD@Z 000000014001e2c4 f i libucrt:output.obj
 0001:0001d368       ??$?0AEBV?$stream_output_adapter@D@__crt_stdio_output@@AEB_KAEBQEBDAEBQEAU__crt_locale_pointers@@AEBQEAD@?$positional_parameter_base@DV?$stream_output_adapter@D@__crt_stdio_output@@@__crt_stdio_output@@IEAA@AEBV?$stream_output_adapter@D@1@AEB_KAEBQEBDAEBQEAU__crt_locale_pointers@@AEBQEAD@Z 000000014001e368 f i libucrt:output.obj
 0001:0001d430       ??$?0AEBV?$stream_output_adapter@D@__crt_stdio_output@@AEB_KAEBQEBDAEBQEAU__crt_locale_pointers@@AEBQEAD@?$standard_base@DV?$stream_output_adapter@D@__crt_stdio_output@@@__crt_stdio_output@@IEAA@AEBV?$stream_output_adapter@D@1@AEB_KAEBQEBDAEBQEAU__crt_locale_pointers@@AEBQEAD@Z 000000014001e430 f i libucrt:output.obj
 0001:0001d4d4       ??$?0AEBV?$stream_output_adapter@_W@__crt_stdio_output@@AEB_KAEBQEB_WAEBQEAU__crt_locale_pointers@@AEBQEAD@?$format_validation_base@_WV?$stream_output_adapter@_W@__crt_stdio_output@@@__crt_stdio_output@@IEAA@AEBV?$stream_output_adapter@_W@1@AEB_KAEBQEB_WAEBQEAU__crt_locale_pointers@@AEBQEAD@Z 000000014001e4d4 f i libucrt:output.obj
 0001:0001d57c       ??$?0AEBV?$stream_output_adapter@_W@__crt_stdio_output@@AEB_KAEBQEB_WAEBQEAU__crt_locale_pointers@@AEBQEAD@?$positional_parameter_base@_WV?$stream_output_adapter@_W@__crt_stdio_output@@@__crt_stdio_output@@IEAA@AEBV?$stream_output_adapter@_W@1@AEB_KAEBQEB_WAEBQEAU__crt_locale_pointers@@AEBQEAD@Z 000000014001e57c f i libucrt:output.obj
 0001:0001d648       ??$?0AEBV?$stream_output_adapter@_W@__crt_stdio_output@@AEB_KAEBQEB_WAEBQEAU__crt_locale_pointers@@AEBQEAD@?$standard_base@_WV?$stream_output_adapter@_W@__crt_stdio_output@@@__crt_stdio_output@@IEAA@AEBV?$stream_output_adapter@_W@1@AEB_KAEBQEB_WAEBQEAU__crt_locale_pointers@@AEBQEAD@Z 000000014001e648 f i libucrt:output.obj
 0001:0001d6f0       ??$?0AEBV?$string_output_adapter@D@__crt_stdio_output@@AEB_KAEBQEBDAEBQEAU__crt_locale_pointers@@AEBQEAD@?$format_validation_base@DV?$string_output_adapter@D@__crt_stdio_output@@@__crt_stdio_output@@IEAA@AEBV?$string_output_adapter@D@1@AEB_KAEBQEBDAEBQEAU__crt_locale_pointers@@AEBQEAD@Z 000000014001e6f0 f i libucrt:output.obj
 0001:0001d794       ??$?0AEBV?$string_output_adapter@D@__crt_stdio_output@@AEB_KAEBQEBDAEBQEAU__crt_locale_pointers@@AEBQEAD@?$positional_parameter_base@DV?$string_output_adapter@D@__crt_stdio_output@@@__crt_stdio_output@@IEAA@AEBV?$string_output_adapter@D@1@AEB_KAEBQEBDAEBQEAU__crt_locale_pointers@@AEBQEAD@Z 000000014001e794 f i libucrt:output.obj
 0001:0001d85c       ??$?0AEBV?$string_output_adapter@D@__crt_stdio_output@@AEB_KAEBQEBDAEBQEAU__crt_locale_pointers@@AEBQEAD@?$standard_base@DV?$string_output_adapter@D@__crt_stdio_output@@@__crt_stdio_output@@IEAA@AEBV?$string_output_adapter@D@1@AEB_KAEBQEBDAEBQEAU__crt_locale_pointers@@AEBQEAD@Z 000000014001e85c f i libucrt:output.obj
 0001:0001d900       ??$?0AEBV?$string_output_adapter@_W@__crt_stdio_output@@AEB_KAEBQEB_WAEBQEAU__crt_locale_pointers@@AEBQEAD@?$format_validation_base@_WV?$string_output_adapter@_W@__crt_stdio_output@@@__crt_stdio_output@@IEAA@AEBV?$string_output_adapter@_W@1@AEB_KAEBQEB_WAEBQEAU__crt_locale_pointers@@AEBQEAD@Z 000000014001e900 f i libucrt:output.obj
 0001:0001d9a8       ??$?0AEBV?$string_output_adapter@_W@__crt_stdio_output@@AEB_KAEBQEB_WAEBQEAU__crt_locale_pointers@@AEBQEAD@?$positional_parameter_base@_WV?$string_output_adapter@_W@__crt_stdio_output@@@__crt_stdio_output@@IEAA@AEBV?$string_output_adapter@_W@1@AEB_KAEBQEB_WAEBQEAU__crt_locale_pointers@@AEBQEAD@Z 000000014001e9a8 f i libucrt:output.obj
 0001:0001da74       ??$?0AEBV?$string_output_adapter@_W@__crt_stdio_output@@AEB_KAEBQEB_WAEBQEAU__crt_locale_pointers@@AEBQEAD@?$standard_base@_WV?$string_output_adapter@_W@__crt_stdio_output@@@__crt_stdio_output@@IEAA@AEBV?$string_output_adapter@_W@1@AEB_KAEBQEB_WAEBQEAU__crt_locale_pointers@@AEBQEAD@Z 000000014001ea74 f i libucrt:output.obj
 0001:0001f3fc       ??$count@D@formatting_buffer@__crt_stdio_output@@QEBA_KXZ 00000001400203fc f i libucrt:output.obj
 0001:0001f420       ??$count@_W@formatting_buffer@__crt_stdio_output@@QEBA_KXZ 0000000140020420 f i libucrt:output.obj
 0001:0001f444       ??$data@D@formatting_buffer@__crt_stdio_output@@QEAAPEADXZ 0000000140020444 f i libucrt:output.obj
 0001:0001f458       ??$data@_W@formatting_buffer@__crt_stdio_output@@QEAAPEA_WXZ 0000000140020458 f i libucrt:output.obj
 0001:0001f46c       ??$ensure_buffer_is_big_enough@D@formatting_buffer@__crt_stdio_output@@QEAA_N_K@Z 000000014002046c f i libucrt:output.obj
 0001:0001f53c       ??$ensure_buffer_is_big_enough@_W@formatting_buffer@__crt_stdio_output@@QEAA_N_K@Z 000000014002053c f i libucrt:output.obj
 0001:0001f610       ??$extract_argument_from_va_list@C_J@?$positional_parameter_base@DV?$stream_output_adapter@D@__crt_stdio_output@@@__crt_stdio_output@@IEAA_NAEA_J@Z 0000000140020610 f i libucrt:output.obj
 0001:0001f6fc       ??$extract_argument_from_va_list@C_J@?$positional_parameter_base@DV?$string_output_adapter@D@__crt_stdio_output@@@__crt_stdio_output@@IEAA_NAEA_J@Z 00000001400206fc f i libucrt:output.obj
 0001:0001f7e8       ??$extract_argument_from_va_list@C_J@?$positional_parameter_base@_WV?$stream_output_adapter@_W@__crt_stdio_output@@@__crt_stdio_output@@IEAA_NAEA_J@Z 00000001400207e8 f i libucrt:output.obj
 0001:0001f8d8       ??$extract_argument_from_va_list@C_J@?$positional_parameter_base@_WV?$string_output_adapter@_W@__crt_stdio_output@@@__crt_stdio_output@@IEAA_NAEA_J@Z 00000001400208d8 f i libucrt:output.obj
 0001:0001f9c8       ??$extract_argument_from_va_list@C_J@?$standard_base@DV?$stream_output_adapter@D@__crt_stdio_output@@@__crt_stdio_output@@IEAA_NAEA_J@Z 00000001400209c8 f i libucrt:output.obj
 0001:0001f9e4       ??$extract_argument_from_va_list@C_J@?$standard_base@DV?$string_output_adapter@D@__crt_stdio_output@@@__crt_stdio_output@@IEAA_NAEA_J@Z 00000001400209e4 f i libucrt:output.obj
 0001:0001fa00       ??$extract_argument_from_va_list@C_J@?$standard_base@_WV?$stream_output_adapter@_W@__crt_stdio_output@@@__crt_stdio_output@@IEAA_NAEA_J@Z 0000000140020a00 f i libucrt:output.obj
 0001:0001fa1c       ??$extract_argument_from_va_list@C_J@?$standard_base@_WV?$string_output_adapter@_W@__crt_stdio_output@@@__crt_stdio_output@@IEAA_NAEA_J@Z 0000000140020a1c f i libucrt:output.obj
 0001:0001fa38       ??$extract_argument_from_va_list@E_J@?$positional_parameter_base@DV?$stream_output_adapter@D@__crt_stdio_output@@@__crt_stdio_output@@IEAA_NAEA_J@Z 0000000140020a38 f i libucrt:output.obj
 0001:0001fb24       ??$extract_argument_from_va_list@E_J@?$positional_parameter_base@DV?$string_output_adapter@D@__crt_stdio_output@@@__crt_stdio_output@@IEAA_NAEA_J@Z 0000000140020b24 f i libucrt:output.obj
 0001:0001fc10       ??$extract_argument_from_va_list@E_J@?$positional_parameter_base@_WV?$stream_output_adapter@_W@__crt_stdio_output@@@__crt_stdio_output@@IEAA_NAEA_J@Z 0000000140020c10 f i libucrt:output.obj
 0001:0001fcfc       ??$extract_argument_from_va_list@E_J@?$positional_parameter_base@_WV?$string_output_adapter@_W@__crt_stdio_output@@@__crt_stdio_output@@IEAA_NAEA_J@Z 0000000140020cfc f i libucrt:output.obj
 0001:0001fde8       ??$extract_argument_from_va_list@E_J@?$standard_base@DV?$stream_output_adapter@D@__crt_stdio_output@@@__crt_stdio_output@@IEAA_NAEA_J@Z 0000000140020de8 f i libucrt:output.obj
 0001:0001fe00       ??$extract_argument_from_va_list@E_J@?$standard_base@DV?$string_output_adapter@D@__crt_stdio_output@@@__crt_stdio_output@@IEAA_NAEA_J@Z 0000000140020e00 f i libucrt:output.obj
 0001:0001fe18       ??$extract_argument_from_va_list@E_J@?$standard_base@_WV?$stream_output_adapter@_W@__crt_stdio_output@@@__crt_stdio_output@@IEAA_NAEA_J@Z 0000000140020e18 f i libucrt:output.obj
 0001:0001fe30       ??$extract_argument_from_va_list@E_J@?$standard_base@_WV?$string_output_adapter@_W@__crt_stdio_output@@@__crt_stdio_output@@IEAA_NAEA_J@Z 0000000140020e30 f i libucrt:output.obj
 0001:0001fe48       ??$extract_argument_from_va_list@F_J@?$positional_parameter_base@DV?$stream_output_adapter@D@__crt_stdio_output@@@__crt_stdio_output@@IEAA_NAEA_J@Z 0000000140020e48 f i libucrt:output.obj
 0001:0001ff34       ??$extract_argument_from_va_list@F_J@?$positional_parameter_base@DV?$string_output_adapter@D@__crt_stdio_output@@@__crt_stdio_output@@IEAA_NAEA_J@Z 0000000140020f34 f i libucrt:output.obj
 0001:00020020       ??$extract_argument_from_va_list@F_J@?$positional_parameter_base@_WV?$stream_output_adapter@_W@__crt_stdio_output@@@__crt_stdio_output@@IEAA_NAEA_J@Z 0000000140021020 f i libucrt:output.obj
 0001:00020110       ??$extract_argument_from_va_list@F_J@?$positional_parameter_base@_WV?$string_output_adapter@_W@__crt_stdio_output@@@__crt_stdio_output@@IEAA_NAEA_J@Z 0000000140021110 f i libucrt:output.obj
 0001:00020200       ??$extract_argument_from_va_list@F_J@?$standard_base@DV?$stream_output_adapter@D@__crt_stdio_output@@@__crt_stdio_output@@IEAA_NAEA_J@Z 0000000140021200 f i libucrt:output.obj
 0001:0002021c       ??$extract_argument_from_va_list@F_J@?$standard_base@DV?$string_output_adapter@D@__crt_stdio_output@@@__crt_stdio_output@@IEAA_NAEA_J@Z 000000014002121c f i libucrt:output.obj
 0001:00020238       ??$extract_argument_from_va_list@F_J@?$standard_base@_WV?$stream_output_adapter@_W@__crt_stdio_output@@@__crt_stdio_output@@IEAA_NAEA_J@Z 0000000140021238 f i libucrt:output.obj
 0001:00020254       ??$extract_argument_from_va_list@F_J@?$standard_base@_WV?$string_output_adapter@_W@__crt_stdio_output@@@__crt_stdio_output@@IEAA_NAEA_J@Z 0000000140021254 f i libucrt:output.obj
 0001:00020270       ??$extract_argument_from_va_list@GD@?$positional_parameter_base@DV?$stream_output_adapter@D@__crt_stdio_output@@@__crt_stdio_output@@IEAA_NAEAD@Z 0000000140021270 f i libucrt:output.obj
 0001:00020358       ??$extract_argument_from_va_list@GD@?$positional_parameter_base@DV?$string_output_adapter@D@__crt_stdio_output@@@__crt_stdio_output@@IEAA_NAEAD@Z 0000000140021358 f i libucrt:output.obj
 0001:00020440       ??$extract_argument_from_va_list@GD@?$standard_base@DV?$stream_output_adapter@D@__crt_stdio_output@@@__crt_stdio_output@@IEAA_NAEAD@Z 0000000140021440 f i libucrt:output.obj
 0001:00020458       ??$extract_argument_from_va_list@GD@?$standard_base@DV?$string_output_adapter@D@__crt_stdio_output@@@__crt_stdio_output@@IEAA_NAEAD@Z 0000000140021458 f i libucrt:output.obj
 0001:00020470       ??$extract_argument_from_va_list@G_J@?$positional_parameter_base@DV?$stream_output_adapter@D@__crt_stdio_output@@@__crt_stdio_output@@IEAA_NAEA_J@Z 0000000140021470 f i libucrt:output.obj
 0001:0002055c       ??$extract_argument_from_va_list@G_J@?$positional_parameter_base@DV?$string_output_adapter@D@__crt_stdio_output@@@__crt_stdio_output@@IEAA_NAEA_J@Z 000000014002155c f i libucrt:output.obj
 0001:00020648       ??$extract_argument_from_va_list@G_J@?$positional_parameter_base@_WV?$stream_output_adapter@_W@__crt_stdio_output@@@__crt_stdio_output@@IEAA_NAEA_J@Z 0000000140021648 f i libucrt:output.obj
 0001:00020734       ??$extract_argument_from_va_list@G_J@?$positional_parameter_base@_WV?$string_output_adapter@_W@__crt_stdio_output@@@__crt_stdio_output@@IEAA_NAEA_J@Z 0000000140021734 f i libucrt:output.obj
 0001:00020820       ??$extract_argument_from_va_list@G_J@?$standard_base@DV?$stream_output_adapter@D@__crt_stdio_output@@@__crt_stdio_output@@IEAA_NAEA_J@Z 0000000140021820 f i libucrt:output.obj
 0001:00020838       ??$extract_argument_from_va_list@G_J@?$standard_base@DV?$string_output_adapter@D@__crt_stdio_output@@@__crt_stdio_output@@IEAA_NAEA_J@Z 0000000140021838 f i libucrt:output.obj
 0001:00020850       ??$extract_argument_from_va_list@G_J@?$standard_base@_WV?$stream_output_adapter@_W@__crt_stdio_output@@@__crt_stdio_output@@IEAA_NAEA_J@Z 0000000140021850 f i libucrt:output.obj
 0001:00020868       ??$extract_argument_from_va_list@G_J@?$standard_base@_WV?$string_output_adapter@_W@__crt_stdio_output@@@__crt_stdio_output@@IEAA_NAEA_J@Z 0000000140021868 f i libucrt:output.obj
 0001:00020880       ??$extract_argument_from_va_list@H_J@?$positional_parameter_base@DV?$stream_output_adapter@D@__crt_stdio_output@@@__crt_stdio_output@@IEAA_NAEA_J@Z 0000000140021880 f i libucrt:output.obj
 0001:00020968       ??$extract_argument_from_va_list@H_J@?$positional_parameter_base@DV?$string_output_adapter@D@__crt_stdio_output@@@__crt_stdio_output@@IEAA_NAEA_J@Z 0000000140021968 f i libucrt:output.obj
 0001:00020a50       ??$extract_argument_from_va_list@H_J@?$positional_parameter_base@_WV?$stream_output_adapter@_W@__crt_stdio_output@@@__crt_stdio_output@@IEAA_NAEA_J@Z 0000000140021a50 f i libucrt:output.obj
 0001:00020b3c       ??$extract_argument_from_va_list@H_J@?$positional_parameter_base@_WV?$string_output_adapter@_W@__crt_stdio_output@@@__crt_stdio_output@@IEAA_NAEA_J@Z 0000000140021b3c f i libucrt:output.obj
 0001:00020c28       ??$extract_argument_from_va_list@H_J@?$standard_base@DV?$stream_output_adapter@D@__crt_stdio_output@@@__crt_stdio_output@@IEAA_NAEA_J@Z 0000000140021c28 f i libucrt:output.obj
 0001:00020c40       ??$extract_argument_from_va_list@H_J@?$standard_base@DV?$string_output_adapter@D@__crt_stdio_output@@@__crt_stdio_output@@IEAA_NAEA_J@Z 0000000140021c40 f i libucrt:output.obj
 0001:00020c58       ??$extract_argument_from_va_list@H_J@?$standard_base@_WV?$stream_output_adapter@_W@__crt_stdio_output@@@__crt_stdio_output@@IEAA_NAEA_J@Z 0000000140021c58 f i libucrt:output.obj
 0001:00020c70       ??$extract_argument_from_va_list@H_J@?$standard_base@_WV?$string_output_adapter@_W@__crt_stdio_output@@@__crt_stdio_output@@IEAA_NAEA_J@Z 0000000140021c70 f i libucrt:output.obj
 0001:00020c88       ??$extract_argument_from_va_list@I_J@?$positional_parameter_base@DV?$stream_output_adapter@D@__crt_stdio_output@@@__crt_stdio_output@@IEAA_NAEA_J@Z 0000000140021c88 f i libucrt:output.obj
 0001:00020d70       ??$extract_argument_from_va_list@I_J@?$positional_parameter_base@DV?$string_output_adapter@D@__crt_stdio_output@@@__crt_stdio_output@@IEAA_NAEA_J@Z 0000000140021d70 f i libucrt:output.obj
 0001:00020e58       ??$extract_argument_from_va_list@I_J@?$positional_parameter_base@_WV?$stream_output_adapter@_W@__crt_stdio_output@@@__crt_stdio_output@@IEAA_NAEA_J@Z 0000000140021e58 f i libucrt:output.obj
 0001:00020f44       ??$extract_argument_from_va_list@I_J@?$positional_parameter_base@_WV?$string_output_adapter@_W@__crt_stdio_output@@@__crt_stdio_output@@IEAA_NAEA_J@Z 0000000140021f44 f i libucrt:output.obj
 0001:00021030       ??$extract_argument_from_va_list@I_J@?$standard_base@DV?$stream_output_adapter@D@__crt_stdio_output@@@__crt_stdio_output@@IEAA_NAEA_J@Z 0000000140022030 f i libucrt:output.obj
 0001:00021048       ??$extract_argument_from_va_list@I_J@?$standard_base@DV?$string_output_adapter@D@__crt_stdio_output@@@__crt_stdio_output@@IEAA_NAEA_J@Z 0000000140022048 f i libucrt:output.obj
 0001:00021060       ??$extract_argument_from_va_list@I_J@?$standard_base@_WV?$stream_output_adapter@_W@__crt_stdio_output@@@__crt_stdio_output@@IEAA_NAEA_J@Z 0000000140022060 f i libucrt:output.obj
 0001:00021078       ??$extract_argument_from_va_list@I_J@?$standard_base@_WV?$string_output_adapter@_W@__crt_stdio_output@@@__crt_stdio_output@@IEAA_NAEA_J@Z 0000000140022078 f i libucrt:output.obj
 0001:00021090       ??$extract_argument_from_va_list@PEADPEAD@?$positional_parameter_base@DV?$stream_output_adapter@D@__crt_stdio_output@@@__crt_stdio_output@@IEAA_NAEAPEAD@Z 0000000140022090 f i libucrt:output.obj
 0001:00021178       ??$extract_argument_from_va_list@PEADPEAD@?$positional_parameter_base@DV?$string_output_adapter@D@__crt_stdio_output@@@__crt_stdio_output@@IEAA_NAEAPEAD@Z 0000000140022178 f i libucrt:output.obj
 0001:00021260       ??$extract_argument_from_va_list@PEADPEAD@?$positional_parameter_base@_WV?$stream_output_adapter@_W@__crt_stdio_output@@@__crt_stdio_output@@IEAA_NAEAPEAD@Z 0000000140022260 f i libucrt:output.obj
 0001:0002134c       ??$extract_argument_from_va_list@PEADPEAD@?$positional_parameter_base@_WV?$string_output_adapter@_W@__crt_stdio_output@@@__crt_stdio_output@@IEAA_NAEAPEAD@Z 000000014002234c f i libucrt:output.obj
 0001:00021438       ??$extract_argument_from_va_list@PEADPEAD@?$standard_base@DV?$stream_output_adapter@D@__crt_stdio_output@@@__crt_stdio_output@@IEAA_NAEAPEAD@Z 0000000140022438 f i libucrt:output.obj
 0001:00021450       ??$extract_argument_from_va_list@PEADPEAD@?$standard_base@DV?$string_output_adapter@D@__crt_stdio_output@@@__crt_stdio_output@@IEAA_NAEAPEAD@Z 0000000140022450 f i libucrt:output.obj
 0001:00021468       ??$extract_argument_from_va_list@PEADPEAD@?$standard_base@_WV?$stream_output_adapter@_W@__crt_stdio_output@@@__crt_stdio_output@@IEAA_NAEAPEAD@Z 0000000140022468 f i libucrt:output.obj
 0001:00021480       ??$extract_argument_from_va_list@PEADPEAD@?$standard_base@_WV?$string_output_adapter@_W@__crt_stdio_output@@@__crt_stdio_output@@IEAA_NAEAPEAD@Z 0000000140022480 f i libucrt:output.obj
 0001:00021498       ??$extract_argument_from_va_list@PEAUansi_string@?1??type_case_Z@?$output_processor@DV?$stream_output_adapter@D@__crt_stdio_output@@V?$format_validation_base@DV?$stream_output_adapter@D@__crt_stdio_output@@@2@@__crt_stdio_output@@AEAA_NXZ@PEAU1?1??234@AEAA_NXZ@@?$standard_base@DV?$stream_output_adapter@D@__crt_stdio_output@@@__crt_stdio_output@@IEAA_NAEAPEAUansi_string@?1??type_case_Z@?$output_processor@DV?$stream_output_adapter@D@__crt_stdio_output@@V?$format_validation_base@DV?$stream_output_adapter@D@__crt_stdio_output@@@2@@1@AEAA_NXZ@@Z 0000000140022498 f i libucrt:output.obj
 0001:000214b0       ??$extract_argument_from_va_list@PEAUansi_string@?1??type_case_Z@?$output_processor@DV?$stream_output_adapter@D@__crt_stdio_output@@V?$positional_parameter_base@DV?$stream_output_adapter@D@__crt_stdio_output@@@2@@__crt_stdio_output@@AEAA_NXZ@PEAU1?1??234@AEAA_NXZ@@?$positional_parameter_base@DV?$stream_output_adapter@D@__crt_stdio_output@@@__crt_stdio_output@@IEAA_NAEAPEAUansi_string@?1??type_case_Z@?$output_processor@DV?$stream_output_adapter@D@__crt_stdio_output@@V?$positional_parameter_base@DV?$stream_output_adapter@D@__crt_stdio_output@@@2@@1@AEAA_NXZ@@Z 00000001400224b0 f i libucrt:output.obj
 0001:00021598       ??$extract_argument_from_va_list@PEAUansi_string@?1??type_case_Z@?$output_processor@DV?$stream_output_adapter@D@__crt_stdio_output@@V?$positional_parameter_base@DV?$stream_output_adapter@D@__crt_stdio_output@@@2@@__crt_stdio_output@@AEAA_NXZ@PEAU1?1??234@AEAA_NXZ@@?$standard_base@DV?$stream_output_adapter@D@__crt_stdio_output@@@__crt_stdio_output@@IEAA_NAEAPEAUansi_string@?1??type_case_Z@?$output_processor@DV?$stream_output_adapter@D@__crt_stdio_output@@V?$positional_parameter_base@DV?$stream_output_adapter@D@__crt_stdio_output@@@2@@1@AEAA_NXZ@@Z 0000000140022598 f i libucrt:output.obj
 0001:000215b0       ??$extract_argument_from_va_list@PEAUansi_string@?1??type_case_Z@?$output_processor@DV?$stream_output_adapter@D@__crt_stdio_output@@V?$standard_base@DV?$stream_output_adapter@D@__crt_stdio_output@@@2@@__crt_stdio_output@@AEAA_NXZ@PEAU1?1??234@AEAA_NXZ@@?$standard_base@DV?$stream_output_adapter@D@__crt_stdio_output@@@__crt_stdio_output@@IEAA_NAEAPEAUansi_string@?1??type_case_Z@?$output_processor@DV?$stream_output_adapter@D@__crt_stdio_output@@V?$standard_base@DV?$stream_output_adapter@D@__crt_stdio_output@@@2@@1@AEAA_NXZ@@Z 00000001400225b0 f i libucrt:output.obj
 0001:000215c8       ??$extract_argument_from_va_list@PEAUansi_string@?1??type_case_Z@?$output_processor@DV?$string_output_adapter@D@__crt_stdio_output@@V?$format_validation_base@DV?$string_output_adapter@D@__crt_stdio_output@@@2@@__crt_stdio_output@@AEAA_NXZ@PEAU1?1??234@AEAA_NXZ@@?$standard_base@DV?$string_output_adapter@D@__crt_stdio_output@@@__crt_stdio_output@@IEAA_NAEAPEAUansi_string@?1??type_case_Z@?$output_processor@DV?$string_output_adapter@D@__crt_stdio_output@@V?$format_validation_base@DV?$string_output_adapter@D@__crt_stdio_output@@@2@@1@AEAA_NXZ@@Z 00000001400225c8 f i libucrt:output.obj
 0001:000215e0       ??$extract_argument_from_va_list@PEAUansi_string@?1??type_case_Z@?$output_processor@DV?$string_output_adapter@D@__crt_stdio_output@@V?$positional_parameter_base@DV?$string_output_adapter@D@__crt_stdio_output@@@2@@__crt_stdio_output@@AEAA_NXZ@PEAU1?1??234@AEAA_NXZ@@?$positional_parameter_base@DV?$string_output_adapter@D@__crt_stdio_output@@@__crt_stdio_output@@IEAA_NAEAPEAUansi_string@?1??type_case_Z@?$output_processor@DV?$string_output_adapter@D@__crt_stdio_output@@V?$positional_parameter_base@DV?$string_output_adapter@D@__crt_stdio_output@@@2@@1@AEAA_NXZ@@Z 00000001400225e0 f i libucrt:output.obj
 0001:000216c8       ??$extract_argument_from_va_list@PEAUansi_string@?1??type_case_Z@?$output_processor@DV?$string_output_adapter@D@__crt_stdio_output@@V?$positional_parameter_base@DV?$string_output_adapter@D@__crt_stdio_output@@@2@@__crt_stdio_output@@AEAA_NXZ@PEAU1?1??234@AEAA_NXZ@@?$standard_base@DV?$string_output_adapter@D@__crt_stdio_output@@@__crt_stdio_output@@IEAA_NAEAPEAUansi_string@?1??type_case_Z@?$output_processor@DV?$string_output_adapter@D@__crt_stdio_output@@V?$positional_parameter_base@DV?$string_output_adapter@D@__crt_stdio_output@@@2@@1@AEAA_NXZ@@Z 00000001400226c8 f i libucrt:output.obj
 0001:000216e0       ??$extract_argument_from_va_list@PEAUansi_string@?1??type_case_Z@?$output_processor@DV?$string_output_adapter@D@__crt_stdio_output@@V?$standard_base@DV?$string_output_adapter@D@__crt_stdio_output@@@2@@__crt_stdio_output@@AEAA_NXZ@PEAU1?1??234@AEAA_NXZ@@?$standard_base@DV?$string_output_adapter@D@__crt_stdio_output@@@__crt_stdio_output@@IEAA_NAEAPEAUansi_string@?1??type_case_Z@?$output_processor@DV?$string_output_adapter@D@__crt_stdio_output@@V?$standard_base@DV?$string_output_adapter@D@__crt_stdio_output@@@2@@1@AEAA_NXZ@@Z 00000001400226e0 f i libucrt:output.obj
 0001:000216f8       ??$extract_argument_from_va_list@PEAUansi_string@?1??type_case_Z@?$output_processor@_WV?$stream_output_adapter@_W@__crt_stdio_output@@V?$format_validation_base@_WV?$stream_output_adapter@_W@__crt_stdio_output@@@2@@__crt_stdio_output@@AEAA_NXZ@PEAU1?1??234@AEAA_NXZ@@?$standard_base@_WV?$stream_output_adapter@_W@__crt_stdio_output@@@__crt_stdio_output@@IEAA_NAEAPEAUansi_string@?1??type_case_Z@?$output_processor@_WV?$stream_output_adapter@_W@__crt_stdio_output@@V?$format_validation_base@_WV?$stream_output_adapter@_W@__crt_stdio_output@@@2@@1@AEAA_NXZ@@Z 00000001400226f8 f i libucrt:output.obj
 0001:00021710       ??$extract_argument_from_va_list@PEAUansi_string@?1??type_case_Z@?$output_processor@_WV?$stream_output_adapter@_W@__crt_stdio_output@@V?$positional_parameter_base@_WV?$stream_output_adapter@_W@__crt_stdio_output@@@2@@__crt_stdio_output@@AEAA_NXZ@PEAU1?1??234@AEAA_NXZ@@?$positional_parameter_base@_WV?$stream_output_adapter@_W@__crt_stdio_output@@@__crt_stdio_output@@IEAA_NAEAPEAUansi_string@?1??type_case_Z@?$output_processor@_WV?$stream_output_adapter@_W@__crt_stdio_output@@V?$positional_parameter_base@_WV?$stream_output_adapter@_W@__crt_stdio_output@@@2@@1@AEAA_NXZ@@Z 0000000140022710 f i libucrt:output.obj
 0001:000217fc       ??$extract_argument_from_va_list@PEAUansi_string@?1??type_case_Z@?$output_processor@_WV?$stream_output_adapter@_W@__crt_stdio_output@@V?$positional_parameter_base@_WV?$stream_output_adapter@_W@__crt_stdio_output@@@2@@__crt_stdio_output@@AEAA_NXZ@PEAU1?1??234@AEAA_NXZ@@?$standard_base@_WV?$stream_output_adapter@_W@__crt_stdio_output@@@__crt_stdio_output@@IEAA_NAEAPEAUansi_string@?1??type_case_Z@?$output_processor@_WV?$stream_output_adapter@_W@__crt_stdio_output@@V?$positional_parameter_base@_WV?$stream_output_adapter@_W@__crt_stdio_output@@@2@@1@AEAA_NXZ@@Z 00000001400227fc f i libucrt:output.obj
 0001:00021814       ??$extract_argument_from_va_list@PEAUansi_string@?1??type_case_Z@?$output_processor@_WV?$stream_output_adapter@_W@__crt_stdio_output@@V?$standard_base@_WV?$stream_output_adapter@_W@__crt_stdio_output@@@2@@__crt_stdio_output@@AEAA_NXZ@PEAU1?1??234@AEAA_NXZ@@?$standard_base@_WV?$stream_output_adapter@_W@__crt_stdio_output@@@__crt_stdio_output@@IEAA_NAEAPEAUansi_string@?1??type_case_Z@?$output_processor@_WV?$stream_output_adapter@_W@__crt_stdio_output@@V?$standard_base@_WV?$stream_output_adapter@_W@__crt_stdio_output@@@2@@1@AEAA_NXZ@@Z 0000000140022814 f i libucrt:output.obj
 0001:0002182c       ??$extract_argument_from_va_list@PEAUansi_string@?1??type_case_Z@?$output_processor@_WV?$string_output_adapter@_W@__crt_stdio_output@@V?$format_validation_base@_WV?$string_output_adapter@_W@__crt_stdio_output@@@2@@__crt_stdio_output@@AEAA_NXZ@PEAU1?1??234@AEAA_NXZ@@?$standard_base@_WV?$string_output_adapter@_W@__crt_stdio_output@@@__crt_stdio_output@@IEAA_NAEAPEAUansi_string@?1??type_case_Z@?$output_processor@_WV?$string_output_adapter@_W@__crt_stdio_output@@V?$format_validation_base@_WV?$string_output_adapter@_W@__crt_stdio_output@@@2@@1@AEAA_NXZ@@Z 000000014002282c f i libucrt:output.obj
 0001:00021844       ??$extract_argument_from_va_list@PEAUansi_string@?1??type_case_Z@?$output_processor@_WV?$string_output_adapter@_W@__crt_stdio_output@@V?$positional_parameter_base@_WV?$string_output_adapter@_W@__crt_stdio_output@@@2@@__crt_stdio_output@@AEAA_NXZ@PEAU1?1??234@AEAA_NXZ@@?$positional_parameter_base@_WV?$string_output_adapter@_W@__crt_stdio_output@@@__crt_stdio_output@@IEAA_NAEAPEAUansi_string@?1??type_case_Z@?$output_processor@_WV?$string_output_adapter@_W@__crt_stdio_output@@V?$positional_parameter_base@_WV?$string_output_adapter@_W@__crt_stdio_output@@@2@@1@AEAA_NXZ@@Z 0000000140022844 f i libucrt:output.obj
 0001:00021930       ??$extract_argument_from_va_list@PEAUansi_string@?1??type_case_Z@?$output_processor@_WV?$string_output_adapter@_W@__crt_stdio_output@@V?$positional_parameter_base@_WV?$string_output_adapter@_W@__crt_stdio_output@@@2@@__crt_stdio_output@@AEAA_NXZ@PEAU1?1??234@AEAA_NXZ@@?$standard_base@_WV?$string_output_adapter@_W@__crt_stdio_output@@@__crt_stdio_output@@IEAA_NAEAPEAUansi_string@?1??type_case_Z@?$output_processor@_WV?$string_output_adapter@_W@__crt_stdio_output@@V?$positional_parameter_base@_WV?$string_output_adapter@_W@__crt_stdio_output@@@2@@1@AEAA_NXZ@@Z 0000000140022930 f i libucrt:output.obj
 0001:00021948       ??$extract_argument_from_va_list@PEAUansi_string@?1??type_case_Z@?$output_processor@_WV?$string_output_adapter@_W@__crt_stdio_output@@V?$standard_base@_WV?$string_output_adapter@_W@__crt_stdio_output@@@2@@__crt_stdio_output@@AEAA_NXZ@PEAU1?1??234@AEAA_NXZ@@?$standard_base@_WV?$string_output_adapter@_W@__crt_stdio_output@@@__crt_stdio_output@@IEAA_NAEAPEAUansi_string@?1??type_case_Z@?$output_processor@_WV?$string_output_adapter@_W@__crt_stdio_output@@V?$standard_base@_WV?$string_output_adapter@_W@__crt_stdio_output@@@2@@1@AEAA_NXZ@@Z 0000000140022948 f i libucrt:output.obj
 0001:00021960       ??$extract_argument_from_va_list@PEAXPEAX@?$positional_parameter_base@DV?$stream_output_adapter@D@__crt_stdio_output@@@__crt_stdio_output@@IEAA_NAEAPEAX@Z 0000000140022960 f i libucrt:output.obj
 0001:00021a48       ??$extract_argument_from_va_list@PEAXPEAX@?$positional_parameter_base@DV?$string_output_adapter@D@__crt_stdio_output@@@__crt_stdio_output@@IEAA_NAEAPEAX@Z 0000000140022a48 f i libucrt:output.obj
 0001:00021b30       ??$extract_argument_from_va_list@PEAXPEAX@?$positional_parameter_base@_WV?$stream_output_adapter@_W@__crt_stdio_output@@@__crt_stdio_output@@IEAA_NAEAPEAX@Z 0000000140022b30 f i libucrt:output.obj
 0001:00021c1c       ??$extract_argument_from_va_list@PEAXPEAX@?$positional_parameter_base@_WV?$string_output_adapter@_W@__crt_stdio_output@@@__crt_stdio_output@@IEAA_NAEAPEAX@Z 0000000140022c1c f i libucrt:output.obj
 0001:00021d08       ??$extract_argument_from_va_list@PEAXPEAX@?$standard_base@DV?$stream_output_adapter@D@__crt_stdio_output@@@__crt_stdio_output@@IEAA_NAEAPEAX@Z 0000000140022d08 f i libucrt:output.obj
 0001:00021d20       ??$extract_argument_from_va_list@PEAXPEAX@?$standard_base@DV?$string_output_adapter@D@__crt_stdio_output@@@__crt_stdio_output@@IEAA_NAEAPEAX@Z 0000000140022d20 f i libucrt:output.obj
 0001:00021d38       ??$extract_argument_from_va_list@PEAXPEAX@?$standard_base@_WV?$stream_output_adapter@_W@__crt_stdio_output@@@__crt_stdio_output@@IEAA_NAEAPEAX@Z 0000000140022d38 f i libucrt:output.obj
 0001:00021d50       ??$extract_argument_from_va_list@PEAXPEAX@?$standard_base@_WV?$string_output_adapter@_W@__crt_stdio_output@@@__crt_stdio_output@@IEAA_NAEAPEAX@Z 0000000140022d50 f i libucrt:output.obj
 0001:00021d68       ??$extract_argument_from_va_list@U_CRT_DOUBLE@@U1@@?$positional_parameter_base@DV?$stream_output_adapter@D@__crt_stdio_output@@@__crt_stdio_output@@IEAA_NAEAU_CRT_DOUBLE@@@Z 0000000140022d68 f i libucrt:output.obj
 0001:00021e50       ??$extract_argument_from_va_list@U_CRT_DOUBLE@@U1@@?$positional_parameter_base@DV?$string_output_adapter@D@__crt_stdio_output@@@__crt_stdio_output@@IEAA_NAEAU_CRT_DOUBLE@@@Z 0000000140022e50 f i libucrt:output.obj
 0001:00021f38       ??$extract_argument_from_va_list@U_CRT_DOUBLE@@U1@@?$positional_parameter_base@_WV?$stream_output_adapter@_W@__crt_stdio_output@@@__crt_stdio_output@@IEAA_NAEAU_CRT_DOUBLE@@@Z 0000000140022f38 f i libucrt:output.obj
 0001:00022024       ??$extract_argument_from_va_list@U_CRT_DOUBLE@@U1@@?$positional_parameter_base@_WV?$string_output_adapter@_W@__crt_stdio_output@@@__crt_stdio_output@@IEAA_NAEAU_CRT_DOUBLE@@@Z 0000000140023024 f i libucrt:output.obj
 0001:00022110       ??$extract_argument_from_va_list@U_CRT_DOUBLE@@U1@@?$standard_base@DV?$stream_output_adapter@D@__crt_stdio_output@@@__crt_stdio_output@@IEAA_NAEAU_CRT_DOUBLE@@@Z 0000000140023110 f i libucrt:output.obj
 0001:0002212c       ??$extract_argument_from_va_list@U_CRT_DOUBLE@@U1@@?$standard_base@DV?$string_output_adapter@D@__crt_stdio_output@@@__crt_stdio_output@@IEAA_NAEAU_CRT_DOUBLE@@@Z 000000014002312c f i libucrt:output.obj
 0001:00022148       ??$extract_argument_from_va_list@U_CRT_DOUBLE@@U1@@?$standard_base@_WV?$stream_output_adapter@_W@__crt_stdio_output@@@__crt_stdio_output@@IEAA_NAEAU_CRT_DOUBLE@@@Z 0000000140023148 f i libucrt:output.obj
 0001:00022164       ??$extract_argument_from_va_list@U_CRT_DOUBLE@@U1@@?$standard_base@_WV?$string_output_adapter@_W@__crt_stdio_output@@@__crt_stdio_output@@IEAA_NAEAU_CRT_DOUBLE@@@Z 0000000140023164 f i libucrt:output.obj
 0001:00022180       ??$extract_argument_from_va_list@_J_J@?$positional_parameter_base@DV?$stream_output_adapter@D@__crt_stdio_output@@@__crt_stdio_output@@IEAA_NAEA_J@Z 0000000140023180 f i libucrt:output.obj
 0001:00022268       ??$extract_argument_from_va_list@_J_J@?$positional_parameter_base@DV?$string_output_adapter@D@__crt_stdio_output@@@__crt_stdio_output@@IEAA_NAEA_J@Z 0000000140023268 f i libucrt:output.obj
 0001:00022350       ??$extract_argument_from_va_list@_J_J@?$positional_parameter_base@_WV?$stream_output_adapter@_W@__crt_stdio_output@@@__crt_stdio_output@@IEAA_NAEA_J@Z 0000000140023350 f i libucrt:output.obj
 0001:0002243c       ??$extract_argument_from_va_list@_J_J@?$positional_parameter_base@_WV?$string_output_adapter@_W@__crt_stdio_output@@@__crt_stdio_output@@IEAA_NAEA_J@Z 000000014002343c f i libucrt:output.obj
 0001:00022528       ??$extract_argument_from_va_list@_J_J@?$standard_base@DV?$stream_output_adapter@D@__crt_stdio_output@@@__crt_stdio_output@@IEAA_NAEA_J@Z 0000000140023528 f i libucrt:output.obj
 0001:00022540       ??$extract_argument_from_va_list@_J_J@?$standard_base@DV?$string_output_adapter@D@__crt_stdio_output@@@__crt_stdio_output@@IEAA_NAEA_J@Z 0000000140023540 f i libucrt:output.obj
 0001:00022558       ??$extract_argument_from_va_list@_J_J@?$standard_base@_WV?$stream_output_adapter@_W@__crt_stdio_output@@@__crt_stdio_output@@IEAA_NAEA_J@Z 0000000140023558 f i libucrt:output.obj
 0001:00022570       ??$extract_argument_from_va_list@_J_J@?$standard_base@_WV?$string_output_adapter@_W@__crt_stdio_output@@@__crt_stdio_output@@IEAA_NAEA_J@Z 0000000140023570 f i libucrt:output.obj
 0001:00022588       ??$extract_argument_from_va_list@_K_J@?$positional_parameter_base@DV?$stream_output_adapter@D@__crt_stdio_output@@@__crt_stdio_output@@IEAA_NAEA_J@Z 0000000140023588 f i libucrt:output.obj
 0001:00022670       ??$extract_argument_from_va_list@_K_J@?$positional_parameter_base@DV?$string_output_adapter@D@__crt_stdio_output@@@__crt_stdio_output@@IEAA_NAEA_J@Z 0000000140023670 f i libucrt:output.obj
 0001:00022758       ??$extract_argument_from_va_list@_K_J@?$positional_parameter_base@_WV?$stream_output_adapter@_W@__crt_stdio_output@@@__crt_stdio_output@@IEAA_NAEA_J@Z 0000000140023758 f i libucrt:output.obj
 0001:00022844       ??$extract_argument_from_va_list@_K_J@?$positional_parameter_base@_WV?$string_output_adapter@_W@__crt_stdio_output@@@__crt_stdio_output@@IEAA_NAEA_J@Z 0000000140023844 f i libucrt:output.obj
 0001:00022930       ??$extract_argument_from_va_list@_K_J@?$standard_base@DV?$stream_output_adapter@D@__crt_stdio_output@@@__crt_stdio_output@@IEAA_NAEA_J@Z 0000000140023930 f i libucrt:output.obj
 0001:00022948       ??$extract_argument_from_va_list@_K_J@?$standard_base@DV?$string_output_adapter@D@__crt_stdio_output@@@__crt_stdio_output@@IEAA_NAEA_J@Z 0000000140023948 f i libucrt:output.obj
 0001:00022960       ??$extract_argument_from_va_list@_K_J@?$standard_base@_WV?$stream_output_adapter@_W@__crt_stdio_output@@@__crt_stdio_output@@IEAA_NAEA_J@Z 0000000140023960 f i libucrt:output.obj
 0001:00022978       ??$extract_argument_from_va_list@_K_J@?$standard_base@_WV?$string_output_adapter@_W@__crt_stdio_output@@@__crt_stdio_output@@IEAA_NAEA_J@Z 0000000140023978 f i libucrt:output.obj
 0001:00022990       ??$extract_argument_from_va_list@_W_W@?$positional_parameter_base@DV?$stream_output_adapter@D@__crt_stdio_output@@@__crt_stdio_output@@IEAA_NAEA_W@Z 0000000140023990 f i libucrt:output.obj
 0001:00022a7c       ??$extract_argument_from_va_list@_W_W@?$positional_parameter_base@DV?$string_output_adapter@D@__crt_stdio_output@@@__crt_stdio_output@@IEAA_NAEA_W@Z 0000000140023a7c f i libucrt:output.obj
 0001:00022b68       ??$extract_argument_from_va_list@_W_W@?$positional_parameter_base@_WV?$stream_output_adapter@_W@__crt_stdio_output@@@__crt_stdio_output@@IEAA_NAEA_W@Z 0000000140023b68 f i libucrt:output.obj
 0001:00022c58       ??$extract_argument_from_va_list@_W_W@?$positional_parameter_base@_WV?$string_output_adapter@_W@__crt_stdio_output@@@__crt_stdio_output@@IEAA_NAEA_W@Z 0000000140023c58 f i libucrt:output.obj
 0001:00022d48       ??$extract_argument_from_va_list@_W_W@?$standard_base@DV?$stream_output_adapter@D@__crt_stdio_output@@@__crt_stdio_output@@IEAA_NAEA_W@Z 0000000140023d48 f i libucrt:output.obj
 0001:00022d60       ??$extract_argument_from_va_list@_W_W@?$standard_base@DV?$string_output_adapter@D@__crt_stdio_output@@@__crt_stdio_output@@IEAA_NAEA_W@Z 0000000140023d60 f i libucrt:output.obj
 0001:00022d78       ??$extract_argument_from_va_list@_W_W@?$standard_base@_WV?$stream_output_adapter@_W@__crt_stdio_output@@@__crt_stdio_output@@IEAA_NAEA_W@Z 0000000140023d78 f i libucrt:output.obj
 0001:00022d90       ??$extract_argument_from_va_list@_W_W@?$standard_base@_WV?$string_output_adapter@_W@__crt_stdio_output@@@__crt_stdio_output@@IEAA_NAEA_W@Z 0000000140023d90 f i libucrt:output.obj
 0001:00022da8       ??$get_parameter_type@D@?$positional_parameter_base@DV?$stream_output_adapter@D@__crt_stdio_output@@@__crt_stdio_output@@CA?AW4parameter_type@01@PEAD@Z 0000000140023da8 f i libucrt:output.obj
 0001:00022db0       ??$get_parameter_type@D@?$positional_parameter_base@DV?$string_output_adapter@D@__crt_stdio_output@@@__crt_stdio_output@@CA?AW4parameter_type@01@PEAD@Z 0000000140023db0 f i libucrt:output.obj
 0001:00022db8       ??$get_parameter_type@D@?$positional_parameter_base@_WV?$stream_output_adapter@_W@__crt_stdio_output@@@__crt_stdio_output@@CA?AW4parameter_type@01@PEAD@Z 0000000140023db8 f i libucrt:output.obj
 0001:00022dc0       ??$get_parameter_type@D@?$positional_parameter_base@_WV?$string_output_adapter@_W@__crt_stdio_output@@@__crt_stdio_output@@CA?AW4parameter_type@01@PEAD@Z 0000000140023dc0 f i libucrt:output.obj
 0001:00022dc8       ??$get_parameter_type@Uansi_string@?1??type_case_Z@?$output_processor@DV?$stream_output_adapter@D@__crt_stdio_output@@V?$positional_parameter_base@DV?$stream_output_adapter@D@__crt_stdio_output@@@2@@__crt_stdio_output@@AEAA_NXZ@@?$positional_parameter_base@DV?$stream_output_adapter@D@__crt_stdio_output@@@__crt_stdio_output@@CA?AW4parameter_type@01@PEAUansi_string@?1??type_case_Z@?$output_processor@DV?$stream_output_adapter@D@__crt_stdio_output@@V?$positional_parameter_base@DV?$stream_output_adapter@D@__crt_stdio_output@@@2@@1@AEAA_NXZ@@Z 0000000140023dc8 f i libucrt:output.obj
 0001:00022dd0       ??$get_parameter_type@Uansi_string@?1??type_case_Z@?$output_processor@DV?$string_output_adapter@D@__crt_stdio_output@@V?$positional_parameter_base@DV?$string_output_adapter@D@__crt_stdio_output@@@2@@__crt_stdio_output@@AEAA_NXZ@@?$positional_parameter_base@DV?$string_output_adapter@D@__crt_stdio_output@@@__crt_stdio_output@@CA?AW4parameter_type@01@PEAUansi_string@?1??type_case_Z@?$output_processor@DV?$string_output_adapter@D@__crt_stdio_output@@V?$positional_parameter_base@DV?$string_output_adapter@D@__crt_stdio_output@@@2@@1@AEAA_NXZ@@Z 0000000140023dd0 f i libucrt:output.obj
 0001:00022dd8       ??$get_parameter_type@Uansi_string@?1??type_case_Z@?$output_processor@_WV?$stream_output_adapter@_W@__crt_stdio_output@@V?$positional_parameter_base@_WV?$stream_output_adapter@_W@__crt_stdio_output@@@2@@__crt_stdio_output@@AEAA_NXZ@@?$positional_parameter_base@_WV?$stream_output_adapter@_W@__crt_stdio_output@@@__crt_stdio_output@@CA?AW4parameter_type@01@PEAUansi_string@?1??type_case_Z@?$output_processor@_WV?$stream_output_adapter@_W@__crt_stdio_output@@V?$positional_parameter_base@_WV?$stream_output_adapter@_W@__crt_stdio_output@@@2@@1@AEAA_NXZ@@Z 0000000140023dd8 f i libucrt:output.obj
 0001:00022de0       ??$get_parameter_type@Uansi_string@?1??type_case_Z@?$output_processor@_WV?$string_output_adapter@_W@__crt_stdio_output@@V?$positional_parameter_base@_WV?$string_output_adapter@_W@__crt_stdio_output@@@2@@__crt_stdio_output@@AEAA_NXZ@@?$positional_parameter_base@_WV?$string_output_adapter@_W@__crt_stdio_output@@@__crt_stdio_output@@CA?AW4parameter_type@01@PEAUansi_string@?1??type_case_Z@?$output_processor@_WV?$string_output_adapter@_W@__crt_stdio_output@@V?$positional_parameter_base@_WV?$string_output_adapter@_W@__crt_stdio_output@@@2@@1@AEAA_NXZ@@Z 0000000140023de0 f i libucrt:output.obj
 0001:00022de8       ??$get_parameter_type@X@?$positional_parameter_base@DV?$stream_output_adapter@D@__crt_stdio_output@@@__crt_stdio_output@@CA?AW4parameter_type@01@PEAX@Z 0000000140023de8 f i libucrt:output.obj
 0001:00022df0       ??$get_parameter_type@X@?$positional_parameter_base@DV?$string_output_adapter@D@__crt_stdio_output@@@__crt_stdio_output@@CA?AW4parameter_type@01@PEAX@Z 0000000140023df0 f i libucrt:output.obj
 0001:00022df8       ??$get_parameter_type@X@?$positional_parameter_base@_WV?$stream_output_adapter@_W@__crt_stdio_output@@@__crt_stdio_output@@CA?AW4parameter_type@01@PEAX@Z 0000000140023df8 f i libucrt:output.obj
 0001:00022e00       ??$get_parameter_type@X@?$positional_parameter_base@_WV?$string_output_adapter@_W@__crt_stdio_output@@@__crt_stdio_output@@CA?AW4parameter_type@01@PEAX@Z 0000000140023e00 f i libucrt:output.obj
 0001:00022e08       ??$is_character_specifier@D@?$positional_parameter_base@DV?$stream_output_adapter@D@__crt_stdio_output@@@__crt_stdio_output@@CA_ND@Z 0000000140023e08 f i libucrt:output.obj
 0001:00022e14       ??$is_character_specifier@D@?$positional_parameter_base@DV?$string_output_adapter@D@__crt_stdio_output@@@__crt_stdio_output@@CA_ND@Z 0000000140023e14 f i libucrt:output.obj
 0001:00022e20       ??$is_character_specifier@_W@?$positional_parameter_base@_WV?$stream_output_adapter@_W@__crt_stdio_output@@@__crt_stdio_output@@CA_N_W@Z 0000000140023e20 f i libucrt:output.obj
 0001:00022e34       ??$is_character_specifier@_W@?$positional_parameter_base@_WV?$string_output_adapter@_W@__crt_stdio_output@@@__crt_stdio_output@@CA_N_W@Z 0000000140023e34 f i libucrt:output.obj
 0001:00022e48       ??$is_integral_specifier@D@?$positional_parameter_base@DV?$stream_output_adapter@D@__crt_stdio_output@@@__crt_stdio_output@@CA_ND@Z 0000000140023e48 f i libucrt:output.obj
 0001:00022e74       ??$is_integral_specifier@D@?$positional_parameter_base@DV?$string_output_adapter@D@__crt_stdio_output@@@__crt_stdio_output@@CA_ND@Z 0000000140023e74 f i libucrt:output.obj
 0001:00022ea0       ??$is_integral_specifier@_W@?$positional_parameter_base@_WV?$stream_output_adapter@_W@__crt_stdio_output@@@__crt_stdio_output@@CA_N_W@Z 0000000140023ea0 f i libucrt:output.obj
 0001:00022ed0       ??$is_integral_specifier@_W@?$positional_parameter_base@_WV?$string_output_adapter@_W@__crt_stdio_output@@@__crt_stdio_output@@CA_N_W@Z 0000000140023ed0 f i libucrt:output.obj
 0001:00022f00       ??$is_pointer_specifier@D@?$positional_parameter_base@DV?$stream_output_adapter@D@__crt_stdio_output@@@__crt_stdio_output@@CA_ND@Z 0000000140023f00 f i libucrt:output.obj
 0001:00022f08       ??$is_pointer_specifier@D@?$positional_parameter_base@DV?$string_output_adapter@D@__crt_stdio_output@@@__crt_stdio_output@@CA_ND@Z 0000000140023f08 f i libucrt:output.obj
 0001:00022f10       ??$is_pointer_specifier@_W@?$positional_parameter_base@_WV?$stream_output_adapter@_W@__crt_stdio_output@@@__crt_stdio_output@@CA_N_W@Z 0000000140023f10 f i libucrt:output.obj
 0001:00022f1c       ??$is_pointer_specifier@_W@?$positional_parameter_base@_WV?$string_output_adapter@_W@__crt_stdio_output@@@__crt_stdio_output@@CA_N_W@Z 0000000140023f1c f i libucrt:output.obj
 0001:00022f28       ??$is_string_specifier@D@?$positional_parameter_base@DV?$stream_output_adapter@D@__crt_stdio_output@@@__crt_stdio_output@@CA_ND@Z 0000000140023f28 f i libucrt:output.obj
 0001:00022f34       ??$is_string_specifier@D@?$positional_parameter_base@DV?$string_output_adapter@D@__crt_stdio_output@@@__crt_stdio_output@@CA_ND@Z 0000000140023f34 f i libucrt:output.obj
 0001:00022f40       ??$is_string_specifier@_W@?$positional_parameter_base@_WV?$stream_output_adapter@_W@__crt_stdio_output@@@__crt_stdio_output@@CA_N_W@Z 0000000140023f40 f i libucrt:output.obj
 0001:00022f54       ??$is_string_specifier@_W@?$positional_parameter_base@_WV?$string_output_adapter@_W@__crt_stdio_output@@@__crt_stdio_output@@CA_N_W@Z 0000000140023f54 f i libucrt:output.obj
 0001:00022f68       ??$is_wide_character_specifier@D@__crt_stdio_output@@YA_N_KDW4length_modifier@0@@Z 0000000140023f68 f i libucrt:output.obj
 0001:00022f9c       ??$is_wide_character_specifier@_W@__crt_stdio_output@@YA_N_K_WW4length_modifier@0@@Z 0000000140023f9c f i libucrt:output.obj
 0001:00022fec       ??$peek_va_arg@C@__crt_stdio_output@@YACPEAD@Z 0000000140023fec f i libucrt:output.obj
 0001:00022ff0       ??$peek_va_arg@E@__crt_stdio_output@@YAEPEAD@Z 0000000140023ff0 f i libucrt:output.obj
 0001:00022ff4       ??$peek_va_arg@F@__crt_stdio_output@@YAFPEAD@Z 0000000140023ff4 f i libucrt:output.obj
 0001:00022ff8       ??$peek_va_arg@G@__crt_stdio_output@@YAGPEAD@Z 0000000140023ff8 f i libucrt:output.obj
 0001:00022ffc       ??$peek_va_arg@H@__crt_stdio_output@@YAHPEAD@Z 0000000140023ffc f i libucrt:output.obj
 0001:00023000       ??$peek_va_arg@I@__crt_stdio_output@@YAIPEAD@Z 0000000140024000 f i libucrt:output.obj
 0001:00023004       ??$peek_va_arg@PEAD@__crt_stdio_output@@YAPEADPEAD@Z 0000000140024004 f i libucrt:output.obj
 0001:00023008       ??$peek_va_arg@PEAUansi_string@?1??type_case_Z@?$output_processor@DV?$stream_output_adapter@D@__crt_stdio_output@@V?$positional_parameter_base@DV?$stream_output_adapter@D@__crt_stdio_output@@@2@@__crt_stdio_output@@AEAA_NXZ@@__crt_stdio_output@@YAPEAUansi_string@?1??type_case_Z@?$output_processor@DV?$stream_output_adapter@D@__crt_stdio_output@@V?$positional_parameter_base@DV?$stream_output_adapter@D@__crt_stdio_output@@@2@@0@AEAA_NXZ@PEAD@Z 0000000140024008 f i libucrt:output.obj
 0001:0002300c       ??$peek_va_arg@PEAUansi_string@?1??type_case_Z@?$output_processor@DV?$string_output_adapter@D@__crt_stdio_output@@V?$positional_parameter_base@DV?$string_output_adapter@D@__crt_stdio_output@@@2@@__crt_stdio_output@@AEAA_NXZ@@__crt_stdio_output@@YAPEAUansi_string@?1??type_case_Z@?$output_processor@DV?$string_output_adapter@D@__crt_stdio_output@@V?$positional_parameter_base@DV?$string_output_adapter@D@__crt_stdio_output@@@2@@0@AEAA_NXZ@PEAD@Z 000000014002400c f i libucrt:output.obj
 0001:00023010       ??$peek_va_arg@PEAUansi_string@?1??type_case_Z@?$output_processor@_WV?$stream_output_adapter@_W@__crt_stdio_output@@V?$positional_parameter_base@_WV?$stream_output_adapter@_W@__crt_stdio_output@@@2@@__crt_stdio_output@@AEAA_NXZ@@__crt_stdio_output@@YAPEAUansi_string@?1??type_case_Z@?$output_processor@_WV?$stream_output_adapter@_W@__crt_stdio_output@@V?$positional_parameter_base@_WV?$stream_output_adapter@_W@__crt_stdio_output@@@2@@0@AEAA_NXZ@PEAD@Z 0000000140024010 f i libucrt:output.obj
 0001:00023014       ??$peek_va_arg@PEAUansi_string@?1??type_case_Z@?$output_processor@_WV?$string_output_adapter@_W@__crt_stdio_output@@V?$positional_parameter_base@_WV?$string_output_adapter@_W@__crt_stdio_output@@@2@@__crt_stdio_output@@AEAA_NXZ@@__crt_stdio_output@@YAPEAUansi_string@?1??type_case_Z@?$output_processor@_WV?$string_output_adapter@_W@__crt_stdio_output@@V?$positional_parameter_base@_WV?$string_output_adapter@_W@__crt_stdio_output@@@2@@0@AEAA_NXZ@PEAD@Z 0000000140024014 f i libucrt:output.obj
 0001:00023018       ??$peek_va_arg@PEAX@__crt_stdio_output@@YAPEAXPEAD@Z 0000000140024018 f i libucrt:output.obj
 0001:0002301c       ??$peek_va_arg@U_CRT_DOUBLE@@@__crt_stdio_output@@YA?AU_CRT_DOUBLE@@PEAD@Z 000000014002401c f i libucrt:output.obj
 0001:00023020       ??$peek_va_arg@_J@__crt_stdio_output@@YA_JPEAD@Z 0000000140024020 f i libucrt:output.obj
 0001:00023024       ??$peek_va_arg@_K@__crt_stdio_output@@YA_KPEAD@Z 0000000140024024 f i libucrt:output.obj
 0001:00023028       ??$peek_va_arg@_W@__crt_stdio_output@@YA_WPEAD@Z 0000000140024028 f i libucrt:output.obj
 0001:0002302c       ??$puttc_nolock@AEBDPEAU_iobuf@@@?$__crt_char_traits@D@@SAHAEBD$$QEAPEAU_iobuf@@@Z 000000014002402c f i libucrt:output.obj
 0001:0002303c       ??$puttc_nolock@AEB_WPEAU_iobuf@@@?$__crt_char_traits@_W@@SAGAEB_W$$QEAPEAU_iobuf@@@Z 000000014002403c f i libucrt:output.obj
 0001:0002304c       ??$read_va_arg@C@__crt_stdio_output@@YACAEAPEAD@Z 000000014002404c f i libucrt:output.obj
 0001:0002305c       ??$read_va_arg@E@__crt_stdio_output@@YAEAEAPEAD@Z 000000014002405c f i libucrt:output.obj
 0001:0002306c       ??$read_va_arg@F@__crt_stdio_output@@YAFAEAPEAD@Z 000000014002406c f i libucrt:output.obj
 0001:0002307c       ??$read_va_arg@G@__crt_stdio_output@@YAGAEAPEAD@Z 000000014002407c f i libucrt:output.obj
 0001:0002308c       ??$read_va_arg@H@__crt_stdio_output@@YAHAEAPEAD@Z 000000014002408c f i libucrt:output.obj
 0001:0002309c       ??$read_va_arg@I@__crt_stdio_output@@YAIAEAPEAD@Z 000000014002409c f i libucrt:output.obj
 0001:000230ac       ??$read_va_arg@PEAD@__crt_stdio_output@@YAPEADAEAPEAD@Z 00000001400240ac f i libucrt:output.obj
 0001:000230bc       ??$read_va_arg@PEAUansi_string@?1??type_case_Z@?$output_processor@DV?$stream_output_adapter@D@__crt_stdio_output@@V?$format_validation_base@DV?$stream_output_adapter@D@__crt_stdio_output@@@2@@__crt_stdio_output@@AEAA_NXZ@@__crt_stdio_output@@YAPEAUansi_string@?1??type_case_Z@?$output_processor@DV?$stream_output_adapter@D@__crt_stdio_output@@V?$format_validation_base@DV?$stream_output_adapter@D@__crt_stdio_output@@@2@@0@AEAA_NXZ@AEAPEAD@Z 00000001400240bc f i libucrt:output.obj
 0001:000230cc       ??$read_va_arg@PEAUansi_string@?1??type_case_Z@?$output_processor@DV?$stream_output_adapter@D@__crt_stdio_output@@V?$positional_parameter_base@DV?$stream_output_adapter@D@__crt_stdio_output@@@2@@__crt_stdio_output@@AEAA_NXZ@@__crt_stdio_output@@YAPEAUansi_string@?1??type_case_Z@?$output_processor@DV?$stream_output_adapter@D@__crt_stdio_output@@V?$positional_parameter_base@DV?$stream_output_adapter@D@__crt_stdio_output@@@2@@0@AEAA_NXZ@AEAPEAD@Z 00000001400240cc f i libucrt:output.obj
 0001:000230dc       ??$read_va_arg@PEAUansi_string@?1??type_case_Z@?$output_processor@DV?$stream_output_adapter@D@__crt_stdio_output@@V?$standard_base@DV?$stream_output_adapter@D@__crt_stdio_output@@@2@@__crt_stdio_output@@AEAA_NXZ@@__crt_stdio_output@@YAPEAUansi_string@?1??type_case_Z@?$output_processor@DV?$stream_output_adapter@D@__crt_stdio_output@@V?$standard_base@DV?$stream_output_adapter@D@__crt_stdio_output@@@2@@0@AEAA_NXZ@AEAPEAD@Z 00000001400240dc f i libucrt:output.obj
 0001:000230ec       ??$read_va_arg@PEAUansi_string@?1??type_case_Z@?$output_processor@DV?$string_output_adapter@D@__crt_stdio_output@@V?$format_validation_base@DV?$string_output_adapter@D@__crt_stdio_output@@@2@@__crt_stdio_output@@AEAA_NXZ@@__crt_stdio_output@@YAPEAUansi_string@?1??type_case_Z@?$output_processor@DV?$string_output_adapter@D@__crt_stdio_output@@V?$format_validation_base@DV?$string_output_adapter@D@__crt_stdio_output@@@2@@0@AEAA_NXZ@AEAPEAD@Z 00000001400240ec f i libucrt:output.obj
 0001:000230fc       ??$read_va_arg@PEAUansi_string@?1??type_case_Z@?$output_processor@DV?$string_output_adapter@D@__crt_stdio_output@@V?$positional_parameter_base@DV?$string_output_adapter@D@__crt_stdio_output@@@2@@__crt_stdio_output@@AEAA_NXZ@@__crt_stdio_output@@YAPEAUansi_string@?1??type_case_Z@?$output_processor@DV?$string_output_adapter@D@__crt_stdio_output@@V?$positional_parameter_base@DV?$string_output_adapter@D@__crt_stdio_output@@@2@@0@AEAA_NXZ@AEAPEAD@Z 00000001400240fc f i libucrt:output.obj
 0001:0002310c       ??$read_va_arg@PEAUansi_string@?1??type_case_Z@?$output_processor@DV?$string_output_adapter@D@__crt_stdio_output@@V?$standard_base@DV?$string_output_adapter@D@__crt_stdio_output@@@2@@__crt_stdio_output@@AEAA_NXZ@@__crt_stdio_output@@YAPEAUansi_string@?1??type_case_Z@?$output_processor@DV?$string_output_adapter@D@__crt_stdio_output@@V?$standard_base@DV?$string_output_adapter@D@__crt_stdio_output@@@2@@0@AEAA_NXZ@AEAPEAD@Z 000000014002410c f i libucrt:output.obj
 0001:0002311c       ??$read_va_arg@PEAUansi_string@?1??type_case_Z@?$output_processor@_WV?$stream_output_adapter@_W@__crt_stdio_output@@V?$format_validation_base@_WV?$stream_output_adapter@_W@__crt_stdio_output@@@2@@__crt_stdio_output@@AEAA_NXZ@@__crt_stdio_output@@YAPEAUansi_string@?1??type_case_Z@?$output_processor@_WV?$stream_output_adapter@_W@__crt_stdio_output@@V?$format_validation_base@_WV?$stream_output_adapter@_W@__crt_stdio_output@@@2@@0@AEAA_NXZ@AEAPEAD@Z 000000014002411c f i libucrt:output.obj
 0001:0002312c       ??$read_va_arg@PEAUansi_string@?1??type_case_Z@?$output_processor@_WV?$stream_output_adapter@_W@__crt_stdio_output@@V?$positional_parameter_base@_WV?$stream_output_adapter@_W@__crt_stdio_output@@@2@@__crt_stdio_output@@AEAA_NXZ@@__crt_stdio_output@@YAPEAUansi_string@?1??type_case_Z@?$output_processor@_WV?$stream_output_adapter@_W@__crt_stdio_output@@V?$positional_parameter_base@_WV?$stream_output_adapter@_W@__crt_stdio_output@@@2@@0@AEAA_NXZ@AEAPEAD@Z 000000014002412c f i libucrt:output.obj
 0001:0002313c       ??$read_va_arg@PEAUansi_string@?1??type_case_Z@?$output_processor@_WV?$stream_output_adapter@_W@__crt_stdio_output@@V?$standard_base@_WV?$stream_output_adapter@_W@__crt_stdio_output@@@2@@__crt_stdio_output@@AEAA_NXZ@@__crt_stdio_output@@YAPEAUansi_string@?1??type_case_Z@?$output_processor@_WV?$stream_output_adapter@_W@__crt_stdio_output@@V?$standard_base@_WV?$stream_output_adapter@_W@__crt_stdio_output@@@2@@0@AEAA_NXZ@AEAPEAD@Z 000000014002413c f i libucrt:output.obj
 0001:0002314c       ??$read_va_arg@PEAUansi_string@?1??type_case_Z@?$output_processor@_WV?$string_output_adapter@_W@__crt_stdio_output@@V?$format_validation_base@_WV?$string_output_adapter@_W@__crt_stdio_output@@@2@@__crt_stdio_output@@AEAA_NXZ@@__crt_stdio_output@@YAPEAUansi_string@?1??type_case_Z@?$output_processor@_WV?$string_output_adapter@_W@__crt_stdio_output@@V?$format_validation_base@_WV?$string_output_adapter@_W@__crt_stdio_output@@@2@@0@AEAA_NXZ@AEAPEAD@Z 000000014002414c f i libucrt:output.obj
 0001:0002315c       ??$read_va_arg@PEAUansi_string@?1??type_case_Z@?$output_processor@_WV?$string_output_adapter@_W@__crt_stdio_output@@V?$positional_parameter_base@_WV?$string_output_adapter@_W@__crt_stdio_output@@@2@@__crt_stdio_output@@AEAA_NXZ@@__crt_stdio_output@@YAPEAUansi_string@?1??type_case_Z@?$output_processor@_WV?$string_output_adapter@_W@__crt_stdio_output@@V?$positional_parameter_base@_WV?$string_output_adapter@_W@__crt_stdio_output@@@2@@0@AEAA_NXZ@AEAPEAD@Z 000000014002415c f i libucrt:output.obj
 0001:0002316c       ??$read_va_arg@PEAUansi_string@?1??type_case_Z@?$output_processor@_WV?$string_output_adapter@_W@__crt_stdio_output@@V?$standard_base@_WV?$string_output_adapter@_W@__crt_stdio_output@@@2@@__crt_stdio_output@@AEAA_NXZ@@__crt_stdio_output@@YAPEAUansi_string@?1??type_case_Z@?$output_processor@_WV?$string_output_adapter@_W@__crt_stdio_output@@V?$standard_base@_WV?$string_output_adapter@_W@__crt_stdio_output@@@2@@0@AEAA_NXZ@AEAPEAD@Z 000000014002416c f i libucrt:output.obj
 0001:0002317c       ??$read_va_arg@PEAX@__crt_stdio_output@@YAPEAXAEAPEAD@Z 000000014002417c f i libucrt:output.obj
 0001:0002318c       ??$read_va_arg@U_CRT_DOUBLE@@@__crt_stdio_output@@YA?AU_CRT_DOUBLE@@AEAPEAD@Z 000000014002418c f i libucrt:output.obj
 0001:0002319c       ??$read_va_arg@_J@__crt_stdio_output@@YA_JAEAPEAD@Z 000000014002419c f i libucrt:output.obj
 0001:000231ac       ??$read_va_arg@_K@__crt_stdio_output@@YA_KAEAPEAD@Z 00000001400241ac f i libucrt:output.obj
 0001:000231bc       ??$read_va_arg@_W@__crt_stdio_output@@YA_WAEAPEAD@Z 00000001400241bc f i libucrt:output.obj
 0001:000231cc       ??$scratch_count@D@formatting_buffer@__crt_stdio_output@@QEBA_KXZ 00000001400241cc f i libucrt:output.obj
 0001:000231f0       ??$scratch_data@D@formatting_buffer@__crt_stdio_output@@QEAAPEADXZ 00000001400241f0 f i libucrt:output.obj
 0001:0002321c       ??$tcstol@AEAPEBDPEAPEADH@?$__crt_char_traits@D@@SAJAEAPEBD$$QEAPEAPEAD$$QEAH@Z 000000014002421c f i libucrt:output.obj
 0001:00023230       ??$tcstol@AEAPEB_WPEAPEA_WH@?$__crt_char_traits@_W@@SAJAEAPEB_W$$QEAPEAPEA_W$$QEAH@Z 0000000140024230 f i libucrt:output.obj
 0001:00023244       ??$tcstol@PEBDPEAPEADH@?$__crt_char_traits@D@@SAJ$$QEAPEBD$$QEAPEAPEAD$$QEAH@Z 0000000140024244 f i libucrt:output.obj
 0001:00023258       ??$tcstol@PEB_WPEAPEA_WH@?$__crt_char_traits@_W@@SAJ$$QEAPEB_W$$QEAPEAPEA_W$$QEAH@Z 0000000140024258 f i libucrt:output.obj
 0001:0002326c       ??$type_case_integer_parse_into_buffer@I@?$output_processor@DV?$stream_output_adapter@D@__crt_stdio_output@@V?$format_validation_base@DV?$stream_output_adapter@D@__crt_stdio_output@@@2@@__crt_stdio_output@@AEAAXII_N@Z 000000014002426c f i libucrt:output.obj
 0001:00023314       ??$type_case_integer_parse_into_buffer@I@?$output_processor@DV?$stream_output_adapter@D@__crt_stdio_output@@V?$positional_parameter_base@DV?$stream_output_adapter@D@__crt_stdio_output@@@2@@__crt_stdio_output@@AEAAXII_N@Z 0000000140024314 f i libucrt:output.obj
 0001:000233bc       ??$type_case_integer_parse_into_buffer@I@?$output_processor@DV?$stream_output_adapter@D@__crt_stdio_output@@V?$standard_base@DV?$stream_output_adapter@D@__crt_stdio_output@@@2@@__crt_stdio_output@@AEAAXII_N@Z 00000001400243bc f i libucrt:output.obj
 0001:00023464       ??$type_case_integer_parse_into_buffer@I@?$output_processor@DV?$string_output_adapter@D@__crt_stdio_output@@V?$format_validation_base@DV?$string_output_adapter@D@__crt_stdio_output@@@2@@__crt_stdio_output@@AEAAXII_N@Z 0000000140024464 f i libucrt:output.obj
 0001:0002350c       ??$type_case_integer_parse_into_buffer@I@?$output_processor@DV?$string_output_adapter@D@__crt_stdio_output@@V?$positional_parameter_base@DV?$string_output_adapter@D@__crt_stdio_output@@@2@@__crt_stdio_output@@AEAAXII_N@Z 000000014002450c f i libucrt:output.obj
 0001:000235b4       ??$type_case_integer_parse_into_buffer@I@?$output_processor@DV?$string_output_adapter@D@__crt_stdio_output@@V?$standard_base@DV?$string_output_adapter@D@__crt_stdio_output@@@2@@__crt_stdio_output@@AEAAXII_N@Z 00000001400245b4 f i libucrt:output.obj
 0001:0002365c       ??$type_case_integer_parse_into_buffer@I@?$output_processor@_WV?$stream_output_adapter@_W@__crt_stdio_output@@V?$format_validation_base@_WV?$stream_output_adapter@_W@__crt_stdio_output@@@2@@__crt_stdio_output@@AEAAXII_N@Z 000000014002465c f i libucrt:output.obj
 0001:00023728       ??$type_case_integer_parse_into_buffer@I@?$output_processor@_WV?$stream_output_adapter@_W@__crt_stdio_output@@V?$positional_parameter_base@_WV?$stream_output_adapter@_W@__crt_stdio_output@@@2@@__crt_stdio_output@@AEAAXII_N@Z 0000000140024728 f i libucrt:output.obj
 0001:000237f4       ??$type_case_integer_parse_into_buffer@I@?$output_processor@_WV?$stream_output_adapter@_W@__crt_stdio_output@@V?$standard_base@_WV?$stream_output_adapter@_W@__crt_stdio_output@@@2@@__crt_stdio_output@@AEAAXII_N@Z 00000001400247f4 f i libucrt:output.obj
 0001:000238c0       ??$type_case_integer_parse_into_buffer@I@?$output_processor@_WV?$string_output_adapter@_W@__crt_stdio_output@@V?$format_validation_base@_WV?$string_output_adapter@_W@__crt_stdio_output@@@2@@__crt_stdio_output@@AEAAXII_N@Z 00000001400248c0 f i libucrt:output.obj
 0001:0002398c       ??$type_case_integer_parse_into_buffer@I@?$output_processor@_WV?$string_output_adapter@_W@__crt_stdio_output@@V?$positional_parameter_base@_WV?$string_output_adapter@_W@__crt_stdio_output@@@2@@__crt_stdio_output@@AEAAXII_N@Z 000000014002498c f i libucrt:output.obj
 0001:00023a58       ??$type_case_integer_parse_into_buffer@I@?$output_processor@_WV?$string_output_adapter@_W@__crt_stdio_output@@V?$standard_base@_WV?$string_output_adapter@_W@__crt_stdio_output@@@2@@__crt_stdio_output@@AEAAXII_N@Z 0000000140024a58 f i libucrt:output.obj
 0001:00023b24       ??$type_case_integer_parse_into_buffer@_K@?$output_processor@DV?$stream_output_adapter@D@__crt_stdio_output@@V?$format_validation_base@DV?$stream_output_adapter@D@__crt_stdio_output@@@2@@__crt_stdio_output@@AEAAX_KI_N@Z 0000000140024b24 f i libucrt:output.obj
 0001:00023bd4       ??$type_case_integer_parse_into_buffer@_K@?$output_processor@DV?$stream_output_adapter@D@__crt_stdio_output@@V?$positional_parameter_base@DV?$stream_output_adapter@D@__crt_stdio_output@@@2@@__crt_stdio_output@@AEAAX_KI_N@Z 0000000140024bd4 f i libucrt:output.obj
 0001:00023c84       ??$type_case_integer_parse_into_buffer@_K@?$output_processor@DV?$stream_output_adapter@D@__crt_stdio_output@@V?$standard_base@DV?$stream_output_adapter@D@__crt_stdio_output@@@2@@__crt_stdio_output@@AEAAX_KI_N@Z 0000000140024c84 f i libucrt:output.obj
 0001:00023d34       ??$type_case_integer_parse_into_buffer@_K@?$output_processor@DV?$string_output_adapter@D@__crt_stdio_output@@V?$format_validation_base@DV?$string_output_adapter@D@__crt_stdio_output@@@2@@__crt_stdio_output@@AEAAX_KI_N@Z 0000000140024d34 f i libucrt:output.obj
 0001:00023de4       ??$type_case_integer_parse_into_buffer@_K@?$output_processor@DV?$string_output_adapter@D@__crt_stdio_output@@V?$positional_parameter_base@DV?$string_output_adapter@D@__crt_stdio_output@@@2@@__crt_stdio_output@@AEAAX_KI_N@Z 0000000140024de4 f i libucrt:output.obj
 0001:00023e94       ??$type_case_integer_parse_into_buffer@_K@?$output_processor@DV?$string_output_adapter@D@__crt_stdio_output@@V?$standard_base@DV?$string_output_adapter@D@__crt_stdio_output@@@2@@__crt_stdio_output@@AEAAX_KI_N@Z 0000000140024e94 f i libucrt:output.obj
 0001:00023f44       ??$type_case_integer_parse_into_buffer@_K@?$output_processor@_WV?$stream_output_adapter@_W@__crt_stdio_output@@V?$format_validation_base@_WV?$stream_output_adapter@_W@__crt_stdio_output@@@2@@__crt_stdio_output@@AEAAX_KI_N@Z 0000000140024f44 f i libucrt:output.obj
 0001:00024014       ??$type_case_integer_parse_into_buffer@_K@?$output_processor@_WV?$stream_output_adapter@_W@__crt_stdio_output@@V?$positional_parameter_base@_WV?$stream_output_adapter@_W@__crt_stdio_output@@@2@@__crt_stdio_output@@AEAAX_KI_N@Z 0000000140025014 f i libucrt:output.obj
 0001:000240e4       ??$type_case_integer_parse_into_buffer@_K@?$output_processor@_WV?$stream_output_adapter@_W@__crt_stdio_output@@V?$standard_base@_WV?$stream_output_adapter@_W@__crt_stdio_output@@@2@@__crt_stdio_output@@AEAAX_KI_N@Z 00000001400250e4 f i libucrt:output.obj
 0001:000241b4       ??$type_case_integer_parse_into_buffer@_K@?$output_processor@_WV?$string_output_adapter@_W@__crt_stdio_output@@V?$format_validation_base@_WV?$string_output_adapter@_W@__crt_stdio_output@@@2@@__crt_stdio_output@@AEAAX_KI_N@Z 00000001400251b4 f i libucrt:output.obj
 0001:00024284       ??$type_case_integer_parse_into_buffer@_K@?$output_processor@_WV?$string_output_adapter@_W@__crt_stdio_output@@V?$positional_parameter_base@_WV?$string_output_adapter@_W@__crt_stdio_output@@@2@@__crt_stdio_output@@AEAAX_KI_N@Z 0000000140025284 f i libucrt:output.obj
 0001:00024354       ??$type_case_integer_parse_into_buffer@_K@?$output_processor@_WV?$string_output_adapter@_W@__crt_stdio_output@@V?$standard_base@_WV?$string_output_adapter@_W@__crt_stdio_output@@@2@@__crt_stdio_output@@AEAAX_KI_N@Z 0000000140025354 f i libucrt:output.obj
 0001:00024424       ??$write_multiple_characters@V?$stream_output_adapter@D@__crt_stdio_output@@D@__crt_stdio_output@@YAXAEBV?$stream_output_adapter@D@0@DHQEAH@Z 0000000140025424 f i libucrt:output.obj
 0001:000244d4       ??$write_multiple_characters@V?$stream_output_adapter@_W@__crt_stdio_output@@D@__crt_stdio_output@@YAXAEBV?$stream_output_adapter@_W@0@DHQEAH@Z 00000001400254d4 f i libucrt:output.obj
 0001:0002458c       ??$write_multiple_characters@V?$string_output_adapter@D@__crt_stdio_output@@D@__crt_stdio_output@@YAXAEBV?$string_output_adapter@D@0@DHQEAH@Z 000000014002558c f i libucrt:output.obj
 0001:00024620       ??$write_multiple_characters@V?$string_output_adapter@_W@__crt_stdio_output@@D@__crt_stdio_output@@YAXAEBV?$string_output_adapter@_W@0@DHQEAH@Z 0000000140025620 f i libucrt:output.obj
 0001:0002484c       ??0?$common_data@D@__crt_stdio_output@@IEAA@XZ 000000014002584c f i libucrt:output.obj
 0001:00024898       ??0?$common_data@_W@__crt_stdio_output@@IEAA@XZ 0000000140025898 f i libucrt:output.obj
 0001:000248e8       ??0?$output_adapter_data@DV?$stream_output_adapter@D@__crt_stdio_output@@@__crt_stdio_output@@IEAA@AEBV?$stream_output_adapter@D@1@_KQEBDQEAU__crt_locale_pointers@@QEAD@Z 00000001400258e8 f i libucrt:output.obj
 0001:00024960       ??0?$output_adapter_data@DV?$string_output_adapter@D@__crt_stdio_output@@@__crt_stdio_output@@IEAA@AEBV?$string_output_adapter@D@1@_KQEBDQEAU__crt_locale_pointers@@QEAD@Z 0000000140025960 f i libucrt:output.obj
 0001:000249d8       ??0?$output_adapter_data@_WV?$stream_output_adapter@_W@__crt_stdio_output@@@__crt_stdio_output@@IEAA@AEBV?$stream_output_adapter@_W@1@_KQEB_WQEAU__crt_locale_pointers@@QEAD@Z 00000001400259d8 f i libucrt:output.obj
 0001:00024a54       ??0?$output_adapter_data@_WV?$string_output_adapter@_W@__crt_stdio_output@@@__crt_stdio_output@@IEAA@AEBV?$string_output_adapter@_W@1@_KQEB_WQEAU__crt_locale_pointers@@QEAD@Z 0000000140025a54 f i libucrt:output.obj
 0001:00024ad0       ??0?$output_processor@DV?$stream_output_adapter@D@__crt_stdio_output@@V?$format_validation_base@DV?$stream_output_adapter@D@__crt_stdio_output@@@2@@__crt_stdio_output@@QEAA@AEBV?$stream_output_adapter@D@1@_KQEBDQEAU__crt_locale_pointers@@QEAD@Z 0000000140025ad0 f i libucrt:output.obj
 0001:00024b58       ??0?$output_processor@DV?$stream_output_adapter@D@__crt_stdio_output@@V?$positional_parameter_base@DV?$stream_output_adapter@D@__crt_stdio_output@@@2@@__crt_stdio_output@@QEAA@AEBV?$stream_output_adapter@D@1@_KQEBDQEAU__crt_locale_pointers@@QEAD@Z 0000000140025b58 f i libucrt:output.obj
 0001:00024c04       ??0?$output_processor@DV?$stream_output_adapter@D@__crt_stdio_output@@V?$standard_base@DV?$stream_output_adapter@D@__crt_stdio_output@@@2@@__crt_stdio_output@@QEAA@AEBV?$stream_output_adapter@D@1@_KQEBDQEAU__crt_locale_pointers@@QEAD@Z 0000000140025c04 f i libucrt:output.obj
 0001:00024c8c       ??0?$output_processor@DV?$string_output_adapter@D@__crt_stdio_output@@V?$format_validation_base@DV?$string_output_adapter@D@__crt_stdio_output@@@2@@__crt_stdio_output@@QEAA@AEBV?$string_output_adapter@D@1@_KQEBDQEAU__crt_locale_pointers@@QEAD@Z 0000000140025c8c f i libucrt:output.obj
 0001:00024d14       ??0?$output_processor@DV?$string_output_adapter@D@__crt_stdio_output@@V?$positional_parameter_base@DV?$string_output_adapter@D@__crt_stdio_output@@@2@@__crt_stdio_output@@QEAA@AEBV?$string_output_adapter@D@1@_KQEBDQEAU__crt_locale_pointers@@QEAD@Z 0000000140025d14 f i libucrt:output.obj
 0001:00024dc0       ??0?$output_processor@DV?$string_output_adapter@D@__crt_stdio_output@@V?$standard_base@DV?$string_output_adapter@D@__crt_stdio_output@@@2@@__crt_stdio_output@@QEAA@AEBV?$string_output_adapter@D@1@_KQEBDQEAU__crt_locale_pointers@@QEAD@Z 0000000140025dc0 f i libucrt:output.obj
 0001:00024e48       ??0?$output_processor@_WV?$stream_output_adapter@_W@__crt_stdio_output@@V?$format_validation_base@_WV?$stream_output_adapter@_W@__crt_stdio_output@@@2@@__crt_stdio_output@@QEAA@AEBV?$stream_output_adapter@_W@1@_KQEB_WQEAU__crt_locale_pointers@@QEAD@Z 0000000140025e48 f i libucrt:output.obj
 0001:00024ed4       ??0?$output_processor@_WV?$stream_output_adapter@_W@__crt_stdio_output@@V?$positional_parameter_base@_WV?$stream_output_adapter@_W@__crt_stdio_output@@@2@@__crt_stdio_output@@QEAA@AEBV?$stream_output_adapter@_W@1@_KQEB_WQEAU__crt_locale_pointers@@QEAD@Z 0000000140025ed4 f i libucrt:output.obj
 0001:00024f84       ??0?$output_processor@_WV?$stream_output_adapter@_W@__crt_stdio_output@@V?$standard_base@_WV?$stream_output_adapter@_W@__crt_stdio_output@@@2@@__crt_stdio_output@@QEAA@AEBV?$stream_output_adapter@_W@1@_KQEB_WQEAU__crt_locale_pointers@@QEAD@Z 0000000140025f84 f i libucrt:output.obj
 0001:00025010       ??0?$output_processor@_WV?$string_output_adapter@_W@__crt_stdio_output@@V?$format_validation_base@_WV?$string_output_adapter@_W@__crt_stdio_output@@@2@@__crt_stdio_output@@QEAA@AEBV?$string_output_adapter@_W@1@_KQEB_WQEAU__crt_locale_pointers@@QEAD@Z 0000000140026010 f i libucrt:output.obj
 0001:0002509c       ??0?$output_processor@_WV?$string_output_adapter@_W@__crt_stdio_output@@V?$positional_parameter_base@_WV?$string_output_adapter@_W@__crt_stdio_output@@@2@@__crt_stdio_output@@QEAA@AEBV?$string_output_adapter@_W@1@_KQEB_WQEAU__crt_locale_pointers@@QEAD@Z 000000014002609c f i libucrt:output.obj
 0001:0002514c       ??0?$output_processor@_WV?$string_output_adapter@_W@__crt_stdio_output@@V?$standard_base@_WV?$string_output_adapter@_W@__crt_stdio_output@@@2@@__crt_stdio_output@@QEAA@AEBV?$string_output_adapter@_W@1@_KQEB_WQEAU__crt_locale_pointers@@QEAD@Z 000000014002614c f i libucrt:output.obj
 0001:000251d8       ??0?$stream_output_adapter@D@__crt_stdio_output@@QEAA@QEAU_iobuf@@@Z 00000001400261d8 f i libucrt:output.obj
 0001:000251e0       ??0?$stream_output_adapter@_W@__crt_stdio_output@@QEAA@QEAU_iobuf@@@Z 00000001400261e0 f i libucrt:output.obj
 0001:000251e8       ??0?$string_output_adapter@D@__crt_stdio_output@@QEAA@QEAU?$string_output_adapter_context@D@1@@Z 00000001400261e8 f i libucrt:output.obj
 0001:000251f0       ??0?$string_output_adapter@_W@__crt_stdio_output@@QEAA@QEAU?$string_output_adapter_context@_W@1@@Z 00000001400261f0 f i libucrt:output.obj
 0001:000251f8       ??0_LocaleUpdate@@QEAA@QEAU__crt_locale_pointers@@@Z 00000001400261f8 f i libucrt:output.obj
 0001:000252bc       ??0__acrt_stdio_temporary_buffering_guard@@QEAA@QEAU_iobuf@@@Z 00000001400262bc f i libucrt:output.obj
 0001:000252e4       ??0__crt_deferred_errno_cache@@QEAA@XZ 00000001400262e4 f i libucrt:output.obj
 0001:000252f0       ??0__crt_errno_guard@@QEAA@QEAH@Z 00000001400262f0 f i libucrt:output.obj
 0001:00025310       ??0formatting_buffer@__crt_stdio_output@@QEAA@XZ 0000000140026310 f i libucrt:output.obj
 0001:0002532c       ??1?$common_data@D@__crt_stdio_output@@QEAA@XZ 000000014002632c f i libucrt:output.obj
 0001:00025358       ??1?$common_data@_W@__crt_stdio_output@@QEAA@XZ 0000000140026358 f i libucrt:output.obj
 0001:00025384       ??1?$format_validation_base@DV?$stream_output_adapter@D@__crt_stdio_output@@@__crt_stdio_output@@QEAA@XZ 0000000140026384 f i libucrt:output.obj
 0001:000253b0       ??1?$format_validation_base@DV?$string_output_adapter@D@__crt_stdio_output@@@__crt_stdio_output@@QEAA@XZ 00000001400263b0 f i libucrt:output.obj
 0001:000253dc       ??1?$format_validation_base@_WV?$stream_output_adapter@_W@__crt_stdio_output@@@__crt_stdio_output@@QEAA@XZ 00000001400263dc f i libucrt:output.obj
 0001:00025408       ??1?$format_validation_base@_WV?$string_output_adapter@_W@__crt_stdio_output@@@__crt_stdio_output@@QEAA@XZ 0000000140026408 f i libucrt:output.obj
 0001:00025434       ??1?$output_adapter_data@DV?$stream_output_adapter@D@__crt_stdio_output@@@__crt_stdio_output@@QEAA@XZ 0000000140026434 f i libucrt:output.obj
 0001:00025460       ??1?$output_adapter_data@DV?$string_output_adapter@D@__crt_stdio_output@@@__crt_stdio_output@@QEAA@XZ 0000000140026460 f i libucrt:output.obj
 0001:0002548c       ??1?$output_adapter_data@_WV?$stream_output_adapter@_W@__crt_stdio_output@@@__crt_stdio_output@@QEAA@XZ 000000014002648c f i libucrt:output.obj
 0001:000254b8       ??1?$output_adapter_data@_WV?$string_output_adapter@_W@__crt_stdio_output@@@__crt_stdio_output@@QEAA@XZ 00000001400264b8 f i libucrt:output.obj
 0001:000254e4       ??1?$output_processor@DV?$stream_output_adapter@D@__crt_stdio_output@@V?$format_validation_base@DV?$stream_output_adapter@D@__crt_stdio_output@@@2@@__crt_stdio_output@@QEAA@XZ 00000001400264e4 f i libucrt:output.obj
 0001:00025510       ??1?$output_processor@DV?$stream_output_adapter@D@__crt_stdio_output@@V?$positional_parameter_base@DV?$stream_output_adapter@D@__crt_stdio_output@@@2@@__crt_stdio_output@@QEAA@XZ 0000000140026510 f i libucrt:output.obj
 0001:0002553c       ??1?$output_processor@DV?$stream_output_adapter@D@__crt_stdio_output@@V?$standard_base@DV?$stream_output_adapter@D@__crt_stdio_output@@@2@@__crt_stdio_output@@QEAA@XZ 000000014002653c f i libucrt:output.obj
 0001:00025568       ??1?$output_processor@DV?$string_output_adapter@D@__crt_stdio_output@@V?$format_validation_base@DV?$string_output_adapter@D@__crt_stdio_output@@@2@@__crt_stdio_output@@QEAA@XZ 0000000140026568 f i libucrt:output.obj
 0001:00025594       ??1?$output_processor@DV?$string_output_adapter@D@__crt_stdio_output@@V?$positional_parameter_base@DV?$string_output_adapter@D@__crt_stdio_output@@@2@@__crt_stdio_output@@QEAA@XZ 0000000140026594 f i libucrt:output.obj
 0001:000255c0       ??1?$output_processor@DV?$string_output_adapter@D@__crt_stdio_output@@V?$standard_base@DV?$string_output_adapter@D@__crt_stdio_output@@@2@@__crt_stdio_output@@QEAA@XZ 00000001400265c0 f i libucrt:output.obj
 0001:000255ec       ??1?$output_processor@_WV?$stream_output_adapter@_W@__crt_stdio_output@@V?$format_validation_base@_WV?$stream_output_adapter@_W@__crt_stdio_output@@@2@@__crt_stdio_output@@QEAA@XZ 00000001400265ec f i libucrt:output.obj
 0001:00025618       ??1?$output_processor@_WV?$stream_output_adapter@_W@__crt_stdio_output@@V?$positional_parameter_base@_WV?$stream_output_adapter@_W@__crt_stdio_output@@@2@@__crt_stdio_output@@QEAA@XZ 0000000140026618 f i libucrt:output.obj
 0001:00025644       ??1?$output_processor@_WV?$stream_output_adapter@_W@__crt_stdio_output@@V?$standard_base@_WV?$stream_output_adapter@_W@__crt_stdio_output@@@2@@__crt_stdio_output@@QEAA@XZ 0000000140026644 f i libucrt:output.obj
 0001:00025670       ??1?$output_processor@_WV?$string_output_adapter@_W@__crt_stdio_output@@V?$format_validation_base@_WV?$string_output_adapter@_W@__crt_stdio_output@@@2@@__crt_stdio_output@@QEAA@XZ 0000000140026670 f i libucrt:output.obj
 0001:0002569c       ??1?$output_processor@_WV?$string_output_adapter@_W@__crt_stdio_output@@V?$positional_parameter_base@_WV?$string_output_adapter@_W@__crt_stdio_output@@@2@@__crt_stdio_output@@QEAA@XZ 000000014002669c f i libucrt:output.obj
 0001:000256c8       ??1?$output_processor@_WV?$string_output_adapter@_W@__crt_stdio_output@@V?$standard_base@_WV?$string_output_adapter@_W@__crt_stdio_output@@@2@@__crt_stdio_output@@QEAA@XZ 00000001400266c8 f i libucrt:output.obj
 0001:000256f4       ??1?$positional_parameter_base@DV?$stream_output_adapter@D@__crt_stdio_output@@@__crt_stdio_output@@QEAA@XZ 00000001400266f4 f i libucrt:output.obj
 0001:00025720       ??1?$positional_parameter_base@DV?$string_output_adapter@D@__crt_stdio_output@@@__crt_stdio_output@@QEAA@XZ 0000000140026720 f i libucrt:output.obj
 0001:0002574c       ??1?$positional_parameter_base@_WV?$stream_output_adapter@_W@__crt_stdio_output@@@__crt_stdio_output@@QEAA@XZ 000000014002674c f i libucrt:output.obj
 0001:00025778       ??1?$positional_parameter_base@_WV?$string_output_adapter@_W@__crt_stdio_output@@@__crt_stdio_output@@QEAA@XZ 0000000140026778 f i libucrt:output.obj
 0001:000257a4       ??1?$standard_base@DV?$stream_output_adapter@D@__crt_stdio_output@@@__crt_stdio_output@@QEAA@XZ 00000001400267a4 f i libucrt:output.obj
 0001:000257d0       ??1?$standard_base@DV?$string_output_adapter@D@__crt_stdio_output@@@__crt_stdio_output@@QEAA@XZ 00000001400267d0 f i libucrt:output.obj
 0001:000257fc       ??1?$standard_base@_WV?$stream_output_adapter@_W@__crt_stdio_output@@@__crt_stdio_output@@QEAA@XZ 00000001400267fc f i libucrt:output.obj
 0001:00025828       ??1?$standard_base@_WV?$string_output_adapter@_W@__crt_stdio_output@@@__crt_stdio_output@@QEAA@XZ 0000000140026828 f i libucrt:output.obj
 0001:00025854       ??1_LocaleUpdate@@QEAA@XZ  0000000140026854 f i libucrt:output.obj
 0001:0002586c       ??1__acrt_stdio_temporary_buffering_guard@@QEAA@XZ 000000014002686c f i libucrt:output.obj
 0001:0002587c       ??1__crt_errno_guard@@QEAA@XZ 000000014002687c f i libucrt:output.obj
 0001:00025894       ??1formatting_buffer@__crt_stdio_output@@QEAA@XZ 0000000140026894 f i libucrt:output.obj
 0001:000258c0       ??4?$__crt_unique_heap_ptr@DU__crt_internal_free_policy@@@@QEAAAEAV0@$$QEAV0@@Z 00000001400268c0 f i libucrt:output.obj
 0001:00025904       ??A?$spectre_mitigated_lookup_table@Ustate_transition_pair@__crt_stdio_output@@$0IA@@__crt_stdio_output@@QEBAAEBUstate_transition_pair@1@_K@Z 0000000140026904 f i libucrt:output.obj
 0001:000262d0       ?GetLocaleT@_LocaleUpdate@@QEAAPEAU__crt_locale_pointers@@XZ 00000001400272d0 f i libucrt:output.obj
 0001:000262d8       ?adjust_hexit@?$output_processor@DV?$stream_output_adapter@D@__crt_stdio_output@@V?$format_validation_base@DV?$stream_output_adapter@D@__crt_stdio_output@@@2@@__crt_stdio_output@@CADH_N@Z 00000001400272d8 f i libucrt:output.obj
 0001:000262e8       ?adjust_hexit@?$output_processor@DV?$stream_output_adapter@D@__crt_stdio_output@@V?$positional_parameter_base@DV?$stream_output_adapter@D@__crt_stdio_output@@@2@@__crt_stdio_output@@CADH_N@Z 00000001400272e8 f i libucrt:output.obj
 0001:000262f8       ?adjust_hexit@?$output_processor@DV?$stream_output_adapter@D@__crt_stdio_output@@V?$standard_base@DV?$stream_output_adapter@D@__crt_stdio_output@@@2@@__crt_stdio_output@@CADH_N@Z 00000001400272f8 f i libucrt:output.obj
 0001:00026308       ?adjust_hexit@?$output_processor@DV?$string_output_adapter@D@__crt_stdio_output@@V?$format_validation_base@DV?$string_output_adapter@D@__crt_stdio_output@@@2@@__crt_stdio_output@@CADH_N@Z 0000000140027308 f i libucrt:output.obj
 0001:00026318       ?adjust_hexit@?$output_processor@DV?$string_output_adapter@D@__crt_stdio_output@@V?$positional_parameter_base@DV?$string_output_adapter@D@__crt_stdio_output@@@2@@__crt_stdio_output@@CADH_N@Z 0000000140027318 f i libucrt:output.obj
 0001:00026328       ?adjust_hexit@?$output_processor@DV?$string_output_adapter@D@__crt_stdio_output@@V?$standard_base@DV?$string_output_adapter@D@__crt_stdio_output@@@2@@__crt_stdio_output@@CADH_N@Z 0000000140027328 f i libucrt:output.obj
 0001:00026338       ?adjust_hexit@?$output_processor@_WV?$stream_output_adapter@_W@__crt_stdio_output@@V?$format_validation_base@_WV?$stream_output_adapter@_W@__crt_stdio_output@@@2@@__crt_stdio_output@@CADH_N@Z 0000000140027338 f i libucrt:output.obj
 0001:00026348       ?adjust_hexit@?$output_processor@_WV?$stream_output_adapter@_W@__crt_stdio_output@@V?$positional_parameter_base@_WV?$stream_output_adapter@_W@__crt_stdio_output@@@2@@__crt_stdio_output@@CADH_N@Z 0000000140027348 f i libucrt:output.obj
 0001:00026358       ?adjust_hexit@?$output_processor@_WV?$stream_output_adapter@_W@__crt_stdio_output@@V?$standard_base@_WV?$stream_output_adapter@_W@__crt_stdio_output@@@2@@__crt_stdio_output@@CADH_N@Z 0000000140027358 f i libucrt:output.obj
 0001:00026368       ?adjust_hexit@?$output_processor@_WV?$string_output_adapter@_W@__crt_stdio_output@@V?$format_validation_base@_WV?$string_output_adapter@_W@__crt_stdio_output@@@2@@__crt_stdio_output@@CADH_N@Z 0000000140027368 f i libucrt:output.obj
 0001:00026378       ?adjust_hexit@?$output_processor@_WV?$string_output_adapter@_W@__crt_stdio_output@@V?$positional_parameter_base@_WV?$string_output_adapter@_W@__crt_stdio_output@@@2@@__crt_stdio_output@@CADH_N@Z 0000000140027378 f i libucrt:output.obj
 0001:00026388       ?adjust_hexit@?$output_processor@_WV?$string_output_adapter@_W@__crt_stdio_output@@V?$standard_base@_WV?$string_output_adapter@_W@__crt_stdio_output@@@2@@__crt_stdio_output@@CADH_N@Z 0000000140027388 f i libucrt:output.obj
 0001:00026398       ?advance_to_next_pass@?$positional_parameter_base@DV?$stream_output_adapter@D@__crt_stdio_output@@@__crt_stdio_output@@IEAA_NXZ 0000000140027398 f i libucrt:output.obj
 0001:000263fc       ?advance_to_next_pass@?$positional_parameter_base@DV?$string_output_adapter@D@__crt_stdio_output@@@__crt_stdio_output@@IEAA_NXZ 00000001400273fc f i libucrt:output.obj
 0001:00026460       ?advance_to_next_pass@?$positional_parameter_base@_WV?$stream_output_adapter@_W@__crt_stdio_output@@@__crt_stdio_output@@IEAA_NXZ 0000000140027460 f i libucrt:output.obj
 0001:000264c4       ?advance_to_next_pass@?$positional_parameter_base@_WV?$string_output_adapter@_W@__crt_stdio_output@@@__crt_stdio_output@@IEAA_NXZ 00000001400274c4 f i libucrt:output.obj
 0001:00026528       ?advance_to_next_pass@?$standard_base@DV?$stream_output_adapter@D@__crt_stdio_output@@@__crt_stdio_output@@IEAA_NXZ 0000000140027528 f i libucrt:output.obj
 0001:00026540       ?advance_to_next_pass@?$standard_base@DV?$string_output_adapter@D@__crt_stdio_output@@@__crt_stdio_output@@IEAA_NXZ 0000000140027540 f i libucrt:output.obj
 0001:00026558       ?advance_to_next_pass@?$standard_base@_WV?$stream_output_adapter@_W@__crt_stdio_output@@@__crt_stdio_output@@IEAA_NXZ 0000000140027558 f i libucrt:output.obj
 0001:00026570       ?advance_to_next_pass@?$standard_base@_WV?$string_output_adapter@_W@__crt_stdio_output@@@__crt_stdio_output@@IEAA_NXZ 0000000140027570 f i libucrt:output.obj
 0001:00026590       ?crop_zeroes@__crt_stdio_output@@YAXPEADQEAU__crt_locale_pointers@@@Z 0000000140027590 f i libucrt:output.obj
 0001:00026648       ?find_next_state@?$output_processor@DV?$stream_output_adapter@D@__crt_stdio_output@@V?$format_validation_base@DV?$stream_output_adapter@D@__crt_stdio_output@@@2@@__crt_stdio_output@@AEBA?AW4state@2@DW432@@Z 0000000140027648 f i libucrt:output.obj
 0001:00026684       ?find_next_state@?$output_processor@DV?$stream_output_adapter@D@__crt_stdio_output@@V?$positional_parameter_base@DV?$stream_output_adapter@D@__crt_stdio_output@@@2@@__crt_stdio_output@@AEBA?AW4state@2@DW432@@Z 0000000140027684 f i libucrt:output.obj
 0001:000266c0       ?find_next_state@?$output_processor@DV?$stream_output_adapter@D@__crt_stdio_output@@V?$standard_base@DV?$stream_output_adapter@D@__crt_stdio_output@@@2@@__crt_stdio_output@@AEBA?AW4state@2@DW432@@Z 00000001400276c0 f i libucrt:output.obj
 0001:000266fc       ?find_next_state@?$output_processor@DV?$string_output_adapter@D@__crt_stdio_output@@V?$format_validation_base@DV?$string_output_adapter@D@__crt_stdio_output@@@2@@__crt_stdio_output@@AEBA?AW4state@2@DW432@@Z 00000001400276fc f i libucrt:output.obj
 0001:00026738       ?find_next_state@?$output_processor@DV?$string_output_adapter@D@__crt_stdio_output@@V?$positional_parameter_base@DV?$string_output_adapter@D@__crt_stdio_output@@@2@@__crt_stdio_output@@AEBA?AW4state@2@DW432@@Z 0000000140027738 f i libucrt:output.obj
 0001:00026774       ?find_next_state@?$output_processor@DV?$string_output_adapter@D@__crt_stdio_output@@V?$standard_base@DV?$string_output_adapter@D@__crt_stdio_output@@@2@@__crt_stdio_output@@AEBA?AW4state@2@DW432@@Z 0000000140027774 f i libucrt:output.obj
 0001:000267b0       ?find_next_state@?$output_processor@_WV?$stream_output_adapter@_W@__crt_stdio_output@@V?$format_validation_base@_WV?$stream_output_adapter@_W@__crt_stdio_output@@@2@@__crt_stdio_output@@AEBA?AW4state@2@_WW432@@Z 00000001400277b0 f i libucrt:output.obj
 0001:000267f8       ?find_next_state@?$output_processor@_WV?$stream_output_adapter@_W@__crt_stdio_output@@V?$positional_parameter_base@_WV?$stream_output_adapter@_W@__crt_stdio_output@@@2@@__crt_stdio_output@@AEBA?AW4state@2@_WW432@@Z 00000001400277f8 f i libucrt:output.obj
 0001:00026840       ?find_next_state@?$output_processor@_WV?$stream_output_adapter@_W@__crt_stdio_output@@V?$standard_base@_WV?$stream_output_adapter@_W@__crt_stdio_output@@@2@@__crt_stdio_output@@AEBA?AW4state@2@_WW432@@Z 0000000140027840 f i libucrt:output.obj
 0001:00026884       ?find_next_state@?$output_processor@_WV?$string_output_adapter@_W@__crt_stdio_output@@V?$format_validation_base@_WV?$string_output_adapter@_W@__crt_stdio_output@@@2@@__crt_stdio_output@@AEBA?AW4state@2@_WW432@@Z 0000000140027884 f i libucrt:output.obj
 0001:000268cc       ?find_next_state@?$output_processor@_WV?$string_output_adapter@_W@__crt_stdio_output@@V?$positional_parameter_base@_WV?$string_output_adapter@_W@__crt_stdio_output@@@2@@__crt_stdio_output@@AEBA?AW4state@2@_WW432@@Z 00000001400278cc f i libucrt:output.obj
 0001:00026914       ?find_next_state@?$output_processor@_WV?$string_output_adapter@_W@__crt_stdio_output@@V?$standard_base@_WV?$string_output_adapter@_W@__crt_stdio_output@@@2@@__crt_stdio_output@@AEBA?AW4state@2@_WW432@@Z 0000000140027914 f i libucrt:output.obj
 0001:00026960       ?force_decimal_point@__crt_stdio_output@@YAXPEADQEAU__crt_locale_pointers@@@Z 0000000140027960 f i libucrt:output.obj
 0001:000269f4       ?get@__crt_deferred_errno_cache@@QEAAAEAHXZ 00000001400279f4 f i libucrt:output.obj
 0001:00026a1c       ?get_parameter_type@?$positional_parameter_base@DV?$stream_output_adapter@D@__crt_stdio_output@@@__crt_stdio_output@@CA?AW4parameter_type@12@F@Z 0000000140027a1c f i libucrt:output.obj
 0001:00026a24       ?get_parameter_type@?$positional_parameter_base@DV?$stream_output_adapter@D@__crt_stdio_output@@@__crt_stdio_output@@CA?AW4parameter_type@12@G@Z 0000000140027a24 f i libucrt:output.obj
 0001:00026a2c       ?get_parameter_type@?$positional_parameter_base@DV?$stream_output_adapter@D@__crt_stdio_output@@@__crt_stdio_output@@CA?AW4parameter_type@12@H@Z 0000000140027a2c f i libucrt:output.obj
 0001:00026a34       ?get_parameter_type@?$positional_parameter_base@DV?$stream_output_adapter@D@__crt_stdio_output@@@__crt_stdio_output@@CA?AW4parameter_type@12@I@Z 0000000140027a34 f i libucrt:output.obj
 0001:00026a3c       ?get_parameter_type@?$positional_parameter_base@DV?$stream_output_adapter@D@__crt_stdio_output@@@__crt_stdio_output@@CA?AW4parameter_type@12@U_CRT_DOUBLE@@@Z 0000000140027a3c f i libucrt:output.obj
 0001:00026a44       ?get_parameter_type@?$positional_parameter_base@DV?$stream_output_adapter@D@__crt_stdio_output@@@__crt_stdio_output@@CA?AW4parameter_type@12@_J@Z 0000000140027a44 f i libucrt:output.obj
 0001:00026a4c       ?get_parameter_type@?$positional_parameter_base@DV?$stream_output_adapter@D@__crt_stdio_output@@@__crt_stdio_output@@CA?AW4parameter_type@12@_K@Z 0000000140027a4c f i libucrt:output.obj
 0001:00026a54       ?get_parameter_type@?$positional_parameter_base@DV?$stream_output_adapter@D@__crt_stdio_output@@@__crt_stdio_output@@CA?AW4parameter_type@12@_W@Z 0000000140027a54 f i libucrt:output.obj
 0001:00026a5c       ?get_parameter_type@?$positional_parameter_base@DV?$string_output_adapter@D@__crt_stdio_output@@@__crt_stdio_output@@CA?AW4parameter_type@12@F@Z 0000000140027a5c f i libucrt:output.obj
 0001:00026a64       ?get_parameter_type@?$positional_parameter_base@DV?$string_output_adapter@D@__crt_stdio_output@@@__crt_stdio_output@@CA?AW4parameter_type@12@G@Z 0000000140027a64 f i libucrt:output.obj
 0001:00026a6c       ?get_parameter_type@?$positional_parameter_base@DV?$string_output_adapter@D@__crt_stdio_output@@@__crt_stdio_output@@CA?AW4parameter_type@12@H@Z 0000000140027a6c f i libucrt:output.obj
 0001:00026a74       ?get_parameter_type@?$positional_parameter_base@DV?$string_output_adapter@D@__crt_stdio_output@@@__crt_stdio_output@@CA?AW4parameter_type@12@I@Z 0000000140027a74 f i libucrt:output.obj
 0001:00026a7c       ?get_parameter_type@?$positional_parameter_base@DV?$string_output_adapter@D@__crt_stdio_output@@@__crt_stdio_output@@CA?AW4parameter_type@12@U_CRT_DOUBLE@@@Z 0000000140027a7c f i libucrt:output.obj
 0001:00026a84       ?get_parameter_type@?$positional_parameter_base@DV?$string_output_adapter@D@__crt_stdio_output@@@__crt_stdio_output@@CA?AW4parameter_type@12@_J@Z 0000000140027a84 f i libucrt:output.obj
 0001:00026a8c       ?get_parameter_type@?$positional_parameter_base@DV?$string_output_adapter@D@__crt_stdio_output@@@__crt_stdio_output@@CA?AW4parameter_type@12@_K@Z 0000000140027a8c f i libucrt:output.obj
 0001:00026a94       ?get_parameter_type@?$positional_parameter_base@DV?$string_output_adapter@D@__crt_stdio_output@@@__crt_stdio_output@@CA?AW4parameter_type@12@_W@Z 0000000140027a94 f i libucrt:output.obj
 0001:00026a9c       ?get_parameter_type@?$positional_parameter_base@_WV?$stream_output_adapter@_W@__crt_stdio_output@@@__crt_stdio_output@@CA?AW4parameter_type@12@F@Z 0000000140027a9c f i libucrt:output.obj
 0001:00026aa4       ?get_parameter_type@?$positional_parameter_base@_WV?$stream_output_adapter@_W@__crt_stdio_output@@@__crt_stdio_output@@CA?AW4parameter_type@12@G@Z 0000000140027aa4 f i libucrt:output.obj
 0001:00026aac       ?get_parameter_type@?$positional_parameter_base@_WV?$stream_output_adapter@_W@__crt_stdio_output@@@__crt_stdio_output@@CA?AW4parameter_type@12@H@Z 0000000140027aac f i libucrt:output.obj
 0001:00026ab4       ?get_parameter_type@?$positional_parameter_base@_WV?$stream_output_adapter@_W@__crt_stdio_output@@@__crt_stdio_output@@CA?AW4parameter_type@12@I@Z 0000000140027ab4 f i libucrt:output.obj
 0001:00026abc       ?get_parameter_type@?$positional_parameter_base@_WV?$stream_output_adapter@_W@__crt_stdio_output@@@__crt_stdio_output@@CA?AW4parameter_type@12@U_CRT_DOUBLE@@@Z 0000000140027abc f i libucrt:output.obj
 0001:00026ac4       ?get_parameter_type@?$positional_parameter_base@_WV?$stream_output_adapter@_W@__crt_stdio_output@@@__crt_stdio_output@@CA?AW4parameter_type@12@_J@Z 0000000140027ac4 f i libucrt:output.obj
 0001:00026acc       ?get_parameter_type@?$positional_parameter_base@_WV?$stream_output_adapter@_W@__crt_stdio_output@@@__crt_stdio_output@@CA?AW4parameter_type@12@_K@Z 0000000140027acc f i libucrt:output.obj
 0001:00026ad4       ?get_parameter_type@?$positional_parameter_base@_WV?$stream_output_adapter@_W@__crt_stdio_output@@@__crt_stdio_output@@CA?AW4parameter_type@12@_W@Z 0000000140027ad4 f i libucrt:output.obj
 0001:00026adc       ?get_parameter_type@?$positional_parameter_base@_WV?$string_output_adapter@_W@__crt_stdio_output@@@__crt_stdio_output@@CA?AW4parameter_type@12@F@Z 0000000140027adc f i libucrt:output.obj
 0001:00026ae4       ?get_parameter_type@?$positional_parameter_base@_WV?$string_output_adapter@_W@__crt_stdio_output@@@__crt_stdio_output@@CA?AW4parameter_type@12@G@Z 0000000140027ae4 f i libucrt:output.obj
 0001:00026aec       ?get_parameter_type@?$positional_parameter_base@_WV?$string_output_adapter@_W@__crt_stdio_output@@@__crt_stdio_output@@CA?AW4parameter_type@12@H@Z 0000000140027aec f i libucrt:output.obj
 0001:00026af4       ?get_parameter_type@?$positional_parameter_base@_WV?$string_output_adapter@_W@__crt_stdio_output@@@__crt_stdio_output@@CA?AW4parameter_type@12@I@Z 0000000140027af4 f i libucrt:output.obj
 0001:00026afc       ?get_parameter_type@?$positional_parameter_base@_WV?$string_output_adapter@_W@__crt_stdio_output@@@__crt_stdio_output@@CA?AW4parameter_type@12@U_CRT_DOUBLE@@@Z 0000000140027afc f i libucrt:output.obj
 0001:00026b04       ?get_parameter_type@?$positional_parameter_base@_WV?$string_output_adapter@_W@__crt_stdio_output@@@__crt_stdio_output@@CA?AW4parameter_type@12@_J@Z 0000000140027b04 f i libucrt:output.obj
 0001:00026b0c       ?get_parameter_type@?$positional_parameter_base@_WV?$string_output_adapter@_W@__crt_stdio_output@@@__crt_stdio_output@@CA?AW4parameter_type@12@_K@Z 0000000140027b0c f i libucrt:output.obj
 0001:00026b14       ?get_parameter_type@?$positional_parameter_base@_WV?$string_output_adapter@_W@__crt_stdio_output@@@__crt_stdio_output@@CA?AW4parameter_type@12@_W@Z 0000000140027b14 f i libucrt:output.obj
 0001:00026b1c       ?has_flag@?$output_processor@DV?$stream_output_adapter@D@__crt_stdio_output@@V?$format_validation_base@DV?$stream_output_adapter@D@__crt_stdio_output@@@2@@__crt_stdio_output@@AEBA_NI@Z 0000000140027b1c f i libucrt:output.obj
 0001:00026b24       ?has_flag@?$output_processor@DV?$stream_output_adapter@D@__crt_stdio_output@@V?$positional_parameter_base@DV?$stream_output_adapter@D@__crt_stdio_output@@@2@@__crt_stdio_output@@AEBA_NI@Z 0000000140027b24 f i libucrt:output.obj
 0001:00026b2c       ?has_flag@?$output_processor@DV?$stream_output_adapter@D@__crt_stdio_output@@V?$standard_base@DV?$stream_output_adapter@D@__crt_stdio_output@@@2@@__crt_stdio_output@@AEBA_NI@Z 0000000140027b2c f i libucrt:output.obj
 0001:00026b34       ?has_flag@?$output_processor@DV?$string_output_adapter@D@__crt_stdio_output@@V?$format_validation_base@DV?$string_output_adapter@D@__crt_stdio_output@@@2@@__crt_stdio_output@@AEBA_NI@Z 0000000140027b34 f i libucrt:output.obj
 0001:00026b3c       ?has_flag@?$output_processor@DV?$string_output_adapter@D@__crt_stdio_output@@V?$positional_parameter_base@DV?$string_output_adapter@D@__crt_stdio_output@@@2@@__crt_stdio_output@@AEBA_NI@Z 0000000140027b3c f i libucrt:output.obj
 0001:00026b44       ?has_flag@?$output_processor@DV?$string_output_adapter@D@__crt_stdio_output@@V?$standard_base@DV?$string_output_adapter@D@__crt_stdio_output@@@2@@__crt_stdio_output@@AEBA_NI@Z 0000000140027b44 f i libucrt:output.obj
 0001:00026b4c       ?has_flag@?$output_processor@_WV?$stream_output_adapter@_W@__crt_stdio_output@@V?$format_validation_base@_WV?$stream_output_adapter@_W@__crt_stdio_output@@@2@@__crt_stdio_output@@AEBA_NI@Z 0000000140027b4c f i libucrt:output.obj
 0001:00026b54       ?has_flag@?$output_processor@_WV?$stream_output_adapter@_W@__crt_stdio_output@@V?$positional_parameter_base@_WV?$stream_output_adapter@_W@__crt_stdio_output@@@2@@__crt_stdio_output@@AEBA_NI@Z 0000000140027b54 f i libucrt:output.obj
 0001:00026b5c       ?has_flag@?$output_processor@_WV?$stream_output_adapter@_W@__crt_stdio_output@@V?$standard_base@_WV?$stream_output_adapter@_W@__crt_stdio_output@@@2@@__crt_stdio_output@@AEBA_NI@Z 0000000140027b5c f i libucrt:output.obj
 0001:00026b64       ?has_flag@?$output_processor@_WV?$string_output_adapter@_W@__crt_stdio_output@@V?$format_validation_base@_WV?$string_output_adapter@_W@__crt_stdio_output@@@2@@__crt_stdio_output@@AEBA_NI@Z 0000000140027b64 f i libucrt:output.obj
 0001:00026b6c       ?has_flag@?$output_processor@_WV?$string_output_adapter@_W@__crt_stdio_output@@V?$positional_parameter_base@_WV?$string_output_adapter@_W@__crt_stdio_output@@@2@@__crt_stdio_output@@AEBA_NI@Z 0000000140027b6c f i libucrt:output.obj
 0001:00026b74       ?has_flag@?$output_processor@_WV?$string_output_adapter@_W@__crt_stdio_output@@V?$standard_base@_WV?$string_output_adapter@_W@__crt_stdio_output@@@2@@__crt_stdio_output@@AEBA_NI@Z 0000000140027b74 f i libucrt:output.obj
 0001:00026b7c       ?is_positional_parameter_reappearance_consistent@?$positional_parameter_base@DV?$stream_output_adapter@D@__crt_stdio_output@@@__crt_stdio_output@@AEAA_NAEBUparameter_data@12@W4parameter_type@12@DW4length_modifier@2@@Z 0000000140027b7c f i libucrt:output.obj
 0001:00026d84       ?is_positional_parameter_reappearance_consistent@?$positional_parameter_base@DV?$string_output_adapter@D@__crt_stdio_output@@@__crt_stdio_output@@AEAA_NAEBUparameter_data@12@W4parameter_type@12@DW4length_modifier@2@@Z 0000000140027d84 f i libucrt:output.obj
 0001:00026f8c       ?is_positional_parameter_reappearance_consistent@?$positional_parameter_base@_WV?$stream_output_adapter@_W@__crt_stdio_output@@@__crt_stdio_output@@AEAA_NAEBUparameter_data@12@W4parameter_type@12@_WW4length_modifier@2@@Z 0000000140027f8c f i libucrt:output.obj
 0001:00027154       ?is_positional_parameter_reappearance_consistent@?$positional_parameter_base@_WV?$string_output_adapter@_W@__crt_stdio_output@@@__crt_stdio_output@@AEAA_NAEBUparameter_data@12@W4parameter_type@12@_WW4length_modifier@2@@Z 0000000140028154 f i libucrt:output.obj
 0001:0002731c       ?narrow_null_string@?$output_processor@DV?$stream_output_adapter@D@__crt_stdio_output@@V?$format_validation_base@DV?$stream_output_adapter@D@__crt_stdio_output@@@2@@__crt_stdio_output@@CAPEADXZ 000000014002831c f i libucrt:output.obj
 0001:00027328       ?narrow_null_string@?$output_processor@DV?$stream_output_adapter@D@__crt_stdio_output@@V?$positional_parameter_base@DV?$stream_output_adapter@D@__crt_stdio_output@@@2@@__crt_stdio_output@@CAPEADXZ 0000000140028328 f i libucrt:output.obj
 0001:00027334       ?narrow_null_string@?$output_processor@DV?$stream_output_adapter@D@__crt_stdio_output@@V?$standard_base@DV?$stream_output_adapter@D@__crt_stdio_output@@@2@@__crt_stdio_output@@CAPEADXZ 0000000140028334 f i libucrt:output.obj
 0001:00027340       ?narrow_null_string@?$output_processor@DV?$string_output_adapter@D@__crt_stdio_output@@V?$format_validation_base@DV?$string_output_adapter@D@__crt_stdio_output@@@2@@__crt_stdio_output@@CAPEADXZ 0000000140028340 f i libucrt:output.obj
 0001:0002734c       ?narrow_null_string@?$output_processor@DV?$string_output_adapter@D@__crt_stdio_output@@V?$positional_parameter_base@DV?$string_output_adapter@D@__crt_stdio_output@@@2@@__crt_stdio_output@@CAPEADXZ 000000014002834c f i libucrt:output.obj
 0001:00027358       ?narrow_null_string@?$output_processor@DV?$string_output_adapter@D@__crt_stdio_output@@V?$standard_base@DV?$string_output_adapter@D@__crt_stdio_output@@@2@@__crt_stdio_output@@CAPEADXZ 0000000140028358 f i libucrt:output.obj
 0001:00027364       ?narrow_null_string@?$output_processor@_WV?$stream_output_adapter@_W@__crt_stdio_output@@V?$format_validation_base@_WV?$stream_output_adapter@_W@__crt_stdio_output@@@2@@__crt_stdio_output@@CAPEADXZ 0000000140028364 f i libucrt:output.obj
 0001:00027370       ?narrow_null_string@?$output_processor@_WV?$stream_output_adapter@_W@__crt_stdio_output@@V?$positional_parameter_base@_WV?$stream_output_adapter@_W@__crt_stdio_output@@@2@@__crt_stdio_output@@CAPEADXZ 0000000140028370 f i libucrt:output.obj
 0001:0002737c       ?narrow_null_string@?$output_processor@_WV?$stream_output_adapter@_W@__crt_stdio_output@@V?$standard_base@_WV?$stream_output_adapter@_W@__crt_stdio_output@@@2@@__crt_stdio_output@@CAPEADXZ 000000014002837c f i libucrt:output.obj
 0001:00027388       ?narrow_null_string@?$output_processor@_WV?$string_output_adapter@_W@__crt_stdio_output@@V?$format_validation_base@_WV?$string_output_adapter@_W@__crt_stdio_output@@@2@@__crt_stdio_output@@CAPEADXZ 0000000140028388 f i libucrt:output.obj
 0001:00027394       ?narrow_null_string@?$output_processor@_WV?$string_output_adapter@_W@__crt_stdio_output@@V?$positional_parameter_base@_WV?$string_output_adapter@_W@__crt_stdio_output@@@2@@__crt_stdio_output@@CAPEADXZ 0000000140028394 f i libucrt:output.obj
 0001:000273a0       ?narrow_null_string@?$output_processor@_WV?$string_output_adapter@_W@__crt_stdio_output@@V?$standard_base@_WV?$string_output_adapter@_W@__crt_stdio_output@@@2@@__crt_stdio_output@@CAPEADXZ 00000001400283a0 f i libucrt:output.obj
 0001:000273ac       ?parse_int_from_format_string@?$output_processor@DV?$stream_output_adapter@D@__crt_stdio_output@@V?$format_validation_base@DV?$stream_output_adapter@D@__crt_stdio_output@@@2@@__crt_stdio_output@@AEAA_NQEAH@Z 00000001400283ac f i libucrt:output.obj
 0001:00027478       ?parse_int_from_format_string@?$output_processor@DV?$stream_output_adapter@D@__crt_stdio_output@@V?$positional_parameter_base@DV?$stream_output_adapter@D@__crt_stdio_output@@@2@@__crt_stdio_output@@AEAA_NQEAH@Z 0000000140028478 f i libucrt:output.obj
 0001:00027544       ?parse_int_from_format_string@?$output_processor@DV?$stream_output_adapter@D@__crt_stdio_output@@V?$standard_base@DV?$stream_output_adapter@D@__crt_stdio_output@@@2@@__crt_stdio_output@@AEAA_NQEAH@Z 0000000140028544 f i libucrt:output.obj
 0001:00027610       ?parse_int_from_format_string@?$output_processor@DV?$string_output_adapter@D@__crt_stdio_output@@V?$format_validation_base@DV?$string_output_adapter@D@__crt_stdio_output@@@2@@__crt_stdio_output@@AEAA_NQEAH@Z 0000000140028610 f i libucrt:output.obj
 0001:000276dc       ?parse_int_from_format_string@?$output_processor@DV?$string_output_adapter@D@__crt_stdio_output@@V?$positional_parameter_base@DV?$string_output_adapter@D@__crt_stdio_output@@@2@@__crt_stdio_output@@AEAA_NQEAH@Z 00000001400286dc f i libucrt:output.obj
 0001:000277a8       ?parse_int_from_format_string@?$output_processor@DV?$string_output_adapter@D@__crt_stdio_output@@V?$standard_base@DV?$string_output_adapter@D@__crt_stdio_output@@@2@@__crt_stdio_output@@AEAA_NQEAH@Z 00000001400287a8 f i libucrt:output.obj
 0001:00027874       ?parse_int_from_format_string@?$output_processor@_WV?$stream_output_adapter@_W@__crt_stdio_output@@V?$format_validation_base@_WV?$stream_output_adapter@_W@__crt_stdio_output@@@2@@__crt_stdio_output@@AEAA_NQEAH@Z 0000000140028874 f i libucrt:output.obj
 0001:00027940       ?parse_int_from_format_string@?$output_processor@_WV?$stream_output_adapter@_W@__crt_stdio_output@@V?$positional_parameter_base@_WV?$stream_output_adapter@_W@__crt_stdio_output@@@2@@__crt_stdio_output@@AEAA_NQEAH@Z 0000000140028940 f i libucrt:output.obj
 0001:00027a0c       ?parse_int_from_format_string@?$output_processor@_WV?$stream_output_adapter@_W@__crt_stdio_output@@V?$standard_base@_WV?$stream_output_adapter@_W@__crt_stdio_output@@@2@@__crt_stdio_output@@AEAA_NQEAH@Z 0000000140028a0c f i libucrt:output.obj
 0001:00027ad8       ?parse_int_from_format_string@?$output_processor@_WV?$string_output_adapter@_W@__crt_stdio_output@@V?$format_validation_base@_WV?$string_output_adapter@_W@__crt_stdio_output@@@2@@__crt_stdio_output@@AEAA_NQEAH@Z 0000000140028ad8 f i libucrt:output.obj
 0001:00027ba4       ?parse_int_from_format_string@?$output_processor@_WV?$string_output_adapter@_W@__crt_stdio_output@@V?$positional_parameter_base@_WV?$string_output_adapter@_W@__crt_stdio_output@@@2@@__crt_stdio_output@@AEAA_NQEAH@Z 0000000140028ba4 f i libucrt:output.obj
 0001:00027c70       ?parse_int_from_format_string@?$output_processor@_WV?$string_output_adapter@_W@__crt_stdio_output@@V?$standard_base@_WV?$string_output_adapter@_W@__crt_stdio_output@@@2@@__crt_stdio_output@@AEAA_NQEAH@Z 0000000140028c70 f i libucrt:output.obj
 0001:00027d3c       ?process@?$output_processor@DV?$stream_output_adapter@D@__crt_stdio_output@@V?$format_validation_base@DV?$stream_output_adapter@D@__crt_stdio_output@@@2@@__crt_stdio_output@@QEAAHXZ 0000000140028d3c f i libucrt:output.obj
 0001:00027fe8       ?process@?$output_processor@DV?$stream_output_adapter@D@__crt_stdio_output@@V?$positional_parameter_base@DV?$stream_output_adapter@D@__crt_stdio_output@@@2@@__crt_stdio_output@@QEAAHXZ 0000000140028fe8 f i libucrt:output.obj
 0001:00028334       ?process@?$output_processor@DV?$stream_output_adapter@D@__crt_stdio_output@@V?$standard_base@DV?$stream_output_adapter@D@__crt_stdio_output@@@2@@__crt_stdio_output@@QEAAHXZ 0000000140029334 f i libucrt:output.obj
 0001:000285cc       ?process@?$output_processor@DV?$string_output_adapter@D@__crt_stdio_output@@V?$format_validation_base@DV?$string_output_adapter@D@__crt_stdio_output@@@2@@__crt_stdio_output@@QEAAHXZ 00000001400295cc f i libucrt:output.obj
 0001:00028864       ?process@?$output_processor@DV?$string_output_adapter@D@__crt_stdio_output@@V?$positional_parameter_base@DV?$string_output_adapter@D@__crt_stdio_output@@@2@@__crt_stdio_output@@QEAAHXZ 0000000140029864 f i libucrt:output.obj
 0001:00028b9c       ?process@?$output_processor@DV?$string_output_adapter@D@__crt_stdio_output@@V?$standard_base@DV?$string_output_adapter@D@__crt_stdio_output@@@2@@__crt_stdio_output@@QEAAHXZ 0000000140029b9c f i libucrt:output.obj
 0001:00028e24       ?process@?$output_processor@_WV?$stream_output_adapter@_W@__crt_stdio_output@@V?$format_validation_base@_WV?$stream_output_adapter@_W@__crt_stdio_output@@@2@@__crt_stdio_output@@QEAAHXZ 0000000140029e24 f i libucrt:output.obj
 0001:00029148       ?process@?$output_processor@_WV?$stream_output_adapter@_W@__crt_stdio_output@@V?$positional_parameter_base@_WV?$stream_output_adapter@_W@__crt_stdio_output@@@2@@__crt_stdio_output@@QEAAHXZ 000000014002a148 f i libucrt:output.obj
 0001:000294b4       ?process@?$output_processor@_WV?$stream_output_adapter@_W@__crt_stdio_output@@V?$standard_base@_WV?$stream_output_adapter@_W@__crt_stdio_output@@@2@@__crt_stdio_output@@QEAAHXZ 000000014002a4b4 f i libucrt:output.obj
 0001:000297c8       ?process@?$output_processor@_WV?$string_output_adapter@_W@__crt_stdio_output@@V?$format_validation_base@_WV?$string_output_adapter@_W@__crt_stdio_output@@@2@@__crt_stdio_output@@QEAAHXZ 000000014002a7c8 f i libucrt:output.obj
 0001:00029adc       ?process@?$output_processor@_WV?$string_output_adapter@_W@__crt_stdio_output@@V?$positional_parameter_base@_WV?$string_output_adapter@_W@__crt_stdio_output@@@2@@__crt_stdio_output@@QEAAHXZ 000000014002aadc f i libucrt:output.obj
 0001:00029e48       ?process@?$output_processor@_WV?$string_output_adapter@_W@__crt_stdio_output@@V?$standard_base@_WV?$string_output_adapter@_W@__crt_stdio_output@@@2@@__crt_stdio_output@@QEAAHXZ 000000014002ae48 f i libucrt:output.obj
 0001:0002a150       ?set_flag@?$output_processor@DV?$stream_output_adapter@D@__crt_stdio_output@@V?$format_validation_base@DV?$stream_output_adapter@D@__crt_stdio_output@@@2@@__crt_stdio_output@@AEAAXI@Z 000000014002b150 f i libucrt:output.obj
 0001:0002a154       ?set_flag@?$output_processor@DV?$stream_output_adapter@D@__crt_stdio_output@@V?$positional_parameter_base@DV?$stream_output_adapter@D@__crt_stdio_output@@@2@@__crt_stdio_output@@AEAAXI@Z 000000014002b154 f i libucrt:output.obj
 0001:0002a158       ?set_flag@?$output_processor@DV?$stream_output_adapter@D@__crt_stdio_output@@V?$standard_base@DV?$stream_output_adapter@D@__crt_stdio_output@@@2@@__crt_stdio_output@@AEAAXI@Z 000000014002b158 f i libucrt:output.obj
 0001:0002a15c       ?set_flag@?$output_processor@DV?$string_output_adapter@D@__crt_stdio_output@@V?$format_validation_base@DV?$string_output_adapter@D@__crt_stdio_output@@@2@@__crt_stdio_output@@AEAAXI@Z 000000014002b15c f i libucrt:output.obj
 0001:0002a160       ?set_flag@?$output_processor@DV?$string_output_adapter@D@__crt_stdio_output@@V?$positional_parameter_base@DV?$string_output_adapter@D@__crt_stdio_output@@@2@@__crt_stdio_output@@AEAAXI@Z 000000014002b160 f i libucrt:output.obj
 0001:0002a164       ?set_flag@?$output_processor@DV?$string_output_adapter@D@__crt_stdio_output@@V?$standard_base@DV?$string_output_adapter@D@__crt_stdio_output@@@2@@__crt_stdio_output@@AEAAXI@Z 000000014002b164 f i libucrt:output.obj
 0001:0002a168       ?set_flag@?$output_processor@_WV?$stream_output_adapter@_W@__crt_stdio_output@@V?$format_validation_base@_WV?$stream_output_adapter@_W@__crt_stdio_output@@@2@@__crt_stdio_output@@AEAAXI@Z 000000014002b168 f i libucrt:output.obj
 0001:0002a16c       ?set_flag@?$output_processor@_WV?$stream_output_adapter@_W@__crt_stdio_output@@V?$positional_parameter_base@_WV?$stream_output_adapter@_W@__crt_stdio_output@@@2@@__crt_stdio_output@@AEAAXI@Z 000000014002b16c f i libucrt:output.obj
 0001:0002a170       ?set_flag@?$output_processor@_WV?$stream_output_adapter@_W@__crt_stdio_output@@V?$standard_base@_WV?$stream_output_adapter@_W@__crt_stdio_output@@@2@@__crt_stdio_output@@AEAAXI@Z 000000014002b170 f i libucrt:output.obj
 0001:0002a174       ?set_flag@?$output_processor@_WV?$string_output_adapter@_W@__crt_stdio_output@@V?$format_validation_base@_WV?$string_output_adapter@_W@__crt_stdio_output@@@2@@__crt_stdio_output@@AEAAXI@Z 000000014002b174 f i libucrt:output.obj
 0001:0002a178       ?set_flag@?$output_processor@_WV?$string_output_adapter@_W@__crt_stdio_output@@V?$positional_parameter_base@_WV?$string_output_adapter@_W@__crt_stdio_output@@@2@@__crt_stdio_output@@AEAAXI@Z 000000014002b178 f i libucrt:output.obj
 0001:0002a17c       ?set_flag@?$output_processor@_WV?$string_output_adapter@_W@__crt_stdio_output@@V?$standard_base@_WV?$string_output_adapter@_W@__crt_stdio_output@@@2@@__crt_stdio_output@@AEAAXI@Z 000000014002b17c f i libucrt:output.obj
 0001:0002a180       ?should_format@?$positional_parameter_base@DV?$stream_output_adapter@D@__crt_stdio_output@@@__crt_stdio_output@@IEAA_NXZ 000000014002b180 f i libucrt:output.obj
 0001:0002a1a0       ?should_format@?$positional_parameter_base@DV?$string_output_adapter@D@__crt_stdio_output@@@__crt_stdio_output@@IEAA_NXZ 000000014002b1a0 f i libucrt:output.obj
 0001:0002a1c0       ?should_format@?$positional_parameter_base@_WV?$stream_output_adapter@_W@__crt_stdio_output@@@__crt_stdio_output@@IEAA_NXZ 000000014002b1c0 f i libucrt:output.obj
 0001:0002a1e0       ?should_format@?$positional_parameter_base@_WV?$string_output_adapter@_W@__crt_stdio_output@@@__crt_stdio_output@@IEAA_NXZ 000000014002b1e0 f i libucrt:output.obj
 0001:0002a200       ?should_format@?$standard_base@DV?$stream_output_adapter@D@__crt_stdio_output@@@__crt_stdio_output@@IEAA_NXZ 000000014002b200 f i libucrt:output.obj
 0001:0002a204       ?should_format@?$standard_base@DV?$string_output_adapter@D@__crt_stdio_output@@@__crt_stdio_output@@IEAA_NXZ 000000014002b204 f i libucrt:output.obj
 0001:0002a208       ?should_format@?$standard_base@_WV?$stream_output_adapter@_W@__crt_stdio_output@@@__crt_stdio_output@@IEAA_NXZ 000000014002b208 f i libucrt:output.obj
 0001:0002a20c       ?should_format@?$standard_base@_WV?$string_output_adapter@_W@__crt_stdio_output@@@__crt_stdio_output@@IEAA_NXZ 000000014002b20c f i libucrt:output.obj
 0001:0002a210       ?should_skip_normal_state_processing@?$positional_parameter_base@DV?$stream_output_adapter@D@__crt_stdio_output@@@__crt_stdio_output@@IEAA_NXZ 000000014002b210 f i libucrt:output.obj
 0001:0002a244       ?should_skip_normal_state_processing@?$positional_parameter_base@DV?$string_output_adapter@D@__crt_stdio_output@@@__crt_stdio_output@@IEAA_NXZ 000000014002b244 f i libucrt:output.obj
 0001:0002a278       ?should_skip_normal_state_processing@?$positional_parameter_base@_WV?$stream_output_adapter@_W@__crt_stdio_output@@@__crt_stdio_output@@IEAA_NXZ 000000014002b278 f i libucrt:output.obj
 0001:0002a2ac       ?should_skip_normal_state_processing@?$positional_parameter_base@_WV?$string_output_adapter@_W@__crt_stdio_output@@@__crt_stdio_output@@IEAA_NXZ 000000014002b2ac f i libucrt:output.obj
 0001:0002a2e0       ?should_skip_normal_state_processing@?$standard_base@DV?$stream_output_adapter@D@__crt_stdio_output@@@__crt_stdio_output@@IEAA_NXZ 000000014002b2e0 f i libucrt:output.obj
 0001:0002a2e4       ?should_skip_normal_state_processing@?$standard_base@DV?$string_output_adapter@D@__crt_stdio_output@@@__crt_stdio_output@@IEAA_NXZ 000000014002b2e4 f i libucrt:output.obj
 0001:0002a2e8       ?should_skip_normal_state_processing@?$standard_base@_WV?$stream_output_adapter@_W@__crt_stdio_output@@@__crt_stdio_output@@IEAA_NXZ 000000014002b2e8 f i libucrt:output.obj
 0001:0002a2ec       ?should_skip_normal_state_processing@?$standard_base@_WV?$string_output_adapter@_W@__crt_stdio_output@@@__crt_stdio_output@@IEAA_NXZ 000000014002b2ec f i libucrt:output.obj
 0001:0002a2f0       ?should_skip_type_state_output@?$positional_parameter_base@DV?$stream_output_adapter@D@__crt_stdio_output@@@__crt_stdio_output@@IEBA_NXZ 000000014002b2f0 f i libucrt:output.obj
 0001:0002a310       ?should_skip_type_state_output@?$positional_parameter_base@DV?$string_output_adapter@D@__crt_stdio_output@@@__crt_stdio_output@@IEBA_NXZ 000000014002b310 f i libucrt:output.obj
 0001:0002a330       ?should_skip_type_state_output@?$positional_parameter_base@_WV?$stream_output_adapter@_W@__crt_stdio_output@@@__crt_stdio_output@@IEBA_NXZ 000000014002b330 f i libucrt:output.obj
 0001:0002a350       ?should_skip_type_state_output@?$positional_parameter_base@_WV?$string_output_adapter@_W@__crt_stdio_output@@@__crt_stdio_output@@IEBA_NXZ 000000014002b350 f i libucrt:output.obj
 0001:0002a370       ?should_skip_type_state_output@?$standard_base@DV?$stream_output_adapter@D@__crt_stdio_output@@@__crt_stdio_output@@IEBA_NXZ 000000014002b370 f i libucrt:output.obj
 0001:0002a374       ?should_skip_type_state_output@?$standard_base@DV?$string_output_adapter@D@__crt_stdio_output@@@__crt_stdio_output@@IEBA_NXZ 000000014002b374 f i libucrt:output.obj
 0001:0002a378       ?should_skip_type_state_output@?$standard_base@_WV?$stream_output_adapter@_W@__crt_stdio_output@@@__crt_stdio_output@@IEBA_NXZ 000000014002b378 f i libucrt:output.obj
 0001:0002a37c       ?should_skip_type_state_output@?$standard_base@_WV?$string_output_adapter@_W@__crt_stdio_output@@@__crt_stdio_output@@IEBA_NXZ 000000014002b37c f i libucrt:output.obj
 0001:0002a380       ?state_case_dot@?$output_processor@DV?$stream_output_adapter@D@__crt_stdio_output@@V?$format_validation_base@DV?$stream_output_adapter@D@__crt_stdio_output@@@2@@__crt_stdio_output@@AEAA_NXZ 000000014002b380 f i libucrt:output.obj
 0001:0002a388       ?state_case_dot@?$output_processor@DV?$stream_output_adapter@D@__crt_stdio_output@@V?$positional_parameter_base@DV?$stream_output_adapter@D@__crt_stdio_output@@@2@@__crt_stdio_output@@AEAA_NXZ 000000014002b388 f i libucrt:output.obj
 0001:0002a390       ?state_case_dot@?$output_processor@DV?$stream_output_adapter@D@__crt_stdio_output@@V?$standard_base@DV?$stream_output_adapter@D@__crt_stdio_output@@@2@@__crt_stdio_output@@AEAA_NXZ 000000014002b390 f i libucrt:output.obj
 0001:0002a398       ?state_case_dot@?$output_processor@DV?$string_output_adapter@D@__crt_stdio_output@@V?$format_validation_base@DV?$string_output_adapter@D@__crt_stdio_output@@@2@@__crt_stdio_output@@AEAA_NXZ 000000014002b398 f i libucrt:output.obj
 0001:0002a3a0       ?state_case_dot@?$output_processor@DV?$string_output_adapter@D@__crt_stdio_output@@V?$positional_parameter_base@DV?$string_output_adapter@D@__crt_stdio_output@@@2@@__crt_stdio_output@@AEAA_NXZ 000000014002b3a0 f i libucrt:output.obj
 0001:0002a3a8       ?state_case_dot@?$output_processor@DV?$string_output_adapter@D@__crt_stdio_output@@V?$standard_base@DV?$string_output_adapter@D@__crt_stdio_output@@@2@@__crt_stdio_output@@AEAA_NXZ 000000014002b3a8 f i libucrt:output.obj
 0001:0002a3b0       ?state_case_dot@?$output_processor@_WV?$stream_output_adapter@_W@__crt_stdio_output@@V?$format_validation_base@_WV?$stream_output_adapter@_W@__crt_stdio_output@@@2@@__crt_stdio_output@@AEAA_NXZ 000000014002b3b0 f i libucrt:output.obj
 0001:0002a3b8       ?state_case_dot@?$output_processor@_WV?$stream_output_adapter@_W@__crt_stdio_output@@V?$positional_parameter_base@_WV?$stream_output_adapter@_W@__crt_stdio_output@@@2@@__crt_stdio_output@@AEAA_NXZ 000000014002b3b8 f i libucrt:output.obj
 0001:0002a3c0       ?state_case_dot@?$output_processor@_WV?$stream_output_adapter@_W@__crt_stdio_output@@V?$standard_base@_WV?$stream_output_adapter@_W@__crt_stdio_output@@@2@@__crt_stdio_output@@AEAA_NXZ 000000014002b3c0 f i libucrt:output.obj
 0001:0002a3c8       ?state_case_dot@?$output_processor@_WV?$string_output_adapter@_W@__crt_stdio_output@@V?$format_validation_base@_WV?$string_output_adapter@_W@__crt_stdio_output@@@2@@__crt_stdio_output@@AEAA_NXZ 000000014002b3c8 f i libucrt:output.obj
 0001:0002a3d0       ?state_case_dot@?$output_processor@_WV?$string_output_adapter@_W@__crt_stdio_output@@V?$positional_parameter_base@_WV?$string_output_adapter@_W@__crt_stdio_output@@@2@@__crt_stdio_output@@AEAA_NXZ 000000014002b3d0 f i libucrt:output.obj
 0001:0002a3d8       ?state_case_dot@?$output_processor@_WV?$string_output_adapter@_W@__crt_stdio_output@@V?$standard_base@_WV?$string_output_adapter@_W@__crt_stdio_output@@@2@@__crt_stdio_output@@AEAA_NXZ 000000014002b3d8 f i libucrt:output.obj
 0001:0002a3e0       ?state_case_flag@?$output_processor@DV?$stream_output_adapter@D@__crt_stdio_output@@V?$format_validation_base@DV?$stream_output_adapter@D@__crt_stdio_output@@@2@@__crt_stdio_output@@AEAA_NXZ 000000014002b3e0 f i libucrt:output.obj
 0001:0002a424       ?state_case_flag@?$output_processor@DV?$stream_output_adapter@D@__crt_stdio_output@@V?$positional_parameter_base@DV?$stream_output_adapter@D@__crt_stdio_output@@@2@@__crt_stdio_output@@AEAA_NXZ 000000014002b424 f i libucrt:output.obj
 0001:0002a468       ?state_case_flag@?$output_processor@DV?$stream_output_adapter@D@__crt_stdio_output@@V?$standard_base@DV?$stream_output_adapter@D@__crt_stdio_output@@@2@@__crt_stdio_output@@AEAA_NXZ 000000014002b468 f i libucrt:output.obj
 0001:0002a4ac       ?state_case_flag@?$output_processor@DV?$string_output_adapter@D@__crt_stdio_output@@V?$format_validation_base@DV?$string_output_adapter@D@__crt_stdio_output@@@2@@__crt_stdio_output@@AEAA_NXZ 000000014002b4ac f i libucrt:output.obj
 0001:0002a4f0       ?state_case_flag@?$output_processor@DV?$string_output_adapter@D@__crt_stdio_output@@V?$positional_parameter_base@DV?$string_output_adapter@D@__crt_stdio_output@@@2@@__crt_stdio_output@@AEAA_NXZ 000000014002b4f0 f i libucrt:output.obj
 0001:0002a534       ?state_case_flag@?$output_processor@DV?$string_output_adapter@D@__crt_stdio_output@@V?$standard_base@DV?$string_output_adapter@D@__crt_stdio_output@@@2@@__crt_stdio_output@@AEAA_NXZ 000000014002b534 f i libucrt:output.obj
 0001:0002a578       ?state_case_flag@?$output_processor@_WV?$stream_output_adapter@_W@__crt_stdio_output@@V?$format_validation_base@_WV?$stream_output_adapter@_W@__crt_stdio_output@@@2@@__crt_stdio_output@@AEAA_NXZ 000000014002b578 f i libucrt:output.obj
 0001:0002a5d0       ?state_case_flag@?$output_processor@_WV?$stream_output_adapter@_W@__crt_stdio_output@@V?$positional_parameter_base@_WV?$stream_output_adapter@_W@__crt_stdio_output@@@2@@__crt_stdio_output@@AEAA_NXZ 000000014002b5d0 f i libucrt:output.obj
 0001:0002a628       ?state_case_flag@?$output_processor@_WV?$stream_output_adapter@_W@__crt_stdio_output@@V?$standard_base@_WV?$stream_output_adapter@_W@__crt_stdio_output@@@2@@__crt_stdio_output@@AEAA_NXZ 000000014002b628 f i libucrt:output.obj
 0001:0002a680       ?state_case_flag@?$output_processor@_WV?$string_output_adapter@_W@__crt_stdio_output@@V?$format_validation_base@_WV?$string_output_adapter@_W@__crt_stdio_output@@@2@@__crt_stdio_output@@AEAA_NXZ 000000014002b680 f i libucrt:output.obj
 0001:0002a6d8       ?state_case_flag@?$output_processor@_WV?$string_output_adapter@_W@__crt_stdio_output@@V?$positional_parameter_base@_WV?$string_output_adapter@_W@__crt_stdio_output@@@2@@__crt_stdio_output@@AEAA_NXZ 000000014002b6d8 f i libucrt:output.obj
 0001:0002a730       ?state_case_flag@?$output_processor@_WV?$string_output_adapter@_W@__crt_stdio_output@@V?$standard_base@_WV?$string_output_adapter@_W@__crt_stdio_output@@@2@@__crt_stdio_output@@AEAA_NXZ 000000014002b730 f i libucrt:output.obj
 0001:0002a788       ?state_case_normal@?$output_processor@DV?$stream_output_adapter@D@__crt_stdio_output@@V?$format_validation_base@DV?$stream_output_adapter@D@__crt_stdio_output@@@2@@__crt_stdio_output@@AEAA_NXZ 000000014002b788 f i libucrt:output.obj
 0001:0002a814       ?state_case_normal@?$output_processor@DV?$stream_output_adapter@D@__crt_stdio_output@@V?$positional_parameter_base@DV?$stream_output_adapter@D@__crt_stdio_output@@@2@@__crt_stdio_output@@AEAA_NXZ 000000014002b814 f i libucrt:output.obj
 0001:0002a8d0       ?state_case_normal@?$output_processor@DV?$stream_output_adapter@D@__crt_stdio_output@@V?$standard_base@DV?$stream_output_adapter@D@__crt_stdio_output@@@2@@__crt_stdio_output@@AEAA_NXZ 000000014002b8d0 f i libucrt:output.obj
 0001:0002a95c       ?state_case_normal@?$output_processor@DV?$string_output_adapter@D@__crt_stdio_output@@V?$format_validation_base@DV?$string_output_adapter@D@__crt_stdio_output@@@2@@__crt_stdio_output@@AEAA_NXZ 000000014002b95c f i libucrt:output.obj
 0001:0002a9f0       ?state_case_normal@?$output_processor@DV?$string_output_adapter@D@__crt_stdio_output@@V?$positional_parameter_base@DV?$string_output_adapter@D@__crt_stdio_output@@@2@@__crt_stdio_output@@AEAA_NXZ 000000014002b9f0 f i libucrt:output.obj
 0001:0002aab0       ?state_case_normal@?$output_processor@DV?$string_output_adapter@D@__crt_stdio_output@@V?$standard_base@DV?$string_output_adapter@D@__crt_stdio_output@@@2@@__crt_stdio_output@@AEAA_NXZ 000000014002bab0 f i libucrt:output.obj
 0001:0002ab44       ?state_case_normal@?$output_processor@_WV?$stream_output_adapter@_W@__crt_stdio_output@@V?$format_validation_base@_WV?$stream_output_adapter@_W@__crt_stdio_output@@@2@@__crt_stdio_output@@AEAA_NXZ 000000014002bb44 f i libucrt:output.obj
 0001:0002abb4       ?state_case_normal@?$output_processor@_WV?$stream_output_adapter@_W@__crt_stdio_output@@V?$positional_parameter_base@_WV?$stream_output_adapter@_W@__crt_stdio_output@@@2@@__crt_stdio_output@@AEAA_NXZ 000000014002bbb4 f i libucrt:output.obj
 0001:0002ac50       ?state_case_normal@?$output_processor@_WV?$stream_output_adapter@_W@__crt_stdio_output@@V?$standard_base@_WV?$stream_output_adapter@_W@__crt_stdio_output@@@2@@__crt_stdio_output@@AEAA_NXZ 000000014002bc50 f i libucrt:output.obj
 0001:0002acc0       ?state_case_normal@?$output_processor@_WV?$string_output_adapter@_W@__crt_stdio_output@@V?$format_validation_base@_WV?$string_output_adapter@_W@__crt_stdio_output@@@2@@__crt_stdio_output@@AEAA_NXZ 000000014002bcc0 f i libucrt:output.obj
 0001:0002ad2c       ?state_case_normal@?$output_processor@_WV?$string_output_adapter@_W@__crt_stdio_output@@V?$positional_parameter_base@_WV?$string_output_adapter@_W@__crt_stdio_output@@@2@@__crt_stdio_output@@AEAA_NXZ 000000014002bd2c f i libucrt:output.obj
 0001:0002adc4       ?state_case_normal@?$output_processor@_WV?$string_output_adapter@_W@__crt_stdio_output@@V?$standard_base@_WV?$string_output_adapter@_W@__crt_stdio_output@@@2@@__crt_stdio_output@@AEAA_NXZ 000000014002bdc4 f i libucrt:output.obj
 0001:0002ae30       ?state_case_normal_common@?$output_processor@DV?$stream_output_adapter@D@__crt_stdio_output@@V?$format_validation_base@DV?$stream_output_adapter@D@__crt_stdio_output@@@2@@__crt_stdio_output@@AEAA_NXZ 000000014002be30 f i libucrt:output.obj
 0001:0002aea4       ?state_case_normal_common@?$output_processor@DV?$stream_output_adapter@D@__crt_stdio_output@@V?$positional_parameter_base@DV?$stream_output_adapter@D@__crt_stdio_output@@@2@@__crt_stdio_output@@AEAA_NXZ 000000014002bea4 f i libucrt:output.obj
 0001:0002af18       ?state_case_normal_common@?$output_processor@DV?$stream_output_adapter@D@__crt_stdio_output@@V?$standard_base@DV?$stream_output_adapter@D@__crt_stdio_output@@@2@@__crt_stdio_output@@AEAA_NXZ 000000014002bf18 f i libucrt:output.obj
 0001:0002af8c       ?state_case_normal_common@?$output_processor@DV?$string_output_adapter@D@__crt_stdio_output@@V?$format_validation_base@DV?$string_output_adapter@D@__crt_stdio_output@@@2@@__crt_stdio_output@@AEAA_NXZ 000000014002bf8c f i libucrt:output.obj
 0001:0002b004       ?state_case_normal_common@?$output_processor@DV?$string_output_adapter@D@__crt_stdio_output@@V?$positional_parameter_base@DV?$string_output_adapter@D@__crt_stdio_output@@@2@@__crt_stdio_output@@AEAA_NXZ 000000014002c004 f i libucrt:output.obj
 0001:0002b07c       ?state_case_normal_common@?$output_processor@DV?$string_output_adapter@D@__crt_stdio_output@@V?$standard_base@DV?$string_output_adapter@D@__crt_stdio_output@@@2@@__crt_stdio_output@@AEAA_NXZ 000000014002c07c f i libucrt:output.obj
 0001:0002b0f4       ?state_case_normal_common@?$output_processor@_WV?$stream_output_adapter@_W@__crt_stdio_output@@V?$format_validation_base@_WV?$stream_output_adapter@_W@__crt_stdio_output@@@2@@__crt_stdio_output@@AEAA_NXZ 000000014002c0f4 f i libucrt:output.obj
 0001:0002b164       ?state_case_normal_common@?$output_processor@_WV?$stream_output_adapter@_W@__crt_stdio_output@@V?$positional_parameter_base@_WV?$stream_output_adapter@_W@__crt_stdio_output@@@2@@__crt_stdio_output@@AEAA_NXZ 000000014002c164 f i libucrt:output.obj
 0001:0002b1d4       ?state_case_normal_common@?$output_processor@_WV?$stream_output_adapter@_W@__crt_stdio_output@@V?$standard_base@_WV?$stream_output_adapter@_W@__crt_stdio_output@@@2@@__crt_stdio_output@@AEAA_NXZ 000000014002c1d4 f i libucrt:output.obj
 0001:0002b244       ?state_case_normal_common@?$output_processor@_WV?$string_output_adapter@_W@__crt_stdio_output@@V?$format_validation_base@_WV?$string_output_adapter@_W@__crt_stdio_output@@@2@@__crt_stdio_output@@AEAA_NXZ 000000014002c244 f i libucrt:output.obj
 0001:0002b2b0       ?state_case_normal_common@?$output_processor@_WV?$string_output_adapter@_W@__crt_stdio_output@@V?$positional_parameter_base@_WV?$string_output_adapter@_W@__crt_stdio_output@@@2@@__crt_stdio_output@@AEAA_NXZ 000000014002c2b0 f i libucrt:output.obj
 0001:0002b31c       ?state_case_normal_common@?$output_processor@_WV?$string_output_adapter@_W@__crt_stdio_output@@V?$standard_base@_WV?$string_output_adapter@_W@__crt_stdio_output@@@2@@__crt_stdio_output@@AEAA_NXZ 000000014002c31c f i libucrt:output.obj
 0001:0002b388       ?state_case_normal_tchar@?$output_processor@DV?$stream_output_adapter@D@__crt_stdio_output@@V?$format_validation_base@DV?$stream_output_adapter@D@__crt_stdio_output@@@2@@__crt_stdio_output@@AEAA_ND@Z 000000014002c388 f i libucrt:output.obj
 0001:0002b454       ?state_case_normal_tchar@?$output_processor@DV?$stream_output_adapter@D@__crt_stdio_output@@V?$positional_parameter_base@DV?$stream_output_adapter@D@__crt_stdio_output@@@2@@__crt_stdio_output@@AEAA_ND@Z 000000014002c454 f i libucrt:output.obj
 0001:0002b520       ?state_case_normal_tchar@?$output_processor@DV?$stream_output_adapter@D@__crt_stdio_output@@V?$standard_base@DV?$stream_output_adapter@D@__crt_stdio_output@@@2@@__crt_stdio_output@@AEAA_ND@Z 000000014002c520 f i libucrt:output.obj
 0001:0002b5ec       ?state_case_normal_tchar@?$output_processor@DV?$string_output_adapter@D@__crt_stdio_output@@V?$format_validation_base@DV?$string_output_adapter@D@__crt_stdio_output@@@2@@__crt_stdio_output@@AEAA_ND@Z 000000014002c5ec f i libucrt:output.obj
 0001:0002b6bc       ?state_case_normal_tchar@?$output_processor@DV?$string_output_adapter@D@__crt_stdio_output@@V?$positional_parameter_base@DV?$string_output_adapter@D@__crt_stdio_output@@@2@@__crt_stdio_output@@AEAA_ND@Z 000000014002c6bc f i libucrt:output.obj
 0001:0002b78c       ?state_case_normal_tchar@?$output_processor@DV?$string_output_adapter@D@__crt_stdio_output@@V?$standard_base@DV?$string_output_adapter@D@__crt_stdio_output@@@2@@__crt_stdio_output@@AEAA_ND@Z 000000014002c78c f i libucrt:output.obj
 0001:0002b85c       ?state_case_normal_tchar@?$output_processor@_WV?$stream_output_adapter@_W@__crt_stdio_output@@V?$format_validation_base@_WV?$stream_output_adapter@_W@__crt_stdio_output@@@2@@__crt_stdio_output@@AEAA_N_W@Z 000000014002c85c f i libucrt:output.obj
 0001:0002b864       ?state_case_normal_tchar@?$output_processor@_WV?$stream_output_adapter@_W@__crt_stdio_output@@V?$positional_parameter_base@_WV?$stream_output_adapter@_W@__crt_stdio_output@@@2@@__crt_stdio_output@@AEAA_N_W@Z 000000014002c864 f i libucrt:output.obj
 0001:0002b86c       ?state_case_normal_tchar@?$output_processor@_WV?$stream_output_adapter@_W@__crt_stdio_output@@V?$standard_base@_WV?$stream_output_adapter@_W@__crt_stdio_output@@@2@@__crt_stdio_output@@AEAA_N_W@Z 000000014002c86c f i libucrt:output.obj
 0001:0002b874       ?state_case_normal_tchar@?$output_processor@_WV?$string_output_adapter@_W@__crt_stdio_output@@V?$format_validation_base@_WV?$string_output_adapter@_W@__crt_stdio_output@@@2@@__crt_stdio_output@@AEAA_N_W@Z 000000014002c874 f i libucrt:output.obj
 0001:0002b87c       ?state_case_normal_tchar@?$output_processor@_WV?$string_output_adapter@_W@__crt_stdio_output@@V?$positional_parameter_base@_WV?$string_output_adapter@_W@__crt_stdio_output@@@2@@__crt_stdio_output@@AEAA_N_W@Z 000000014002c87c f i libucrt:output.obj
 0001:0002b884       ?state_case_normal_tchar@?$output_processor@_WV?$string_output_adapter@_W@__crt_stdio_output@@V?$standard_base@_WV?$string_output_adapter@_W@__crt_stdio_output@@@2@@__crt_stdio_output@@AEAA_N_W@Z 000000014002c884 f i libucrt:output.obj
 0001:0002b88c       ?state_case_percent@?$output_processor@DV?$stream_output_adapter@D@__crt_stdio_output@@V?$format_validation_base@DV?$stream_output_adapter@D@__crt_stdio_output@@@2@@__crt_stdio_output@@AEAA_NXZ 000000014002c88c f i libucrt:output.obj
 0001:0002b8a8       ?state_case_percent@?$output_processor@DV?$stream_output_adapter@D@__crt_stdio_output@@V?$positional_parameter_base@DV?$stream_output_adapter@D@__crt_stdio_output@@@2@@__crt_stdio_output@@AEAA_NXZ 000000014002c8a8 f i libucrt:output.obj
 0001:0002b8c4       ?state_case_percent@?$output_processor@DV?$stream_output_adapter@D@__crt_stdio_output@@V?$standard_base@DV?$stream_output_adapter@D@__crt_stdio_output@@@2@@__crt_stdio_output@@AEAA_NXZ 000000014002c8c4 f i libucrt:output.obj
 0001:0002b8e0       ?state_case_percent@?$output_processor@DV?$string_output_adapter@D@__crt_stdio_output@@V?$format_validation_base@DV?$string_output_adapter@D@__crt_stdio_output@@@2@@__crt_stdio_output@@AEAA_NXZ 000000014002c8e0 f i libucrt:output.obj
 0001:0002b8fc       ?state_case_percent@?$output_processor@DV?$string_output_adapter@D@__crt_stdio_output@@V?$positional_parameter_base@DV?$string_output_adapter@D@__crt_stdio_output@@@2@@__crt_stdio_output@@AEAA_NXZ 000000014002c8fc f i libucrt:output.obj
 0001:0002b918       ?state_case_percent@?$output_processor@DV?$string_output_adapter@D@__crt_stdio_output@@V?$standard_base@DV?$string_output_adapter@D@__crt_stdio_output@@@2@@__crt_stdio_output@@AEAA_NXZ 000000014002c918 f i libucrt:output.obj
 0001:0002b934       ?state_case_percent@?$output_processor@_WV?$stream_output_adapter@_W@__crt_stdio_output@@V?$format_validation_base@_WV?$stream_output_adapter@_W@__crt_stdio_output@@@2@@__crt_stdio_output@@AEAA_NXZ 000000014002c934 f i libucrt:output.obj
 0001:0002b950       ?state_case_percent@?$output_processor@_WV?$stream_output_adapter@_W@__crt_stdio_output@@V?$positional_parameter_base@_WV?$stream_output_adapter@_W@__crt_stdio_output@@@2@@__crt_stdio_output@@AEAA_NXZ 000000014002c950 f i libucrt:output.obj
 0001:0002b96c       ?state_case_percent@?$output_processor@_WV?$stream_output_adapter@_W@__crt_stdio_output@@V?$standard_base@_WV?$stream_output_adapter@_W@__crt_stdio_output@@@2@@__crt_stdio_output@@AEAA_NXZ 000000014002c96c f i libucrt:output.obj
 0001:0002b988       ?state_case_percent@?$output_processor@_WV?$string_output_adapter@_W@__crt_stdio_output@@V?$format_validation_base@_WV?$string_output_adapter@_W@__crt_stdio_output@@@2@@__crt_stdio_output@@AEAA_NXZ 000000014002c988 f i libucrt:output.obj
 0001:0002b9a4       ?state_case_percent@?$output_processor@_WV?$string_output_adapter@_W@__crt_stdio_output@@V?$positional_parameter_base@_WV?$string_output_adapter@_W@__crt_stdio_output@@@2@@__crt_stdio_output@@AEAA_NXZ 000000014002c9a4 f i libucrt:output.obj
 0001:0002b9c0       ?state_case_percent@?$output_processor@_WV?$string_output_adapter@_W@__crt_stdio_output@@V?$standard_base@_WV?$string_output_adapter@_W@__crt_stdio_output@@@2@@__crt_stdio_output@@AEAA_NXZ 000000014002c9c0 f i libucrt:output.obj
 0001:0002b9dc       ?state_case_precision@?$output_processor@DV?$stream_output_adapter@D@__crt_stdio_output@@V?$format_validation_base@DV?$stream_output_adapter@D@__crt_stdio_output@@@2@@__crt_stdio_output@@AEAA_NXZ 000000014002c9dc f i libucrt:output.obj
 0001:0002ba0c       ?state_case_precision@?$output_processor@DV?$stream_output_adapter@D@__crt_stdio_output@@V?$positional_parameter_base@DV?$stream_output_adapter@D@__crt_stdio_output@@@2@@__crt_stdio_output@@AEAA_NXZ 000000014002ca0c f i libucrt:output.obj
 0001:0002ba68       ?state_case_precision@?$output_processor@DV?$stream_output_adapter@D@__crt_stdio_output@@V?$standard_base@DV?$stream_output_adapter@D@__crt_stdio_output@@@2@@__crt_stdio_output@@AEAA_NXZ 000000014002ca68 f i libucrt:output.obj
 0001:0002ba98       ?state_case_precision@?$output_processor@DV?$string_output_adapter@D@__crt_stdio_output@@V?$format_validation_base@DV?$string_output_adapter@D@__crt_stdio_output@@@2@@__crt_stdio_output@@AEAA_NXZ 000000014002ca98 f i libucrt:output.obj
 0001:0002bac8       ?state_case_precision@?$output_processor@DV?$string_output_adapter@D@__crt_stdio_output@@V?$positional_parameter_base@DV?$string_output_adapter@D@__crt_stdio_output@@@2@@__crt_stdio_output@@AEAA_NXZ 000000014002cac8 f i libucrt:output.obj
 0001:0002bb24       ?state_case_precision@?$output_processor@DV?$string_output_adapter@D@__crt_stdio_output@@V?$standard_base@DV?$string_output_adapter@D@__crt_stdio_output@@@2@@__crt_stdio_output@@AEAA_NXZ 000000014002cb24 f i libucrt:output.obj
 0001:0002bb54       ?state_case_precision@?$output_processor@_WV?$stream_output_adapter@_W@__crt_stdio_output@@V?$format_validation_base@_WV?$stream_output_adapter@_W@__crt_stdio_output@@@2@@__crt_stdio_output@@AEAA_NXZ 000000014002cb54 f i libucrt:output.obj
 0001:0002bb88       ?state_case_precision@?$output_processor@_WV?$stream_output_adapter@_W@__crt_stdio_output@@V?$positional_parameter_base@_WV?$stream_output_adapter@_W@__crt_stdio_output@@@2@@__crt_stdio_output@@AEAA_NXZ 000000014002cb88 f i libucrt:output.obj
 0001:0002bbe8       ?state_case_precision@?$output_processor@_WV?$stream_output_adapter@_W@__crt_stdio_output@@V?$standard_base@_WV?$stream_output_adapter@_W@__crt_stdio_output@@@2@@__crt_stdio_output@@AEAA_NXZ 000000014002cbe8 f i libucrt:output.obj
 0001:0002bc1c       ?state_case_precision@?$output_processor@_WV?$string_output_adapter@_W@__crt_stdio_output@@V?$format_validation_base@_WV?$string_output_adapter@_W@__crt_stdio_output@@@2@@__crt_stdio_output@@AEAA_NXZ 000000014002cc1c f i libucrt:output.obj
 0001:0002bc50       ?state_case_precision@?$output_processor@_WV?$string_output_adapter@_W@__crt_stdio_output@@V?$positional_parameter_base@_WV?$string_output_adapter@_W@__crt_stdio_output@@@2@@__crt_stdio_output@@AEAA_NXZ 000000014002cc50 f i libucrt:output.obj
 0001:0002bcb0       ?state_case_precision@?$output_processor@_WV?$string_output_adapter@_W@__crt_stdio_output@@V?$standard_base@_WV?$string_output_adapter@_W@__crt_stdio_output@@@2@@__crt_stdio_output@@AEAA_NXZ 000000014002ccb0 f i libucrt:output.obj
 0001:0002bce4       ?state_case_size@?$output_processor@DV?$stream_output_adapter@D@__crt_stdio_output@@V?$format_validation_base@DV?$stream_output_adapter@D@__crt_stdio_output@@@2@@__crt_stdio_output@@AEAA_NXZ 000000014002cce4 f i libucrt:output.obj
 0001:0002beac       ?state_case_size@?$output_processor@DV?$stream_output_adapter@D@__crt_stdio_output@@V?$positional_parameter_base@DV?$stream_output_adapter@D@__crt_stdio_output@@@2@@__crt_stdio_output@@AEAA_NXZ 000000014002ceac f i libucrt:output.obj
 0001:0002c074       ?state_case_size@?$output_processor@DV?$stream_output_adapter@D@__crt_stdio_output@@V?$standard_base@DV?$stream_output_adapter@D@__crt_stdio_output@@@2@@__crt_stdio_output@@AEAA_NXZ 000000014002d074 f i libucrt:output.obj
 0001:0002c23c       ?state_case_size@?$output_processor@DV?$string_output_adapter@D@__crt_stdio_output@@V?$format_validation_base@DV?$string_output_adapter@D@__crt_stdio_output@@@2@@__crt_stdio_output@@AEAA_NXZ 000000014002d23c f i libucrt:output.obj
 0001:0002c404       ?state_case_size@?$output_processor@DV?$string_output_adapter@D@__crt_stdio_output@@V?$positional_parameter_base@DV?$string_output_adapter@D@__crt_stdio_output@@@2@@__crt_stdio_output@@AEAA_NXZ 000000014002d404 f i libucrt:output.obj
 0001:0002c5cc       ?state_case_size@?$output_processor@DV?$string_output_adapter@D@__crt_stdio_output@@V?$standard_base@DV?$string_output_adapter@D@__crt_stdio_output@@@2@@__crt_stdio_output@@AEAA_NXZ 000000014002d5cc f i libucrt:output.obj
 0001:0002c794       ?state_case_size@?$output_processor@_WV?$stream_output_adapter@_W@__crt_stdio_output@@V?$format_validation_base@_WV?$stream_output_adapter@_W@__crt_stdio_output@@@2@@__crt_stdio_output@@AEAA_NXZ 000000014002d794 f i libucrt:output.obj
 0001:0002c98c       ?state_case_size@?$output_processor@_WV?$stream_output_adapter@_W@__crt_stdio_output@@V?$positional_parameter_base@_WV?$stream_output_adapter@_W@__crt_stdio_output@@@2@@__crt_stdio_output@@AEAA_NXZ 000000014002d98c f i libucrt:output.obj
 0001:0002cb84       ?state_case_size@?$output_processor@_WV?$stream_output_adapter@_W@__crt_stdio_output@@V?$standard_base@_WV?$stream_output_adapter@_W@__crt_stdio_output@@@2@@__crt_stdio_output@@AEAA_NXZ 000000014002db84 f i libucrt:output.obj
 0001:0002cd7c       ?state_case_size@?$output_processor@_WV?$string_output_adapter@_W@__crt_stdio_output@@V?$format_validation_base@_WV?$string_output_adapter@_W@__crt_stdio_output@@@2@@__crt_stdio_output@@AEAA_NXZ 000000014002dd7c f i libucrt:output.obj
 0001:0002cf74       ?state_case_size@?$output_processor@_WV?$string_output_adapter@_W@__crt_stdio_output@@V?$positional_parameter_base@_WV?$string_output_adapter@_W@__crt_stdio_output@@@2@@__crt_stdio_output@@AEAA_NXZ 000000014002df74 f i libucrt:output.obj
 0001:0002d16c       ?state_case_size@?$output_processor@_WV?$string_output_adapter@_W@__crt_stdio_output@@V?$standard_base@_WV?$string_output_adapter@_W@__crt_stdio_output@@@2@@__crt_stdio_output@@AEAA_NXZ 000000014002e16c f i libucrt:output.obj
 0001:0002d364       ?state_case_type@?$output_processor@DV?$stream_output_adapter@D@__crt_stdio_output@@V?$format_validation_base@DV?$stream_output_adapter@D@__crt_stdio_output@@@2@@__crt_stdio_output@@AEAA_NXZ 000000014002e364 f i libucrt:output.obj
 0001:0002d68c       ?state_case_type@?$output_processor@DV?$stream_output_adapter@D@__crt_stdio_output@@V?$positional_parameter_base@DV?$stream_output_adapter@D@__crt_stdio_output@@@2@@__crt_stdio_output@@AEAA_NXZ 000000014002e68c f i libucrt:output.obj
 0001:0002d9cc       ?state_case_type@?$output_processor@DV?$stream_output_adapter@D@__crt_stdio_output@@V?$standard_base@DV?$stream_output_adapter@D@__crt_stdio_output@@@2@@__crt_stdio_output@@AEAA_NXZ 000000014002e9cc f i libucrt:output.obj
 0001:0002dcf4       ?state_case_type@?$output_processor@DV?$string_output_adapter@D@__crt_stdio_output@@V?$format_validation_base@DV?$string_output_adapter@D@__crt_stdio_output@@@2@@__crt_stdio_output@@AEAA_NXZ 000000014002ecf4 f i libucrt:output.obj
 0001:0002dff4       ?state_case_type@?$output_processor@DV?$string_output_adapter@D@__crt_stdio_output@@V?$positional_parameter_base@DV?$string_output_adapter@D@__crt_stdio_output@@@2@@__crt_stdio_output@@AEAA_NXZ 000000014002eff4 f i libucrt:output.obj
 0001:0002e310       ?state_case_type@?$output_processor@DV?$string_output_adapter@D@__crt_stdio_output@@V?$standard_base@DV?$string_output_adapter@D@__crt_stdio_output@@@2@@__crt_stdio_output@@AEAA_NXZ 000000014002f310 f i libucrt:output.obj
 0001:0002e610       ?state_case_type@?$output_processor@_WV?$stream_output_adapter@_W@__crt_stdio_output@@V?$format_validation_base@_WV?$stream_output_adapter@_W@__crt_stdio_output@@@2@@__crt_stdio_output@@AEAA_NXZ 000000014002f610 f i libucrt:output.obj
 0001:0002e9a4       ?state_case_type@?$output_processor@_WV?$stream_output_adapter@_W@__crt_stdio_output@@V?$positional_parameter_base@_WV?$stream_output_adapter@_W@__crt_stdio_output@@@2@@__crt_stdio_output@@AEAA_NXZ 000000014002f9a4 f i libucrt:output.obj
 0001:0002ed54       ?state_case_type@?$output_processor@_WV?$stream_output_adapter@_W@__crt_stdio_output@@V?$standard_base@_WV?$stream_output_adapter@_W@__crt_stdio_output@@@2@@__crt_stdio_output@@AEAA_NXZ 000000014002fd54 f i libucrt:output.obj
 0001:0002f0e8       ?state_case_type@?$output_processor@_WV?$string_output_adapter@_W@__crt_stdio_output@@V?$format_validation_base@_WV?$string_output_adapter@_W@__crt_stdio_output@@@2@@__crt_stdio_output@@AEAA_NXZ 00000001400300e8 f i libucrt:output.obj
 0001:0002f464       ?state_case_type@?$output_processor@_WV?$string_output_adapter@_W@__crt_stdio_output@@V?$positional_parameter_base@_WV?$string_output_adapter@_W@__crt_stdio_output@@@2@@__crt_stdio_output@@AEAA_NXZ 0000000140030464 f i libucrt:output.obj
 0001:0002f7fc       ?state_case_type@?$output_processor@_WV?$string_output_adapter@_W@__crt_stdio_output@@V?$standard_base@_WV?$string_output_adapter@_W@__crt_stdio_output@@@2@@__crt_stdio_output@@AEAA_NXZ 00000001400307fc f i libucrt:output.obj
 0001:0002fb78       ?state_case_width@?$output_processor@DV?$stream_output_adapter@D@__crt_stdio_output@@V?$format_validation_base@DV?$stream_output_adapter@D@__crt_stdio_output@@@2@@__crt_stdio_output@@AEAA_NXZ 0000000140030b78 f i libucrt:output.obj
 0001:0002fbb8       ?state_case_width@?$output_processor@DV?$stream_output_adapter@D@__crt_stdio_output@@V?$positional_parameter_base@DV?$stream_output_adapter@D@__crt_stdio_output@@@2@@__crt_stdio_output@@AEAA_NXZ 0000000140030bb8 f i libucrt:output.obj
 0001:0002fc1c       ?state_case_width@?$output_processor@DV?$stream_output_adapter@D@__crt_stdio_output@@V?$standard_base@DV?$stream_output_adapter@D@__crt_stdio_output@@@2@@__crt_stdio_output@@AEAA_NXZ 0000000140030c1c f i libucrt:output.obj
 0001:0002fc5c       ?state_case_width@?$output_processor@DV?$string_output_adapter@D@__crt_stdio_output@@V?$format_validation_base@DV?$string_output_adapter@D@__crt_stdio_output@@@2@@__crt_stdio_output@@AEAA_NXZ 0000000140030c5c f i libucrt:output.obj
 0001:0002fc9c       ?state_case_width@?$output_processor@DV?$string_output_adapter@D@__crt_stdio_output@@V?$positional_parameter_base@DV?$string_output_adapter@D@__crt_stdio_output@@@2@@__crt_stdio_output@@AEAA_NXZ 0000000140030c9c f i libucrt:output.obj
 0001:0002fd00       ?state_case_width@?$output_processor@DV?$string_output_adapter@D@__crt_stdio_output@@V?$standard_base@DV?$string_output_adapter@D@__crt_stdio_output@@@2@@__crt_stdio_output@@AEAA_NXZ 0000000140030d00 f i libucrt:output.obj
 0001:0002fd40       ?state_case_width@?$output_processor@_WV?$stream_output_adapter@_W@__crt_stdio_output@@V?$format_validation_base@_WV?$stream_output_adapter@_W@__crt_stdio_output@@@2@@__crt_stdio_output@@AEAA_NXZ 0000000140030d40 f i libucrt:output.obj
 0001:0002fd80       ?state_case_width@?$output_processor@_WV?$stream_output_adapter@_W@__crt_stdio_output@@V?$positional_parameter_base@_WV?$stream_output_adapter@_W@__crt_stdio_output@@@2@@__crt_stdio_output@@AEAA_NXZ 0000000140030d80 f i libucrt:output.obj
 0001:0002fde8       ?state_case_width@?$output_processor@_WV?$stream_output_adapter@_W@__crt_stdio_output@@V?$standard_base@_WV?$stream_output_adapter@_W@__crt_stdio_output@@@2@@__crt_stdio_output@@AEAA_NXZ 0000000140030de8 f i libucrt:output.obj
 0001:0002fe28       ?state_case_width@?$output_processor@_WV?$string_output_adapter@_W@__crt_stdio_output@@V?$format_validation_base@_WV?$string_output_adapter@_W@__crt_stdio_output@@@2@@__crt_stdio_output@@AEAA_NXZ 0000000140030e28 f i libucrt:output.obj
 0001:0002fe68       ?state_case_width@?$output_processor@_WV?$string_output_adapter@_W@__crt_stdio_output@@V?$positional_parameter_base@_WV?$string_output_adapter@_W@__crt_stdio_output@@@2@@__crt_stdio_output@@AEAA_NXZ 0000000140030e68 f i libucrt:output.obj
 0001:0002fed0       ?state_case_width@?$output_processor@_WV?$string_output_adapter@_W@__crt_stdio_output@@V?$standard_base@_WV?$string_output_adapter@_W@__crt_stdio_output@@@2@@__crt_stdio_output@@AEAA_NXZ 0000000140030ed0 f i libucrt:output.obj
 0001:0002ff10       ?state_count@?$format_validation_base@DV?$stream_output_adapter@D@__crt_stdio_output@@@__crt_stdio_output@@KAIXZ 0000000140030f10 f i libucrt:output.obj
 0001:0002ff18       ?state_count@?$format_validation_base@DV?$string_output_adapter@D@__crt_stdio_output@@@__crt_stdio_output@@KAIXZ 0000000140030f18 f i libucrt:output.obj
 0001:0002ff20       ?state_count@?$format_validation_base@_WV?$stream_output_adapter@_W@__crt_stdio_output@@@__crt_stdio_output@@KAIXZ 0000000140030f20 f i libucrt:output.obj
 0001:0002ff28       ?state_count@?$format_validation_base@_WV?$string_output_adapter@_W@__crt_stdio_output@@@__crt_stdio_output@@KAIXZ 0000000140030f28 f i libucrt:output.obj
 0001:0002ff30       ?state_count@?$standard_base@DV?$stream_output_adapter@D@__crt_stdio_output@@@__crt_stdio_output@@KAIXZ 0000000140030f30 f i libucrt:output.obj
 0001:0002ff38       ?state_count@?$standard_base@DV?$string_output_adapter@D@__crt_stdio_output@@@__crt_stdio_output@@KAIXZ 0000000140030f38 f i libucrt:output.obj
 0001:0002ff40       ?state_count@?$standard_base@_WV?$stream_output_adapter@_W@__crt_stdio_output@@@__crt_stdio_output@@KAIXZ 0000000140030f40 f i libucrt:output.obj
 0001:0002ff48       ?state_count@?$standard_base@_WV?$string_output_adapter@_W@__crt_stdio_output@@@__crt_stdio_output@@KAIXZ 0000000140030f48 f i libucrt:output.obj
 0001:0002ff50       ?state_transition_table@?$format_validation_base@DV?$stream_output_adapter@D@__crt_stdio_output@@@__crt_stdio_output@@KAAEBV?$spectre_mitigated_lookup_table@Ustate_transition_pair@__crt_stdio_output@@$0IA@@2@XZ 0000000140030f50 f i libucrt:output.obj
 0001:0002ff5c       ?state_transition_table@?$format_validation_base@DV?$string_output_adapter@D@__crt_stdio_output@@@__crt_stdio_output@@KAAEBV?$spectre_mitigated_lookup_table@Ustate_transition_pair@__crt_stdio_output@@$0IA@@2@XZ 0000000140030f5c f i libucrt:output.obj
 0001:0002ff68       ?state_transition_table@?$format_validation_base@_WV?$stream_output_adapter@_W@__crt_stdio_output@@@__crt_stdio_output@@KAAEBV?$spectre_mitigated_lookup_table@Ustate_transition_pair@__crt_stdio_output@@$0IA@@2@XZ 0000000140030f68 f i libucrt:output.obj
 0001:0002ff74       ?state_transition_table@?$format_validation_base@_WV?$string_output_adapter@_W@__crt_stdio_output@@@__crt_stdio_output@@KAAEBV?$spectre_mitigated_lookup_table@Ustate_transition_pair@__crt_stdio_output@@$0IA@@2@XZ 0000000140030f74 f i libucrt:output.obj
 0001:0002ff80       ?state_transition_table@?$standard_base@DV?$stream_output_adapter@D@__crt_stdio_output@@@__crt_stdio_output@@KAAEBV?$spectre_mitigated_lookup_table@Ustate_transition_pair@__crt_stdio_output@@$0IA@@2@XZ 0000000140030f80 f i libucrt:output.obj
 0001:0002ff8c       ?state_transition_table@?$standard_base@DV?$string_output_adapter@D@__crt_stdio_output@@@__crt_stdio_output@@KAAEBV?$spectre_mitigated_lookup_table@Ustate_transition_pair@__crt_stdio_output@@$0IA@@2@XZ 0000000140030f8c f i libucrt:output.obj
 0001:0002ff98       ?state_transition_table@?$standard_base@_WV?$stream_output_adapter@_W@__crt_stdio_output@@@__crt_stdio_output@@KAAEBV?$spectre_mitigated_lookup_table@Ustate_transition_pair@__crt_stdio_output@@$0IA@@2@XZ 0000000140030f98 f i libucrt:output.obj
 0001:0002ffa4       ?state_transition_table@?$standard_base@_WV?$string_output_adapter@_W@__crt_stdio_output@@@__crt_stdio_output@@KAAEBV?$spectre_mitigated_lookup_table@Ustate_transition_pair@__crt_stdio_output@@$0IA@@2@XZ 0000000140030fa4 f i libucrt:output.obj
 0001:0002ffb0       ?tchar_string@?$common_data@D@__crt_stdio_output@@IEAAAEAPEADD@Z 0000000140030fb0 f i libucrt:output.obj
 0001:0002ffb8       ?tchar_string@?$common_data@D@__crt_stdio_output@@IEAAAEAPEADXZ 0000000140030fb8 f i libucrt:output.obj
 0001:0002ffc0       ?tchar_string@?$common_data@_W@__crt_stdio_output@@IEAAAEAPEA_WXZ 0000000140030fc0 f i libucrt:output.obj
 0001:0002ffc8       ?tchar_string@?$common_data@_W@__crt_stdio_output@@IEAAAEAPEA_W_W@Z 0000000140030fc8 f i libucrt:output.obj
 0001:0002ffd0       ?to_integer_size@__crt_stdio_output@@YA_KW4length_modifier@1@@Z 0000000140030fd0 f i libucrt:output.obj
 0001:00030054       ?type_case_X@?$output_processor@DV?$stream_output_adapter@D@__crt_stdio_output@@V?$format_validation_base@DV?$stream_output_adapter@D@__crt_stdio_output@@@2@@__crt_stdio_output@@AEAA_NXZ 0000000140031054 f i libucrt:output.obj
 0001:00030064       ?type_case_X@?$output_processor@DV?$stream_output_adapter@D@__crt_stdio_output@@V?$positional_parameter_base@DV?$stream_output_adapter@D@__crt_stdio_output@@@2@@__crt_stdio_output@@AEAA_NXZ 0000000140031064 f i libucrt:output.obj
 0001:00030074       ?type_case_X@?$output_processor@DV?$stream_output_adapter@D@__crt_stdio_output@@V?$standard_base@DV?$stream_output_adapter@D@__crt_stdio_output@@@2@@__crt_stdio_output@@AEAA_NXZ 0000000140031074 f i libucrt:output.obj
 0001:00030084       ?type_case_X@?$output_processor@DV?$string_output_adapter@D@__crt_stdio_output@@V?$format_validation_base@DV?$string_output_adapter@D@__crt_stdio_output@@@2@@__crt_stdio_output@@AEAA_NXZ 0000000140031084 f i libucrt:output.obj
 0001:00030094       ?type_case_X@?$output_processor@DV?$string_output_adapter@D@__crt_stdio_output@@V?$positional_parameter_base@DV?$string_output_adapter@D@__crt_stdio_output@@@2@@__crt_stdio_output@@AEAA_NXZ 0000000140031094 f i libucrt:output.obj
 0001:000300a4       ?type_case_X@?$output_processor@DV?$string_output_adapter@D@__crt_stdio_output@@V?$standard_base@DV?$string_output_adapter@D@__crt_stdio_output@@@2@@__crt_stdio_output@@AEAA_NXZ 00000001400310a4 f i libucrt:output.obj
 0001:000300b4       ?type_case_X@?$output_processor@_WV?$stream_output_adapter@_W@__crt_stdio_output@@V?$format_validation_base@_WV?$stream_output_adapter@_W@__crt_stdio_output@@@2@@__crt_stdio_output@@AEAA_NXZ 00000001400310b4 f i libucrt:output.obj
 0001:000300c4       ?type_case_X@?$output_processor@_WV?$stream_output_adapter@_W@__crt_stdio_output@@V?$positional_parameter_base@_WV?$stream_output_adapter@_W@__crt_stdio_output@@@2@@__crt_stdio_output@@AEAA_NXZ 00000001400310c4 f i libucrt:output.obj
 0001:000300d4       ?type_case_X@?$output_processor@_WV?$stream_output_adapter@_W@__crt_stdio_output@@V?$standard_base@_WV?$stream_output_adapter@_W@__crt_stdio_output@@@2@@__crt_stdio_output@@AEAA_NXZ 00000001400310d4 f i libucrt:output.obj
 0001:000300e4       ?type_case_X@?$output_processor@_WV?$string_output_adapter@_W@__crt_stdio_output@@V?$format_validation_base@_WV?$string_output_adapter@_W@__crt_stdio_output@@@2@@__crt_stdio_output@@AEAA_NXZ 00000001400310e4 f i libucrt:output.obj
 0001:000300f4       ?type_case_X@?$output_processor@_WV?$string_output_adapter@_W@__crt_stdio_output@@V?$positional_parameter_base@_WV?$string_output_adapter@_W@__crt_stdio_output@@@2@@__crt_stdio_output@@AEAA_NXZ 00000001400310f4 f i libucrt:output.obj
 0001:00030104       ?type_case_X@?$output_processor@_WV?$string_output_adapter@_W@__crt_stdio_output@@V?$standard_base@_WV?$string_output_adapter@_W@__crt_stdio_output@@@2@@__crt_stdio_output@@AEAA_NXZ 0000000140031104 f i libucrt:output.obj
 0001:00030114       ?type_case_Z@?$output_processor@DV?$stream_output_adapter@D@__crt_stdio_output@@V?$format_validation_base@DV?$stream_output_adapter@D@__crt_stdio_output@@@2@@__crt_stdio_output@@AEAA_NXZ 0000000140031114 f i libucrt:output.obj
 0001:000301a4       ?type_case_Z@?$output_processor@DV?$stream_output_adapter@D@__crt_stdio_output@@V?$positional_parameter_base@DV?$stream_output_adapter@D@__crt_stdio_output@@@2@@__crt_stdio_output@@AEAA_NXZ 00000001400311a4 f i libucrt:output.obj
 0001:0003026c       ?type_case_Z@?$output_processor@DV?$stream_output_adapter@D@__crt_stdio_output@@V?$standard_base@DV?$stream_output_adapter@D@__crt_stdio_output@@@2@@__crt_stdio_output@@AEAA_NXZ 000000014003126c f i libucrt:output.obj
 0001:000302fc       ?type_case_Z@?$output_processor@DV?$string_output_adapter@D@__crt_stdio_output@@V?$format_validation_base@DV?$string_output_adapter@D@__crt_stdio_output@@@2@@__crt_stdio_output@@AEAA_NXZ 00000001400312fc f i libucrt:output.obj
 0001:0003038c       ?type_case_Z@?$output_processor@DV?$string_output_adapter@D@__crt_stdio_output@@V?$positional_parameter_base@DV?$string_output_adapter@D@__crt_stdio_output@@@2@@__crt_stdio_output@@AEAA_NXZ 000000014003138c f i libucrt:output.obj
 0001:00030454       ?type_case_Z@?$output_processor@DV?$string_output_adapter@D@__crt_stdio_output@@V?$standard_base@DV?$string_output_adapter@D@__crt_stdio_output@@@2@@__crt_stdio_output@@AEAA_NXZ 0000000140031454 f i libucrt:output.obj
 0001:000304e4       ?type_case_Z@?$output_processor@_WV?$stream_output_adapter@_W@__crt_stdio_output@@V?$format_validation_base@_WV?$stream_output_adapter@_W@__crt_stdio_output@@@2@@__crt_stdio_output@@AEAA_NXZ 00000001400314e4 f i libucrt:output.obj
 0001:0003057c       ?type_case_Z@?$output_processor@_WV?$stream_output_adapter@_W@__crt_stdio_output@@V?$positional_parameter_base@_WV?$stream_output_adapter@_W@__crt_stdio_output@@@2@@__crt_stdio_output@@AEAA_NXZ 000000014003157c f i libucrt:output.obj
 0001:00030638       ?type_case_Z@?$output_processor@_WV?$stream_output_adapter@_W@__crt_stdio_output@@V?$standard_base@_WV?$stream_output_adapter@_W@__crt_stdio_output@@@2@@__crt_stdio_output@@AEAA_NXZ 0000000140031638 f i libucrt:output.obj
 0001:000306d0       ?type_case_Z@?$output_processor@_WV?$string_output_adapter@_W@__crt_stdio_output@@V?$format_validation_base@_WV?$string_output_adapter@_W@__crt_stdio_output@@@2@@__crt_stdio_output@@AEAA_NXZ 00000001400316d0 f i libucrt:output.obj
 0001:00030768       ?type_case_Z@?$output_processor@_WV?$string_output_adapter@_W@__crt_stdio_output@@V?$positional_parameter_base@_WV?$string_output_adapter@_W@__crt_stdio_output@@@2@@__crt_stdio_output@@AEAA_NXZ 0000000140031768 f i libucrt:output.obj
 0001:00030824       ?type_case_Z@?$output_processor@_WV?$string_output_adapter@_W@__crt_stdio_output@@V?$standard_base@_WV?$string_output_adapter@_W@__crt_stdio_output@@@2@@__crt_stdio_output@@AEAA_NXZ 0000000140031824 f i libucrt:output.obj
 0001:000308bc       ?type_case_a@?$output_processor@DV?$stream_output_adapter@D@__crt_stdio_output@@V?$format_validation_base@DV?$stream_output_adapter@D@__crt_stdio_output@@@2@@__crt_stdio_output@@AEAA_NXZ 00000001400318bc f i libucrt:output.obj
 0001:00030ae8       ?type_case_a@?$output_processor@DV?$stream_output_adapter@D@__crt_stdio_output@@V?$positional_parameter_base@DV?$stream_output_adapter@D@__crt_stdio_output@@@2@@__crt_stdio_output@@AEAA_NXZ 0000000140031ae8 f i libucrt:output.obj
 0001:00030d60       ?type_case_a@?$output_processor@DV?$stream_output_adapter@D@__crt_stdio_output@@V?$standard_base@DV?$stream_output_adapter@D@__crt_stdio_output@@@2@@__crt_stdio_output@@AEAA_NXZ 0000000140031d60 f i libucrt:output.obj
 0001:00030f8c       ?type_case_a@?$output_processor@DV?$string_output_adapter@D@__crt_stdio_output@@V?$format_validation_base@DV?$string_output_adapter@D@__crt_stdio_output@@@2@@__crt_stdio_output@@AEAA_NXZ 0000000140031f8c f i libucrt:output.obj
 0001:000311b8       ?type_case_a@?$output_processor@DV?$string_output_adapter@D@__crt_stdio_output@@V?$positional_parameter_base@DV?$string_output_adapter@D@__crt_stdio_output@@@2@@__crt_stdio_output@@AEAA_NXZ 00000001400321b8 f i libucrt:output.obj
 0001:00031430       ?type_case_a@?$output_processor@DV?$string_output_adapter@D@__crt_stdio_output@@V?$standard_base@DV?$string_output_adapter@D@__crt_stdio_output@@@2@@__crt_stdio_output@@AEAA_NXZ 0000000140032430 f i libucrt:output.obj
 0001:0003165c       ?type_case_a@?$output_processor@_WV?$stream_output_adapter@_W@__crt_stdio_output@@V?$format_validation_base@_WV?$stream_output_adapter@_W@__crt_stdio_output@@@2@@__crt_stdio_output@@AEAA_NXZ 000000014003265c f i libucrt:output.obj
 0001:000318b4       ?type_case_a@?$output_processor@_WV?$stream_output_adapter@_W@__crt_stdio_output@@V?$positional_parameter_base@_WV?$stream_output_adapter@_W@__crt_stdio_output@@@2@@__crt_stdio_output@@AEAA_NXZ 00000001400328b4 f i libucrt:output.obj
 0001:00031b58       ?type_case_a@?$output_processor@_WV?$stream_output_adapter@_W@__crt_stdio_output@@V?$standard_base@_WV?$stream_output_adapter@_W@__crt_stdio_output@@@2@@__crt_stdio_output@@AEAA_NXZ 0000000140032b58 f i libucrt:output.obj
 0001:00031db0       ?type_case_a@?$output_processor@_WV?$string_output_adapter@_W@__crt_stdio_output@@V?$format_validation_base@_WV?$string_output_adapter@_W@__crt_stdio_output@@@2@@__crt_stdio_output@@AEAA_NXZ 0000000140032db0 f i libucrt:output.obj
 0001:00032008       ?type_case_a@?$output_processor@_WV?$string_output_adapter@_W@__crt_stdio_output@@V?$positional_parameter_base@_WV?$string_output_adapter@_W@__crt_stdio_output@@@2@@__crt_stdio_output@@AEAA_NXZ 0000000140033008 f i libucrt:output.obj
 0001:000322ac       ?type_case_a@?$output_processor@_WV?$string_output_adapter@_W@__crt_stdio_output@@V?$standard_base@_WV?$string_output_adapter@_W@__crt_stdio_output@@@2@@__crt_stdio_output@@AEAA_NXZ 00000001400332ac f i libucrt:output.obj
 0001:00032504       ?type_case_c@?$output_processor@DV?$stream_output_adapter@D@__crt_stdio_output@@V?$format_validation_base@DV?$stream_output_adapter@D@__crt_stdio_output@@@2@@__crt_stdio_output@@AEAA_NXZ 0000000140033504 f i libucrt:output.obj
 0001:0003250c       ?type_case_c@?$output_processor@DV?$stream_output_adapter@D@__crt_stdio_output@@V?$positional_parameter_base@DV?$stream_output_adapter@D@__crt_stdio_output@@@2@@__crt_stdio_output@@AEAA_NXZ 000000014003350c f i libucrt:output.obj
 0001:00032514       ?type_case_c@?$output_processor@DV?$stream_output_adapter@D@__crt_stdio_output@@V?$standard_base@DV?$stream_output_adapter@D@__crt_stdio_output@@@2@@__crt_stdio_output@@AEAA_NXZ 0000000140033514 f i libucrt:output.obj
 0001:0003251c       ?type_case_c@?$output_processor@DV?$string_output_adapter@D@__crt_stdio_output@@V?$format_validation_base@DV?$string_output_adapter@D@__crt_stdio_output@@@2@@__crt_stdio_output@@AEAA_NXZ 000000014003351c f i libucrt:output.obj
 0001:00032524       ?type_case_c@?$output_processor@DV?$string_output_adapter@D@__crt_stdio_output@@V?$positional_parameter_base@DV?$string_output_adapter@D@__crt_stdio_output@@@2@@__crt_stdio_output@@AEAA_NXZ 0000000140033524 f i libucrt:output.obj
 0001:0003252c       ?type_case_c@?$output_processor@DV?$string_output_adapter@D@__crt_stdio_output@@V?$standard_base@DV?$string_output_adapter@D@__crt_stdio_output@@@2@@__crt_stdio_output@@AEAA_NXZ 000000014003352c f i libucrt:output.obj
 0001:00032534       ?type_case_c@?$output_processor@_WV?$stream_output_adapter@_W@__crt_stdio_output@@V?$format_validation_base@_WV?$stream_output_adapter@_W@__crt_stdio_output@@@2@@__crt_stdio_output@@AEAA_NXZ 0000000140033534 f i libucrt:output.obj
 0001:0003253c       ?type_case_c@?$output_processor@_WV?$stream_output_adapter@_W@__crt_stdio_output@@V?$positional_parameter_base@_WV?$stream_output_adapter@_W@__crt_stdio_output@@@2@@__crt_stdio_output@@AEAA_NXZ 000000014003353c f i libucrt:output.obj
 0001:00032544       ?type_case_c@?$output_processor@_WV?$stream_output_adapter@_W@__crt_stdio_output@@V?$standard_base@_WV?$stream_output_adapter@_W@__crt_stdio_output@@@2@@__crt_stdio_output@@AEAA_NXZ 0000000140033544 f i libucrt:output.obj
 0001:0003254c       ?type_case_c@?$output_processor@_WV?$string_output_adapter@_W@__crt_stdio_output@@V?$format_validation_base@_WV?$string_output_adapter@_W@__crt_stdio_output@@@2@@__crt_stdio_output@@AEAA_NXZ 000000014003354c f i libucrt:output.obj
 0001:00032554       ?type_case_c@?$output_processor@_WV?$string_output_adapter@_W@__crt_stdio_output@@V?$positional_parameter_base@_WV?$string_output_adapter@_W@__crt_stdio_output@@@2@@__crt_stdio_output@@AEAA_NXZ 0000000140033554 f i libucrt:output.obj
 0001:0003255c       ?type_case_c@?$output_processor@_WV?$string_output_adapter@_W@__crt_stdio_output@@V?$standard_base@_WV?$string_output_adapter@_W@__crt_stdio_output@@@2@@__crt_stdio_output@@AEAA_NXZ 000000014003355c f i libucrt:output.obj
 0001:00032564       ?type_case_c_tchar@?$output_processor@DV?$stream_output_adapter@D@__crt_stdio_output@@V?$format_validation_base@DV?$stream_output_adapter@D@__crt_stdio_output@@@2@@__crt_stdio_output@@AEAA_ND@Z 0000000140033564 f i libucrt:output.obj
 0001:0003265c       ?type_case_c_tchar@?$output_processor@DV?$stream_output_adapter@D@__crt_stdio_output@@V?$positional_parameter_base@DV?$stream_output_adapter@D@__crt_stdio_output@@@2@@__crt_stdio_output@@AEAA_ND@Z 000000014003365c f i libucrt:output.obj
 0001:000327ac       ?type_case_c_tchar@?$output_processor@DV?$stream_output_adapter@D@__crt_stdio_output@@V?$standard_base@DV?$stream_output_adapter@D@__crt_stdio_output@@@2@@__crt_stdio_output@@AEAA_ND@Z 00000001400337ac f i libucrt:output.obj
 0001:000328a4       ?type_case_c_tchar@?$output_processor@DV?$string_output_adapter@D@__crt_stdio_output@@V?$format_validation_base@DV?$string_output_adapter@D@__crt_stdio_output@@@2@@__crt_stdio_output@@AEAA_ND@Z 00000001400338a4 f i libucrt:output.obj
 0001:0003299c       ?type_case_c_tchar@?$output_processor@DV?$string_output_adapter@D@__crt_stdio_output@@V?$positional_parameter_base@DV?$string_output_adapter@D@__crt_stdio_output@@@2@@__crt_stdio_output@@AEAA_ND@Z 000000014003399c f i libucrt:output.obj
 0001:00032aec       ?type_case_c_tchar@?$output_processor@DV?$string_output_adapter@D@__crt_stdio_output@@V?$standard_base@DV?$string_output_adapter@D@__crt_stdio_output@@@2@@__crt_stdio_output@@AEAA_ND@Z 0000000140033aec f i libucrt:output.obj
 0001:00032be4       ?type_case_c_tchar@?$output_processor@_WV?$stream_output_adapter@_W@__crt_stdio_output@@V?$format_validation_base@_WV?$stream_output_adapter@_W@__crt_stdio_output@@@2@@__crt_stdio_output@@AEAA_N_W@Z 0000000140033be4 f i libucrt:output.obj
 0001:00032cb4       ?type_case_c_tchar@?$output_processor@_WV?$stream_output_adapter@_W@__crt_stdio_output@@V?$positional_parameter_base@_WV?$stream_output_adapter@_W@__crt_stdio_output@@@2@@__crt_stdio_output@@AEAA_N_W@Z 0000000140033cb4 f i libucrt:output.obj
 0001:00032db4       ?type_case_c_tchar@?$output_processor@_WV?$stream_output_adapter@_W@__crt_stdio_output@@V?$standard_base@_WV?$stream_output_adapter@_W@__crt_stdio_output@@@2@@__crt_stdio_output@@AEAA_N_W@Z 0000000140033db4 f i libucrt:output.obj
 0001:00032e84       ?type_case_c_tchar@?$output_processor@_WV?$string_output_adapter@_W@__crt_stdio_output@@V?$format_validation_base@_WV?$string_output_adapter@_W@__crt_stdio_output@@@2@@__crt_stdio_output@@AEAA_N_W@Z 0000000140033e84 f i libucrt:output.obj
 0001:00032f54       ?type_case_c_tchar@?$output_processor@_WV?$string_output_adapter@_W@__crt_stdio_output@@V?$positional_parameter_base@_WV?$string_output_adapter@_W@__crt_stdio_output@@@2@@__crt_stdio_output@@AEAA_N_W@Z 0000000140033f54 f i libucrt:output.obj
 0001:00033054       ?type_case_c_tchar@?$output_processor@_WV?$string_output_adapter@_W@__crt_stdio_output@@V?$standard_base@_WV?$string_output_adapter@_W@__crt_stdio_output@@@2@@__crt_stdio_output@@AEAA_N_W@Z 0000000140034054 f i libucrt:output.obj
 0001:00033124       ?type_case_d@?$output_processor@DV?$stream_output_adapter@D@__crt_stdio_output@@V?$format_validation_base@DV?$stream_output_adapter@D@__crt_stdio_output@@@2@@__crt_stdio_output@@AEAA_NXZ 0000000140034124 f i libucrt:output.obj
 0001:00033138       ?type_case_d@?$output_processor@DV?$stream_output_adapter@D@__crt_stdio_output@@V?$positional_parameter_base@DV?$stream_output_adapter@D@__crt_stdio_output@@@2@@__crt_stdio_output@@AEAA_NXZ 0000000140034138 f i libucrt:output.obj
 0001:0003314c       ?type_case_d@?$output_processor@DV?$stream_output_adapter@D@__crt_stdio_output@@V?$standard_base@DV?$stream_output_adapter@D@__crt_stdio_output@@@2@@__crt_stdio_output@@AEAA_NXZ 000000014003414c f i libucrt:output.obj
 0001:00033160       ?type_case_d@?$output_processor@DV?$string_output_adapter@D@__crt_stdio_output@@V?$format_validation_base@DV?$string_output_adapter@D@__crt_stdio_output@@@2@@__crt_stdio_output@@AEAA_NXZ 0000000140034160 f i libucrt:output.obj
 0001:00033174       ?type_case_d@?$output_processor@DV?$string_output_adapter@D@__crt_stdio_output@@V?$positional_parameter_base@DV?$string_output_adapter@D@__crt_stdio_output@@@2@@__crt_stdio_output@@AEAA_NXZ 0000000140034174 f i libucrt:output.obj
 0001:00033188       ?type_case_d@?$output_processor@DV?$string_output_adapter@D@__crt_stdio_output@@V?$standard_base@DV?$string_output_adapter@D@__crt_stdio_output@@@2@@__crt_stdio_output@@AEAA_NXZ 0000000140034188 f i libucrt:output.obj
 0001:0003319c       ?type_case_d@?$output_processor@_WV?$stream_output_adapter@_W@__crt_stdio_output@@V?$format_validation_base@_WV?$stream_output_adapter@_W@__crt_stdio_output@@@2@@__crt_stdio_output@@AEAA_NXZ 000000014003419c f i libucrt:output.obj
 0001:000331b0       ?type_case_d@?$output_processor@_WV?$stream_output_adapter@_W@__crt_stdio_output@@V?$positional_parameter_base@_WV?$stream_output_adapter@_W@__crt_stdio_output@@@2@@__crt_stdio_output@@AEAA_NXZ 00000001400341b0 f i libucrt:output.obj
 0001:000331c4       ?type_case_d@?$output_processor@_WV?$stream_output_adapter@_W@__crt_stdio_output@@V?$standard_base@_WV?$stream_output_adapter@_W@__crt_stdio_output@@@2@@__crt_stdio_output@@AEAA_NXZ 00000001400341c4 f i libucrt:output.obj
 0001:000331d8       ?type_case_d@?$output_processor@_WV?$string_output_adapter@_W@__crt_stdio_output@@V?$format_validation_base@_WV?$string_output_adapter@_W@__crt_stdio_output@@@2@@__crt_stdio_output@@AEAA_NXZ 00000001400341d8 f i libucrt:output.obj
 0001:000331ec       ?type_case_d@?$output_processor@_WV?$string_output_adapter@_W@__crt_stdio_output@@V?$positional_parameter_base@_WV?$string_output_adapter@_W@__crt_stdio_output@@@2@@__crt_stdio_output@@AEAA_NXZ 00000001400341ec f i libucrt:output.obj
 0001:00033200       ?type_case_d@?$output_processor@_WV?$string_output_adapter@_W@__crt_stdio_output@@V?$standard_base@_WV?$string_output_adapter@_W@__crt_stdio_output@@@2@@__crt_stdio_output@@AEAA_NXZ 0000000140034200 f i libucrt:output.obj
 0001:00033214       ?type_case_integer@?$output_processor@DV?$stream_output_adapter@D@__crt_stdio_output@@V?$format_validation_base@DV?$stream_output_adapter@D@__crt_stdio_output@@@2@@__crt_stdio_output@@AEAA_NI_N@Z 0000000140034214 f i libucrt:output.obj
 0001:000333f4       ?type_case_integer@?$output_processor@DV?$stream_output_adapter@D@__crt_stdio_output@@V?$positional_parameter_base@DV?$stream_output_adapter@D@__crt_stdio_output@@@2@@__crt_stdio_output@@AEAA_NI_N@Z 00000001400343f4 f i libucrt:output.obj
 0001:00033608       ?type_case_integer@?$output_processor@DV?$stream_output_adapter@D@__crt_stdio_output@@V?$standard_base@DV?$stream_output_adapter@D@__crt_stdio_output@@@2@@__crt_stdio_output@@AEAA_NI_N@Z 0000000140034608 f i libucrt:output.obj
 0001:000337e8       ?type_case_integer@?$output_processor@DV?$string_output_adapter@D@__crt_stdio_output@@V?$format_validation_base@DV?$string_output_adapter@D@__crt_stdio_output@@@2@@__crt_stdio_output@@AEAA_NI_N@Z 00000001400347e8 f i libucrt:output.obj
 0001:000339c8       ?type_case_integer@?$output_processor@DV?$string_output_adapter@D@__crt_stdio_output@@V?$positional_parameter_base@DV?$string_output_adapter@D@__crt_stdio_output@@@2@@__crt_stdio_output@@AEAA_NI_N@Z 00000001400349c8 f i libucrt:output.obj
 0001:00033bdc       ?type_case_integer@?$output_processor@DV?$string_output_adapter@D@__crt_stdio_output@@V?$standard_base@DV?$string_output_adapter@D@__crt_stdio_output@@@2@@__crt_stdio_output@@AEAA_NI_N@Z 0000000140034bdc f i libucrt:output.obj
 0001:00033dbc       ?type_case_integer@?$output_processor@_WV?$stream_output_adapter@_W@__crt_stdio_output@@V?$format_validation_base@_WV?$stream_output_adapter@_W@__crt_stdio_output@@@2@@__crt_stdio_output@@AEAA_NI_N@Z 0000000140034dbc f i libucrt:output.obj
 0001:00033fa4       ?type_case_integer@?$output_processor@_WV?$stream_output_adapter@_W@__crt_stdio_output@@V?$positional_parameter_base@_WV?$stream_output_adapter@_W@__crt_stdio_output@@@2@@__crt_stdio_output@@AEAA_NI_N@Z 0000000140034fa4 f i libucrt:output.obj
 0001:000341c0       ?type_case_integer@?$output_processor@_WV?$stream_output_adapter@_W@__crt_stdio_output@@V?$standard_base@_WV?$stream_output_adapter@_W@__crt_stdio_output@@@2@@__crt_stdio_output@@AEAA_NI_N@Z 00000001400351c0 f i libucrt:output.obj
 0001:000343a8       ?type_case_integer@?$output_processor@_WV?$string_output_adapter@_W@__crt_stdio_output@@V?$format_validation_base@_WV?$string_output_adapter@_W@__crt_stdio_output@@@2@@__crt_stdio_output@@AEAA_NI_N@Z 00000001400353a8 f i libucrt:output.obj
 0001:00034590       ?type_case_integer@?$output_processor@_WV?$string_output_adapter@_W@__crt_stdio_output@@V?$positional_parameter_base@_WV?$string_output_adapter@_W@__crt_stdio_output@@@2@@__crt_stdio_output@@AEAA_NI_N@Z 0000000140035590 f i libucrt:output.obj
 0001:000347ac       ?type_case_integer@?$output_processor@_WV?$string_output_adapter@_W@__crt_stdio_output@@V?$standard_base@_WV?$string_output_adapter@_W@__crt_stdio_output@@@2@@__crt_stdio_output@@AEAA_NI_N@Z 00000001400357ac f i libucrt:output.obj
 0001:00034994       ?type_case_n@?$output_processor@DV?$stream_output_adapter@D@__crt_stdio_output@@V?$format_validation_base@DV?$stream_output_adapter@D@__crt_stdio_output@@@2@@__crt_stdio_output@@AEAA_NXZ 0000000140035994 f i libucrt:output.obj
 0001:00034a3c       ?type_case_n@?$output_processor@DV?$stream_output_adapter@D@__crt_stdio_output@@V?$positional_parameter_base@DV?$stream_output_adapter@D@__crt_stdio_output@@@2@@__crt_stdio_output@@AEAA_NXZ 0000000140035a3c f i libucrt:output.obj
 0001:00034b18       ?type_case_n@?$output_processor@DV?$stream_output_adapter@D@__crt_stdio_output@@V?$standard_base@DV?$stream_output_adapter@D@__crt_stdio_output@@@2@@__crt_stdio_output@@AEAA_NXZ 0000000140035b18 f i libucrt:output.obj
 0001:00034bc0       ?type_case_n@?$output_processor@DV?$string_output_adapter@D@__crt_stdio_output@@V?$format_validation_base@DV?$string_output_adapter@D@__crt_stdio_output@@@2@@__crt_stdio_output@@AEAA_NXZ 0000000140035bc0 f i libucrt:output.obj
 0001:00034c68       ?type_case_n@?$output_processor@DV?$string_output_adapter@D@__crt_stdio_output@@V?$positional_parameter_base@DV?$string_output_adapter@D@__crt_stdio_output@@@2@@__crt_stdio_output@@AEAA_NXZ 0000000140035c68 f i libucrt:output.obj
 0001:00034d44       ?type_case_n@?$output_processor@DV?$string_output_adapter@D@__crt_stdio_output@@V?$standard_base@DV?$string_output_adapter@D@__crt_stdio_output@@@2@@__crt_stdio_output@@AEAA_NXZ 0000000140035d44 f i libucrt:output.obj
 0001:00034dec       ?type_case_n@?$output_processor@_WV?$stream_output_adapter@_W@__crt_stdio_output@@V?$format_validation_base@_WV?$stream_output_adapter@_W@__crt_stdio_output@@@2@@__crt_stdio_output@@AEAA_NXZ 0000000140035dec f i libucrt:output.obj
 0001:00034e94       ?type_case_n@?$output_processor@_WV?$stream_output_adapter@_W@__crt_stdio_output@@V?$positional_parameter_base@_WV?$stream_output_adapter@_W@__crt_stdio_output@@@2@@__crt_stdio_output@@AEAA_NXZ 0000000140035e94 f i libucrt:output.obj
 0001:00034f70       ?type_case_n@?$output_processor@_WV?$stream_output_adapter@_W@__crt_stdio_output@@V?$standard_base@_WV?$stream_output_adapter@_W@__crt_stdio_output@@@2@@__crt_stdio_output@@AEAA_NXZ 0000000140035f70 f i libucrt:output.obj
 0001:00035018       ?type_case_n@?$output_processor@_WV?$string_output_adapter@_W@__crt_stdio_output@@V?$format_validation_base@_WV?$string_output_adapter@_W@__crt_stdio_output@@@2@@__crt_stdio_output@@AEAA_NXZ 0000000140036018 f i libucrt:output.obj
 0001:000350c0       ?type_case_n@?$output_processor@_WV?$string_output_adapter@_W@__crt_stdio_output@@V?$positional_parameter_base@_WV?$string_output_adapter@_W@__crt_stdio_output@@@2@@__crt_stdio_output@@AEAA_NXZ 00000001400360c0 f i libucrt:output.obj
 0001:0003519c       ?type_case_n@?$output_processor@_WV?$string_output_adapter@_W@__crt_stdio_output@@V?$standard_base@_WV?$string_output_adapter@_W@__crt_stdio_output@@@2@@__crt_stdio_output@@AEAA_NXZ 000000014003619c f i libucrt:output.obj
 0001:00035244       ?type_case_o@?$output_processor@DV?$stream_output_adapter@D@__crt_stdio_output@@V?$format_validation_base@DV?$stream_output_adapter@D@__crt_stdio_output@@@2@@__crt_stdio_output@@AEAA_NXZ 0000000140036244 f i libucrt:output.obj
 0001:0003526c       ?type_case_o@?$output_processor@DV?$stream_output_adapter@D@__crt_stdio_output@@V?$positional_parameter_base@DV?$stream_output_adapter@D@__crt_stdio_output@@@2@@__crt_stdio_output@@AEAA_NXZ 000000014003626c f i libucrt:output.obj
 0001:00035294       ?type_case_o@?$output_processor@DV?$stream_output_adapter@D@__crt_stdio_output@@V?$standard_base@DV?$stream_output_adapter@D@__crt_stdio_output@@@2@@__crt_stdio_output@@AEAA_NXZ 0000000140036294 f i libucrt:output.obj
 0001:000352bc       ?type_case_o@?$output_processor@DV?$string_output_adapter@D@__crt_stdio_output@@V?$format_validation_base@DV?$string_output_adapter@D@__crt_stdio_output@@@2@@__crt_stdio_output@@AEAA_NXZ 00000001400362bc f i libucrt:output.obj
 0001:000352e4       ?type_case_o@?$output_processor@DV?$string_output_adapter@D@__crt_stdio_output@@V?$positional_parameter_base@DV?$string_output_adapter@D@__crt_stdio_output@@@2@@__crt_stdio_output@@AEAA_NXZ 00000001400362e4 f i libucrt:output.obj
 0001:0003530c       ?type_case_o@?$output_processor@DV?$string_output_adapter@D@__crt_stdio_output@@V?$standard_base@DV?$string_output_adapter@D@__crt_stdio_output@@@2@@__crt_stdio_output@@AEAA_NXZ 000000014003630c f i libucrt:output.obj
 0001:00035334       ?type_case_o@?$output_processor@_WV?$stream_output_adapter@_W@__crt_stdio_output@@V?$format_validation_base@_WV?$stream_output_adapter@_W@__crt_stdio_output@@@2@@__crt_stdio_output@@AEAA_NXZ 0000000140036334 f i libucrt:output.obj
 0001:0003535c       ?type_case_o@?$output_processor@_WV?$stream_output_adapter@_W@__crt_stdio_output@@V?$positional_parameter_base@_WV?$stream_output_adapter@_W@__crt_stdio_output@@@2@@__crt_stdio_output@@AEAA_NXZ 000000014003635c f i libucrt:output.obj
 0001:00035384       ?type_case_o@?$output_processor@_WV?$stream_output_adapter@_W@__crt_stdio_output@@V?$standard_base@_WV?$stream_output_adapter@_W@__crt_stdio_output@@@2@@__crt_stdio_output@@AEAA_NXZ 0000000140036384 f i libucrt:output.obj
 0001:000353ac       ?type_case_o@?$output_processor@_WV?$string_output_adapter@_W@__crt_stdio_output@@V?$format_validation_base@_WV?$string_output_adapter@_W@__crt_stdio_output@@@2@@__crt_stdio_output@@AEAA_NXZ 00000001400363ac f i libucrt:output.obj
 0001:000353d4       ?type_case_o@?$output_processor@_WV?$string_output_adapter@_W@__crt_stdio_output@@V?$positional_parameter_base@_WV?$string_output_adapter@_W@__crt_stdio_output@@@2@@__crt_stdio_output@@AEAA_NXZ 00000001400363d4 f i libucrt:output.obj
 0001:000353fc       ?type_case_o@?$output_processor@_WV?$string_output_adapter@_W@__crt_stdio_output@@V?$standard_base@_WV?$string_output_adapter@_W@__crt_stdio_output@@@2@@__crt_stdio_output@@AEAA_NXZ 00000001400363fc f i libucrt:output.obj
 0001:00035424       ?type_case_p@?$output_processor@DV?$stream_output_adapter@D@__crt_stdio_output@@V?$format_validation_base@DV?$stream_output_adapter@D@__crt_stdio_output@@@2@@__crt_stdio_output@@AEAA_NXZ 0000000140036424 f i libucrt:output.obj
 0001:00035440       ?type_case_p@?$output_processor@DV?$stream_output_adapter@D@__crt_stdio_output@@V?$positional_parameter_base@DV?$stream_output_adapter@D@__crt_stdio_output@@@2@@__crt_stdio_output@@AEAA_NXZ 0000000140036440 f i libucrt:output.obj
 0001:0003545c       ?type_case_p@?$output_processor@DV?$stream_output_adapter@D@__crt_stdio_output@@V?$standard_base@DV?$stream_output_adapter@D@__crt_stdio_output@@@2@@__crt_stdio_output@@AEAA_NXZ 000000014003645c f i libucrt:output.obj
 0001:00035478       ?type_case_p@?$output_processor@DV?$string_output_adapter@D@__crt_stdio_output@@V?$format_validation_base@DV?$string_output_adapter@D@__crt_stdio_output@@@2@@__crt_stdio_output@@AEAA_NXZ 0000000140036478 f i libucrt:output.obj
 0001:00035494       ?type_case_p@?$output_processor@DV?$string_output_adapter@D@__crt_stdio_output@@V?$positional_parameter_base@DV?$string_output_adapter@D@__crt_stdio_output@@@2@@__crt_stdio_output@@AEAA_NXZ 0000000140036494 f i libucrt:output.obj
 0001:000354b0       ?type_case_p@?$output_processor@DV?$string_output_adapter@D@__crt_stdio_output@@V?$standard_base@DV?$string_output_adapter@D@__crt_stdio_output@@@2@@__crt_stdio_output@@AEAA_NXZ 00000001400364b0 f i libucrt:output.obj
 0001:000354cc       ?type_case_p@?$output_processor@_WV?$stream_output_adapter@_W@__crt_stdio_output@@V?$format_validation_base@_WV?$stream_output_adapter@_W@__crt_stdio_output@@@2@@__crt_stdio_output@@AEAA_NXZ 00000001400364cc f i libucrt:output.obj
 0001:000354e8       ?type_case_p@?$output_processor@_WV?$stream_output_adapter@_W@__crt_stdio_output@@V?$positional_parameter_base@_WV?$stream_output_adapter@_W@__crt_stdio_output@@@2@@__crt_stdio_output@@AEAA_NXZ 00000001400364e8 f i libucrt:output.obj
 0001:00035504       ?type_case_p@?$output_processor@_WV?$stream_output_adapter@_W@__crt_stdio_output@@V?$standard_base@_WV?$stream_output_adapter@_W@__crt_stdio_output@@@2@@__crt_stdio_output@@AEAA_NXZ 0000000140036504 f i libucrt:output.obj
 0001:00035520       ?type_case_p@?$output_processor@_WV?$string_output_adapter@_W@__crt_stdio_output@@V?$format_validation_base@_WV?$string_output_adapter@_W@__crt_stdio_output@@@2@@__crt_stdio_output@@AEAA_NXZ 0000000140036520 f i libucrt:output.obj
 0001:0003553c       ?type_case_p@?$output_processor@_WV?$string_output_adapter@_W@__crt_stdio_output@@V?$positional_parameter_base@_WV?$string_output_adapter@_W@__crt_stdio_output@@@2@@__crt_stdio_output@@AEAA_NXZ 000000014003653c f i libucrt:output.obj
 0001:00035558       ?type_case_p@?$output_processor@_WV?$string_output_adapter@_W@__crt_stdio_output@@V?$standard_base@_WV?$string_output_adapter@_W@__crt_stdio_output@@@2@@__crt_stdio_output@@AEAA_NXZ 0000000140036558 f i libucrt:output.obj
 0001:00035574       ?type_case_s@?$output_processor@DV?$stream_output_adapter@D@__crt_stdio_output@@V?$format_validation_base@DV?$stream_output_adapter@D@__crt_stdio_output@@@2@@__crt_stdio_output@@AEAA_NXZ 0000000140036574 f i libucrt:output.obj
 0001:00035630       ?type_case_s@?$output_processor@DV?$stream_output_adapter@D@__crt_stdio_output@@V?$positional_parameter_base@DV?$stream_output_adapter@D@__crt_stdio_output@@@2@@__crt_stdio_output@@AEAA_NXZ 0000000140036630 f i libucrt:output.obj
 0001:00035714       ?type_case_s@?$output_processor@DV?$stream_output_adapter@D@__crt_stdio_output@@V?$standard_base@DV?$stream_output_adapter@D@__crt_stdio_output@@@2@@__crt_stdio_output@@AEAA_NXZ 0000000140036714 f i libucrt:output.obj
 0001:000357d0       ?type_case_s@?$output_processor@DV?$string_output_adapter@D@__crt_stdio_output@@V?$format_validation_base@DV?$string_output_adapter@D@__crt_stdio_output@@@2@@__crt_stdio_output@@AEAA_NXZ 00000001400367d0 f i libucrt:output.obj
 0001:0003588c       ?type_case_s@?$output_processor@DV?$string_output_adapter@D@__crt_stdio_output@@V?$positional_parameter_base@DV?$string_output_adapter@D@__crt_stdio_output@@@2@@__crt_stdio_output@@AEAA_NXZ 000000014003688c f i libucrt:output.obj
 0001:00035970       ?type_case_s@?$output_processor@DV?$string_output_adapter@D@__crt_stdio_output@@V?$standard_base@DV?$string_output_adapter@D@__crt_stdio_output@@@2@@__crt_stdio_output@@AEAA_NXZ 0000000140036970 f i libucrt:output.obj
 0001:00035a2c       ?type_case_s@?$output_processor@_WV?$stream_output_adapter@_W@__crt_stdio_output@@V?$format_validation_base@_WV?$stream_output_adapter@_W@__crt_stdio_output@@@2@@__crt_stdio_output@@AEAA_NXZ 0000000140036a2c f i libucrt:output.obj
 0001:00035b24       ?type_case_s@?$output_processor@_WV?$stream_output_adapter@_W@__crt_stdio_output@@V?$positional_parameter_base@_WV?$stream_output_adapter@_W@__crt_stdio_output@@@2@@__crt_stdio_output@@AEAA_NXZ 0000000140036b24 f i libucrt:output.obj
 0001:00035c48       ?type_case_s@?$output_processor@_WV?$stream_output_adapter@_W@__crt_stdio_output@@V?$standard_base@_WV?$stream_output_adapter@_W@__crt_stdio_output@@@2@@__crt_stdio_output@@AEAA_NXZ 0000000140036c48 f i libucrt:output.obj
 0001:00035d40       ?type_case_s@?$output_processor@_WV?$string_output_adapter@_W@__crt_stdio_output@@V?$format_validation_base@_WV?$string_output_adapter@_W@__crt_stdio_output@@@2@@__crt_stdio_output@@AEAA_NXZ 0000000140036d40 f i libucrt:output.obj
 0001:00035e38       ?type_case_s@?$output_processor@_WV?$string_output_adapter@_W@__crt_stdio_output@@V?$positional_parameter_base@_WV?$string_output_adapter@_W@__crt_stdio_output@@@2@@__crt_stdio_output@@AEAA_NXZ 0000000140036e38 f i libucrt:output.obj
 0001:00035f5c       ?type_case_s@?$output_processor@_WV?$string_output_adapter@_W@__crt_stdio_output@@V?$standard_base@_WV?$string_output_adapter@_W@__crt_stdio_output@@@2@@__crt_stdio_output@@AEAA_NXZ 0000000140036f5c f i libucrt:output.obj
 0001:00036054       ?type_case_s_compute_narrow_string_length@?$output_processor@DV?$stream_output_adapter@D@__crt_stdio_output@@V?$format_validation_base@DV?$stream_output_adapter@D@__crt_stdio_output@@@2@@__crt_stdio_output@@AEBAHHD@Z 0000000140037054 f i libucrt:output.obj
 0001:00036064       ?type_case_s_compute_narrow_string_length@?$output_processor@DV?$stream_output_adapter@D@__crt_stdio_output@@V?$positional_parameter_base@DV?$stream_output_adapter@D@__crt_stdio_output@@@2@@__crt_stdio_output@@AEBAHHD@Z 0000000140037064 f i libucrt:output.obj
 0001:00036074       ?type_case_s_compute_narrow_string_length@?$output_processor@DV?$stream_output_adapter@D@__crt_stdio_output@@V?$standard_base@DV?$stream_output_adapter@D@__crt_stdio_output@@@2@@__crt_stdio_output@@AEBAHHD@Z 0000000140037074 f i libucrt:output.obj
 0001:00036084       ?type_case_s_compute_narrow_string_length@?$output_processor@DV?$string_output_adapter@D@__crt_stdio_output@@V?$format_validation_base@DV?$string_output_adapter@D@__crt_stdio_output@@@2@@__crt_stdio_output@@AEBAHHD@Z 0000000140037084 f i libucrt:output.obj
 0001:00036094       ?type_case_s_compute_narrow_string_length@?$output_processor@DV?$string_output_adapter@D@__crt_stdio_output@@V?$positional_parameter_base@DV?$string_output_adapter@D@__crt_stdio_output@@@2@@__crt_stdio_output@@AEBAHHD@Z 0000000140037094 f i libucrt:output.obj
 0001:000360a4       ?type_case_s_compute_narrow_string_length@?$output_processor@DV?$string_output_adapter@D@__crt_stdio_output@@V?$standard_base@DV?$string_output_adapter@D@__crt_stdio_output@@@2@@__crt_stdio_output@@AEBAHHD@Z 00000001400370a4 f i libucrt:output.obj
 0001:000360b4       ?type_case_s_compute_narrow_string_length@?$output_processor@_WV?$stream_output_adapter@_W@__crt_stdio_output@@V?$format_validation_base@_WV?$stream_output_adapter@_W@__crt_stdio_output@@@2@@__crt_stdio_output@@AEBAHH_W@Z 00000001400370b4 f i libucrt:output.obj
 0001:0003611c       ?type_case_s_compute_narrow_string_length@?$output_processor@_WV?$stream_output_adapter@_W@__crt_stdio_output@@V?$positional_parameter_base@_WV?$stream_output_adapter@_W@__crt_stdio_output@@@2@@__crt_stdio_output@@AEBAHH_W@Z 000000014003711c f i libucrt:output.obj
 0001:00036184       ?type_case_s_compute_narrow_string_length@?$output_processor@_WV?$stream_output_adapter@_W@__crt_stdio_output@@V?$standard_base@_WV?$stream_output_adapter@_W@__crt_stdio_output@@@2@@__crt_stdio_output@@AEBAHH_W@Z 0000000140037184 f i libucrt:output.obj
 0001:000361ec       ?type_case_s_compute_narrow_string_length@?$output_processor@_WV?$string_output_adapter@_W@__crt_stdio_output@@V?$format_validation_base@_WV?$string_output_adapter@_W@__crt_stdio_output@@@2@@__crt_stdio_output@@AEBAHH_W@Z 00000001400371ec f i libucrt:output.obj
 0001:00036254       ?type_case_s_compute_narrow_string_length@?$output_processor@_WV?$string_output_adapter@_W@__crt_stdio_output@@V?$positional_parameter_base@_WV?$string_output_adapter@_W@__crt_stdio_output@@@2@@__crt_stdio_output@@AEBAHH_W@Z 0000000140037254 f i libucrt:output.obj
 0001:000362bc       ?type_case_s_compute_narrow_string_length@?$output_processor@_WV?$string_output_adapter@_W@__crt_stdio_output@@V?$standard_base@_WV?$string_output_adapter@_W@__crt_stdio_output@@@2@@__crt_stdio_output@@AEBAHH_W@Z 00000001400372bc f i libucrt:output.obj
 0001:00036324       ?type_case_u@?$output_processor@DV?$stream_output_adapter@D@__crt_stdio_output@@V?$format_validation_base@DV?$stream_output_adapter@D@__crt_stdio_output@@@2@@__crt_stdio_output@@AEAA_NXZ 0000000140037324 f i libucrt:output.obj
 0001:00036334       ?type_case_u@?$output_processor@DV?$stream_output_adapter@D@__crt_stdio_output@@V?$positional_parameter_base@DV?$stream_output_adapter@D@__crt_stdio_output@@@2@@__crt_stdio_output@@AEAA_NXZ 0000000140037334 f i libucrt:output.obj
 0001:00036344       ?type_case_u@?$output_processor@DV?$stream_output_adapter@D@__crt_stdio_output@@V?$standard_base@DV?$stream_output_adapter@D@__crt_stdio_output@@@2@@__crt_stdio_output@@AEAA_NXZ 0000000140037344 f i libucrt:output.obj
 0001:00036354       ?type_case_u@?$output_processor@DV?$string_output_adapter@D@__crt_stdio_output@@V?$format_validation_base@DV?$string_output_adapter@D@__crt_stdio_output@@@2@@__crt_stdio_output@@AEAA_NXZ 0000000140037354 f i libucrt:output.obj
 0001:00036364       ?type_case_u@?$output_processor@DV?$string_output_adapter@D@__crt_stdio_output@@V?$positional_parameter_base@DV?$string_output_adapter@D@__crt_stdio_output@@@2@@__crt_stdio_output@@AEAA_NXZ 0000000140037364 f i libucrt:output.obj
 0001:00036374       ?type_case_u@?$output_processor@DV?$string_output_adapter@D@__crt_stdio_output@@V?$standard_base@DV?$string_output_adapter@D@__crt_stdio_output@@@2@@__crt_stdio_output@@AEAA_NXZ 0000000140037374 f i libucrt:output.obj
 0001:00036384       ?type_case_u@?$output_processor@_WV?$stream_output_adapter@_W@__crt_stdio_output@@V?$format_validation_base@_WV?$stream_output_adapter@_W@__crt_stdio_output@@@2@@__crt_stdio_output@@AEAA_NXZ 0000000140037384 f i libucrt:output.obj
 0001:00036394       ?type_case_u@?$output_processor@_WV?$stream_output_adapter@_W@__crt_stdio_output@@V?$positional_parameter_base@_WV?$stream_output_adapter@_W@__crt_stdio_output@@@2@@__crt_stdio_output@@AEAA_NXZ 0000000140037394 f i libucrt:output.obj
 0001:000363a4       ?type_case_u@?$output_processor@_WV?$stream_output_adapter@_W@__crt_stdio_output@@V?$standard_base@_WV?$stream_output_adapter@_W@__crt_stdio_output@@@2@@__crt_stdio_output@@AEAA_NXZ 00000001400373a4 f i libucrt:output.obj
 0001:000363b4       ?type_case_u@?$output_processor@_WV?$string_output_adapter@_W@__crt_stdio_output@@V?$format_validation_base@_WV?$string_output_adapter@_W@__crt_stdio_output@@@2@@__crt_stdio_output@@AEAA_NXZ 00000001400373b4 f i libucrt:output.obj
 0001:000363c4       ?type_case_u@?$output_processor@_WV?$string_output_adapter@_W@__crt_stdio_output@@V?$positional_parameter_base@_WV?$string_output_adapter@_W@__crt_stdio_output@@@2@@__crt_stdio_output@@AEAA_NXZ 00000001400373c4 f i libucrt:output.obj
 0001:000363d4       ?type_case_u@?$output_processor@_WV?$string_output_adapter@_W@__crt_stdio_output@@V?$standard_base@_WV?$string_output_adapter@_W@__crt_stdio_output@@@2@@__crt_stdio_output@@AEAA_NXZ 00000001400373d4 f i libucrt:output.obj
 0001:000363e4       ?type_case_x@?$output_processor@DV?$stream_output_adapter@D@__crt_stdio_output@@V?$format_validation_base@DV?$stream_output_adapter@D@__crt_stdio_output@@@2@@__crt_stdio_output@@AEAA_NXZ 00000001400373e4 f i libucrt:output.obj
 0001:000363f4       ?type_case_x@?$output_processor@DV?$stream_output_adapter@D@__crt_stdio_output@@V?$positional_parameter_base@DV?$stream_output_adapter@D@__crt_stdio_output@@@2@@__crt_stdio_output@@AEAA_NXZ 00000001400373f4 f i libucrt:output.obj
 0001:00036404       ?type_case_x@?$output_processor@DV?$stream_output_adapter@D@__crt_stdio_output@@V?$standard_base@DV?$stream_output_adapter@D@__crt_stdio_output@@@2@@__crt_stdio_output@@AEAA_NXZ 0000000140037404 f i libucrt:output.obj
 0001:00036414       ?type_case_x@?$output_processor@DV?$string_output_adapter@D@__crt_stdio_output@@V?$format_validation_base@DV?$string_output_adapter@D@__crt_stdio_output@@@2@@__crt_stdio_output@@AEAA_NXZ 0000000140037414 f i libucrt:output.obj
 0001:00036424       ?type_case_x@?$output_processor@DV?$string_output_adapter@D@__crt_stdio_output@@V?$positional_parameter_base@DV?$string_output_adapter@D@__crt_stdio_output@@@2@@__crt_stdio_output@@AEAA_NXZ 0000000140037424 f i libucrt:output.obj
 0001:00036434       ?type_case_x@?$output_processor@DV?$string_output_adapter@D@__crt_stdio_output@@V?$standard_base@DV?$string_output_adapter@D@__crt_stdio_output@@@2@@__crt_stdio_output@@AEAA_NXZ 0000000140037434 f i libucrt:output.obj
 0001:00036444       ?type_case_x@?$output_processor@_WV?$stream_output_adapter@_W@__crt_stdio_output@@V?$format_validation_base@_WV?$stream_output_adapter@_W@__crt_stdio_output@@@2@@__crt_stdio_output@@AEAA_NXZ 0000000140037444 f i libucrt:output.obj
 0001:00036454       ?type_case_x@?$output_processor@_WV?$stream_output_adapter@_W@__crt_stdio_output@@V?$positional_parameter_base@_WV?$stream_output_adapter@_W@__crt_stdio_output@@@2@@__crt_stdio_output@@AEAA_NXZ 0000000140037454 f i libucrt:output.obj
 0001:00036464       ?type_case_x@?$output_processor@_WV?$stream_output_adapter@_W@__crt_stdio_output@@V?$standard_base@_WV?$stream_output_adapter@_W@__crt_stdio_output@@@2@@__crt_stdio_output@@AEAA_NXZ 0000000140037464 f i libucrt:output.obj
 0001:00036474       ?type_case_x@?$output_processor@_WV?$string_output_adapter@_W@__crt_stdio_output@@V?$format_validation_base@_WV?$string_output_adapter@_W@__crt_stdio_output@@@2@@__crt_stdio_output@@AEAA_NXZ 0000000140037474 f i libucrt:output.obj
 0001:00036484       ?type_case_x@?$output_processor@_WV?$string_output_adapter@_W@__crt_stdio_output@@V?$positional_parameter_base@_WV?$string_output_adapter@_W@__crt_stdio_output@@@2@@__crt_stdio_output@@AEAA_NXZ 0000000140037484 f i libucrt:output.obj
 0001:00036494       ?type_case_x@?$output_processor@_WV?$string_output_adapter@_W@__crt_stdio_output@@V?$standard_base@_WV?$string_output_adapter@_W@__crt_stdio_output@@@2@@__crt_stdio_output@@AEAA_NXZ 0000000140037494 f i libucrt:output.obj
 0001:000364a4       ?unset_flag@?$output_processor@DV?$stream_output_adapter@D@__crt_stdio_output@@V?$format_validation_base@DV?$stream_output_adapter@D@__crt_stdio_output@@@2@@__crt_stdio_output@@AEAAXI@Z 00000001400374a4 f i libucrt:output.obj
 0001:000364ac       ?unset_flag@?$output_processor@DV?$stream_output_adapter@D@__crt_stdio_output@@V?$positional_parameter_base@DV?$stream_output_adapter@D@__crt_stdio_output@@@2@@__crt_stdio_output@@AEAAXI@Z 00000001400374ac f i libucrt:output.obj
 0001:000364b4       ?unset_flag@?$output_processor@DV?$stream_output_adapter@D@__crt_stdio_output@@V?$standard_base@DV?$stream_output_adapter@D@__crt_stdio_output@@@2@@__crt_stdio_output@@AEAAXI@Z 00000001400374b4 f i libucrt:output.obj
 0001:000364bc       ?unset_flag@?$output_processor@DV?$string_output_adapter@D@__crt_stdio_output@@V?$format_validation_base@DV?$string_output_adapter@D@__crt_stdio_output@@@2@@__crt_stdio_output@@AEAAXI@Z 00000001400374bc f i libucrt:output.obj
 0001:000364c4       ?unset_flag@?$output_processor@DV?$string_output_adapter@D@__crt_stdio_output@@V?$positional_parameter_base@DV?$string_output_adapter@D@__crt_stdio_output@@@2@@__crt_stdio_output@@AEAAXI@Z 00000001400374c4 f i libucrt:output.obj
 0001:000364cc       ?unset_flag@?$output_processor@DV?$string_output_adapter@D@__crt_stdio_output@@V?$standard_base@DV?$string_output_adapter@D@__crt_stdio_output@@@2@@__crt_stdio_output@@AEAAXI@Z 00000001400374cc f i libucrt:output.obj
 0001:000364d4       ?unset_flag@?$output_processor@_WV?$stream_output_adapter@_W@__crt_stdio_output@@V?$format_validation_base@_WV?$stream_output_adapter@_W@__crt_stdio_output@@@2@@__crt_stdio_output@@AEAAXI@Z 00000001400374d4 f i libucrt:output.obj
 0001:000364dc       ?unset_flag@?$output_processor@_WV?$stream_output_adapter@_W@__crt_stdio_output@@V?$positional_parameter_base@_WV?$stream_output_adapter@_W@__crt_stdio_output@@@2@@__crt_stdio_output@@AEAAXI@Z 00000001400374dc f i libucrt:output.obj
 0001:000364e4       ?unset_flag@?$output_processor@_WV?$stream_output_adapter@_W@__crt_stdio_output@@V?$standard_base@_WV?$stream_output_adapter@_W@__crt_stdio_output@@@2@@__crt_stdio_output@@AEAAXI@Z 00000001400374e4 f i libucrt:output.obj
 0001:000364ec       ?unset_flag@?$output_processor@_WV?$string_output_adapter@_W@__crt_stdio_output@@V?$format_validation_base@_WV?$string_output_adapter@_W@__crt_stdio_output@@@2@@__crt_stdio_output@@AEAAXI@Z 00000001400374ec f i libucrt:output.obj
 0001:000364f4       ?unset_flag@?$output_processor@_WV?$string_output_adapter@_W@__crt_stdio_output@@V?$positional_parameter_base@_WV?$string_output_adapter@_W@__crt_stdio_output@@@2@@__crt_stdio_output@@AEAAXI@Z 00000001400374f4 f i libucrt:output.obj
 0001:000364fc       ?unset_flag@?$output_processor@_WV?$string_output_adapter@_W@__crt_stdio_output@@V?$standard_base@_WV?$string_output_adapter@_W@__crt_stdio_output@@@2@@__crt_stdio_output@@AEAAXI@Z 00000001400374fc f i libucrt:output.obj
 0001:00036504       ?update_field_width@?$positional_parameter_base@DV?$stream_output_adapter@D@__crt_stdio_output@@@__crt_stdio_output@@IEAA_NXZ 0000000140037504 f i libucrt:output.obj
 0001:00036660       ?update_field_width@?$positional_parameter_base@DV?$string_output_adapter@D@__crt_stdio_output@@@__crt_stdio_output@@IEAA_NXZ 0000000140037660 f i libucrt:output.obj
 0001:000367bc       ?update_field_width@?$positional_parameter_base@_WV?$stream_output_adapter@_W@__crt_stdio_output@@@__crt_stdio_output@@IEAA_NXZ 00000001400377bc f i libucrt:output.obj
 0001:0003691c       ?update_field_width@?$positional_parameter_base@_WV?$string_output_adapter@_W@__crt_stdio_output@@@__crt_stdio_output@@IEAA_NXZ 000000014003791c f i libucrt:output.obj
 0001:00036a7c       ?update_field_width@?$standard_base@DV?$stream_output_adapter@D@__crt_stdio_output@@@__crt_stdio_output@@IEAA_NXZ 0000000140037a7c f i libucrt:output.obj
 0001:00036a94       ?update_field_width@?$standard_base@DV?$string_output_adapter@D@__crt_stdio_output@@@__crt_stdio_output@@IEAA_NXZ 0000000140037a94 f i libucrt:output.obj
 0001:00036aac       ?update_field_width@?$standard_base@_WV?$stream_output_adapter@_W@__crt_stdio_output@@@__crt_stdio_output@@IEAA_NXZ 0000000140037aac f i libucrt:output.obj
 0001:00036ac4       ?update_field_width@?$standard_base@_WV?$string_output_adapter@_W@__crt_stdio_output@@@__crt_stdio_output@@IEAA_NXZ 0000000140037ac4 f i libucrt:output.obj
 0001:00036adc       ?update_precision@?$positional_parameter_base@DV?$stream_output_adapter@D@__crt_stdio_output@@@__crt_stdio_output@@IEAA_NXZ 0000000140037adc f i libucrt:output.obj
 0001:00036c38       ?update_precision@?$positional_parameter_base@DV?$string_output_adapter@D@__crt_stdio_output@@@__crt_stdio_output@@IEAA_NXZ 0000000140037c38 f i libucrt:output.obj
 0001:00036d94       ?update_precision@?$positional_parameter_base@_WV?$stream_output_adapter@_W@__crt_stdio_output@@@__crt_stdio_output@@IEAA_NXZ 0000000140037d94 f i libucrt:output.obj
 0001:00036ef4       ?update_precision@?$positional_parameter_base@_WV?$string_output_adapter@_W@__crt_stdio_output@@@__crt_stdio_output@@IEAA_NXZ 0000000140037ef4 f i libucrt:output.obj
 0001:00037054       ?update_precision@?$standard_base@DV?$stream_output_adapter@D@__crt_stdio_output@@@__crt_stdio_output@@IEAA_NXZ 0000000140038054 f i libucrt:output.obj
 0001:0003706c       ?update_precision@?$standard_base@DV?$string_output_adapter@D@__crt_stdio_output@@@__crt_stdio_output@@IEAA_NXZ 000000014003806c f i libucrt:output.obj
 0001:00037084       ?update_precision@?$standard_base@_WV?$stream_output_adapter@_W@__crt_stdio_output@@@__crt_stdio_output@@IEAA_NXZ 0000000140038084 f i libucrt:output.obj
 0001:0003709c       ?update_precision@?$standard_base@_WV?$string_output_adapter@_W@__crt_stdio_output@@@__crt_stdio_output@@IEAA_NXZ 000000014003809c f i libucrt:output.obj
 0001:000370b4       ?validate@?$stream_output_adapter@D@__crt_stdio_output@@QEBA_NXZ 00000001400380b4 f i libucrt:output.obj
 0001:000370ec       ?validate@?$stream_output_adapter@_W@__crt_stdio_output@@QEBA_NXZ 00000001400380ec f i libucrt:output.obj
 0001:0003711c       ?validate@?$string_output_adapter@D@__crt_stdio_output@@QEBA_NXZ 000000014003811c f i libucrt:output.obj
 0001:0003714c       ?validate@?$string_output_adapter@_W@__crt_stdio_output@@QEBA_NXZ 000000014003814c f i libucrt:output.obj
 0001:0003717c       ?validate_and_store_parameter_data@?$positional_parameter_base@DV?$stream_output_adapter@D@__crt_stdio_output@@@__crt_stdio_output@@AEAA_NAEAUparameter_data@12@W4parameter_type@12@DW4length_modifier@2@@Z 000000014003817c f i libucrt:output.obj
 0001:000371cc       ?validate_and_store_parameter_data@?$positional_parameter_base@DV?$string_output_adapter@D@__crt_stdio_output@@@__crt_stdio_output@@AEAA_NAEAUparameter_data@12@W4parameter_type@12@DW4length_modifier@2@@Z 00000001400381cc f i libucrt:output.obj
 0001:0003721c       ?validate_and_store_parameter_data@?$positional_parameter_base@_WV?$stream_output_adapter@_W@__crt_stdio_output@@@__crt_stdio_output@@AEAA_NAEAUparameter_data@12@W4parameter_type@12@_WW4length_modifier@2@@Z 000000014003821c f i libucrt:output.obj
 0001:0003726c       ?validate_and_store_parameter_data@?$positional_parameter_base@_WV?$string_output_adapter@_W@__crt_stdio_output@@@__crt_stdio_output@@AEAA_NAEAUparameter_data@12@W4parameter_type@12@_WW4length_modifier@2@@Z 000000014003826c f i libucrt:output.obj
 0001:000372bc       ?validate_and_update_state_at_beginning_of_format_character@?$positional_parameter_base@DV?$stream_output_adapter@D@__crt_stdio_output@@@__crt_stdio_output@@IEAA_NXZ 00000001400382bc f i libucrt:output.obj
 0001:0003740c       ?validate_and_update_state_at_beginning_of_format_character@?$positional_parameter_base@DV?$string_output_adapter@D@__crt_stdio_output@@@__crt_stdio_output@@IEAA_NXZ 000000014003840c f i libucrt:output.obj
 0001:0003755c       ?validate_and_update_state_at_beginning_of_format_character@?$positional_parameter_base@_WV?$stream_output_adapter@_W@__crt_stdio_output@@@__crt_stdio_output@@IEAA_NXZ 000000014003855c f i libucrt:output.obj
 0001:000376b8       ?validate_and_update_state_at_beginning_of_format_character@?$positional_parameter_base@_WV?$string_output_adapter@_W@__crt_stdio_output@@@__crt_stdio_output@@IEAA_NXZ 00000001400386b8 f i libucrt:output.obj
 0001:00037814       ?validate_and_update_state_at_beginning_of_format_character@?$standard_base@DV?$stream_output_adapter@D@__crt_stdio_output@@@__crt_stdio_output@@IEAA_NXZ 0000000140038814 f i libucrt:output.obj
 0001:00037818       ?validate_and_update_state_at_beginning_of_format_character@?$standard_base@DV?$string_output_adapter@D@__crt_stdio_output@@@__crt_stdio_output@@IEAA_NXZ 0000000140038818 f i libucrt:output.obj
 0001:0003781c       ?validate_and_update_state_at_beginning_of_format_character@?$standard_base@_WV?$stream_output_adapter@_W@__crt_stdio_output@@@__crt_stdio_output@@IEAA_NXZ 000000014003881c f i libucrt:output.obj
 0001:00037820       ?validate_and_update_state_at_beginning_of_format_character@?$standard_base@_WV?$string_output_adapter@_W@__crt_stdio_output@@@__crt_stdio_output@@IEAA_NXZ 0000000140038820 f i libucrt:output.obj
 0001:00037824       ?validate_and_update_state_at_end_of_format_string@?$format_validation_base@DV?$stream_output_adapter@D@__crt_stdio_output@@@__crt_stdio_output@@IEBA_NXZ 0000000140038824 f i libucrt:output.obj
 0001:0003785c       ?validate_and_update_state_at_end_of_format_string@?$format_validation_base@DV?$string_output_adapter@D@__crt_stdio_output@@@__crt_stdio_output@@IEBA_NXZ 000000014003885c f i libucrt:output.obj
 0001:00037894       ?validate_and_update_state_at_end_of_format_string@?$format_validation_base@_WV?$stream_output_adapter@_W@__crt_stdio_output@@@__crt_stdio_output@@IEBA_NXZ 0000000140038894 f i libucrt:output.obj
 0001:000378cc       ?validate_and_update_state_at_end_of_format_string@?$format_validation_base@_WV?$string_output_adapter@_W@__crt_stdio_output@@@__crt_stdio_output@@IEBA_NXZ 00000001400388cc f i libucrt:output.obj
 0001:00037904       ?validate_and_update_state_at_end_of_format_string@?$positional_parameter_base@DV?$stream_output_adapter@D@__crt_stdio_output@@@__crt_stdio_output@@IEAA_NXZ 0000000140038904 f i libucrt:output.obj
 0001:000379c8       ?validate_and_update_state_at_end_of_format_string@?$positional_parameter_base@DV?$string_output_adapter@D@__crt_stdio_output@@@__crt_stdio_output@@IEAA_NXZ 00000001400389c8 f i libucrt:output.obj
 0001:00037a8c       ?validate_and_update_state_at_end_of_format_string@?$positional_parameter_base@_WV?$stream_output_adapter@_W@__crt_stdio_output@@@__crt_stdio_output@@IEAA_NXZ 0000000140038a8c f i libucrt:output.obj
 0001:00037b50       ?validate_and_update_state_at_end_of_format_string@?$positional_parameter_base@_WV?$string_output_adapter@_W@__crt_stdio_output@@@__crt_stdio_output@@IEAA_NXZ 0000000140038b50 f i libucrt:output.obj
 0001:00037c14       ?validate_and_update_state_at_end_of_format_string@?$standard_base@DV?$stream_output_adapter@D@__crt_stdio_output@@@__crt_stdio_output@@IEBA_NXZ 0000000140038c14 f i libucrt:output.obj
 0001:00037c18       ?validate_and_update_state_at_end_of_format_string@?$standard_base@DV?$string_output_adapter@D@__crt_stdio_output@@@__crt_stdio_output@@IEBA_NXZ 0000000140038c18 f i libucrt:output.obj
 0001:00037c1c       ?validate_and_update_state_at_end_of_format_string@?$standard_base@_WV?$stream_output_adapter@_W@__crt_stdio_output@@@__crt_stdio_output@@IEBA_NXZ 0000000140038c1c f i libucrt:output.obj
 0001:00037c20       ?validate_and_update_state_at_end_of_format_string@?$standard_base@_WV?$string_output_adapter@_W@__crt_stdio_output@@@__crt_stdio_output@@IEBA_NXZ 0000000140038c20 f i libucrt:output.obj
 0001:00037c24       ?validate_state_for_type_case_a@?$positional_parameter_base@DV?$stream_output_adapter@D@__crt_stdio_output@@@__crt_stdio_output@@IEAA_NXZ 0000000140038c24 f i libucrt:output.obj
 0001:00037ce8       ?validate_state_for_type_case_a@?$positional_parameter_base@DV?$string_output_adapter@D@__crt_stdio_output@@@__crt_stdio_output@@IEAA_NXZ 0000000140038ce8 f i libucrt:output.obj
 0001:00037dac       ?validate_state_for_type_case_a@?$positional_parameter_base@_WV?$stream_output_adapter@_W@__crt_stdio_output@@@__crt_stdio_output@@IEAA_NXZ 0000000140038dac f i libucrt:output.obj
 0001:00037e70       ?validate_state_for_type_case_a@?$positional_parameter_base@_WV?$string_output_adapter@_W@__crt_stdio_output@@@__crt_stdio_output@@IEAA_NXZ 0000000140038e70 f i libucrt:output.obj
 0001:00037f34       ?validate_state_for_type_case_a@?$standard_base@DV?$stream_output_adapter@D@__crt_stdio_output@@@__crt_stdio_output@@IEBA_NXZ 0000000140038f34 f i libucrt:output.obj
 0001:00037f38       ?validate_state_for_type_case_a@?$standard_base@DV?$string_output_adapter@D@__crt_stdio_output@@@__crt_stdio_output@@IEBA_NXZ 0000000140038f38 f i libucrt:output.obj
 0001:00037f3c       ?validate_state_for_type_case_a@?$standard_base@_WV?$stream_output_adapter@_W@__crt_stdio_output@@@__crt_stdio_output@@IEBA_NXZ 0000000140038f3c f i libucrt:output.obj
 0001:00037f40       ?validate_state_for_type_case_a@?$standard_base@_WV?$string_output_adapter@_W@__crt_stdio_output@@@__crt_stdio_output@@IEBA_NXZ 0000000140038f40 f i libucrt:output.obj
 0001:00037f44       ?wide_null_string@?$output_processor@DV?$stream_output_adapter@D@__crt_stdio_output@@V?$format_validation_base@DV?$stream_output_adapter@D@__crt_stdio_output@@@2@@__crt_stdio_output@@CAPEA_WXZ 0000000140038f44 f i libucrt:output.obj
 0001:00037f50       ?wide_null_string@?$output_processor@DV?$stream_output_adapter@D@__crt_stdio_output@@V?$positional_parameter_base@DV?$stream_output_adapter@D@__crt_stdio_output@@@2@@__crt_stdio_output@@CAPEA_WXZ 0000000140038f50 f i libucrt:output.obj
 0001:00037f5c       ?wide_null_string@?$output_processor@DV?$stream_output_adapter@D@__crt_stdio_output@@V?$standard_base@DV?$stream_output_adapter@D@__crt_stdio_output@@@2@@__crt_stdio_output@@CAPEA_WXZ 0000000140038f5c f i libucrt:output.obj
 0001:00037f68       ?wide_null_string@?$output_processor@DV?$string_output_adapter@D@__crt_stdio_output@@V?$format_validation_base@DV?$string_output_adapter@D@__crt_stdio_output@@@2@@__crt_stdio_output@@CAPEA_WXZ 0000000140038f68 f i libucrt:output.obj
 0001:00037f74       ?wide_null_string@?$output_processor@DV?$string_output_adapter@D@__crt_stdio_output@@V?$positional_parameter_base@DV?$string_output_adapter@D@__crt_stdio_output@@@2@@__crt_stdio_output@@CAPEA_WXZ 0000000140038f74 f i libucrt:output.obj
 0001:00037f80       ?wide_null_string@?$output_processor@DV?$string_output_adapter@D@__crt_stdio_output@@V?$standard_base@DV?$string_output_adapter@D@__crt_stdio_output@@@2@@__crt_stdio_output@@CAPEA_WXZ 0000000140038f80 f i libucrt:output.obj
 0001:00037f8c       ?wide_null_string@?$output_processor@_WV?$stream_output_adapter@_W@__crt_stdio_output@@V?$format_validation_base@_WV?$stream_output_adapter@_W@__crt_stdio_output@@@2@@__crt_stdio_output@@CAPEA_WXZ 0000000140038f8c f i libucrt:output.obj
 0001:00037f98       ?wide_null_string@?$output_processor@_WV?$stream_output_adapter@_W@__crt_stdio_output@@V?$positional_parameter_base@_WV?$stream_output_adapter@_W@__crt_stdio_output@@@2@@__crt_stdio_output@@CAPEA_WXZ 0000000140038f98 f i libucrt:output.obj
 0001:00037fa4       ?wide_null_string@?$output_processor@_WV?$stream_output_adapter@_W@__crt_stdio_output@@V?$standard_base@_WV?$stream_output_adapter@_W@__crt_stdio_output@@@2@@__crt_stdio_output@@CAPEA_WXZ 0000000140038fa4 f i libucrt:output.obj
 0001:00037fb0       ?wide_null_string@?$output_processor@_WV?$string_output_adapter@_W@__crt_stdio_output@@V?$format_validation_base@_WV?$string_output_adapter@_W@__crt_stdio_output@@@2@@__crt_stdio_output@@CAPEA_WXZ 0000000140038fb0 f i libucrt:output.obj
 0001:00037fbc       ?wide_null_string@?$output_processor@_WV?$string_output_adapter@_W@__crt_stdio_output@@V?$positional_parameter_base@_WV?$string_output_adapter@_W@__crt_stdio_output@@@2@@__crt_stdio_output@@CAPEA_WXZ 0000000140038fbc f i libucrt:output.obj
 0001:00037fc8       ?wide_null_string@?$output_processor@_WV?$string_output_adapter@_W@__crt_stdio_output@@V?$standard_base@_WV?$string_output_adapter@_W@__crt_stdio_output@@@2@@__crt_stdio_output@@CAPEA_WXZ 0000000140038fc8 f i libucrt:output.obj
 0001:00037fd4       ?write_character@?$output_adapter_common@DV?$stream_output_adapter@D@__crt_stdio_output@@@__crt_stdio_output@@QEBAXDQEAH@Z 0000000140038fd4 f i libucrt:output.obj
 0001:00038030       ?write_character@?$output_adapter_common@_WV?$stream_output_adapter@_W@__crt_stdio_output@@@__crt_stdio_output@@QEBAX_WQEAH@Z 0000000140039030 f i libucrt:output.obj
 0001:00038090       ?write_character@?$string_output_adapter@D@__crt_stdio_output@@QEBA_NDQEAH@Z 0000000140039090 f i libucrt:output.obj
 0001:000380e8       ?write_character@?$string_output_adapter@_W@__crt_stdio_output@@QEBA_N_WQEAH@Z 00000001400390e8 f i libucrt:output.obj
 0001:00038144       ?write_character_without_count_update@?$stream_output_adapter@D@__crt_stdio_output@@QEBA_ND@Z 0000000140039144 f i libucrt:output.obj
 0001:00038190       ?write_character_without_count_update@?$stream_output_adapter@_W@__crt_stdio_output@@QEBA_N_W@Z 0000000140039190 f i libucrt:output.obj
 0001:000381e0       ?write_stored_string_tchar@?$output_processor@DV?$stream_output_adapter@D@__crt_stdio_output@@V?$format_validation_base@DV?$stream_output_adapter@D@__crt_stdio_output@@@2@@__crt_stdio_output@@AEAA_ND@Z 00000001400391e0 f i libucrt:output.obj
 0001:0003834c       ?write_stored_string_tchar@?$output_processor@DV?$stream_output_adapter@D@__crt_stdio_output@@V?$positional_parameter_base@DV?$stream_output_adapter@D@__crt_stdio_output@@@2@@__crt_stdio_output@@AEAA_ND@Z 000000014003934c f i libucrt:output.obj
 0001:000384b8       ?write_stored_string_tchar@?$output_processor@DV?$stream_output_adapter@D@__crt_stdio_output@@V?$standard_base@DV?$stream_output_adapter@D@__crt_stdio_output@@@2@@__crt_stdio_output@@AEAA_ND@Z 00000001400394b8 f i libucrt:output.obj
 0001:00038624       ?write_stored_string_tchar@?$output_processor@DV?$string_output_adapter@D@__crt_stdio_output@@V?$format_validation_base@DV?$string_output_adapter@D@__crt_stdio_output@@@2@@__crt_stdio_output@@AEAA_ND@Z 0000000140039624 f i libucrt:output.obj
 0001:00038734       ?write_stored_string_tchar@?$output_processor@DV?$string_output_adapter@D@__crt_stdio_output@@V?$positional_parameter_base@DV?$string_output_adapter@D@__crt_stdio_output@@@2@@__crt_stdio_output@@AEAA_ND@Z 0000000140039734 f i libucrt:output.obj
 0001:00038844       ?write_stored_string_tchar@?$output_processor@DV?$string_output_adapter@D@__crt_stdio_output@@V?$standard_base@DV?$string_output_adapter@D@__crt_stdio_output@@@2@@__crt_stdio_output@@AEAA_ND@Z 0000000140039844 f i libucrt:output.obj
 0001:00038954       ?write_stored_string_tchar@?$output_processor@_WV?$stream_output_adapter@_W@__crt_stdio_output@@V?$format_validation_base@_WV?$stream_output_adapter@_W@__crt_stdio_output@@@2@@__crt_stdio_output@@AEAA_N_W@Z 0000000140039954 f i libucrt:output.obj
 0001:00038a98       ?write_stored_string_tchar@?$output_processor@_WV?$stream_output_adapter@_W@__crt_stdio_output@@V?$positional_parameter_base@_WV?$stream_output_adapter@_W@__crt_stdio_output@@@2@@__crt_stdio_output@@AEAA_N_W@Z 0000000140039a98 f i libucrt:output.obj
 0001:00038bdc       ?write_stored_string_tchar@?$output_processor@_WV?$stream_output_adapter@_W@__crt_stdio_output@@V?$standard_base@_WV?$stream_output_adapter@_W@__crt_stdio_output@@@2@@__crt_stdio_output@@AEAA_N_W@Z 0000000140039bdc f i libucrt:output.obj
 0001:00038d20       ?write_stored_string_tchar@?$output_processor@_WV?$string_output_adapter@_W@__crt_stdio_output@@V?$format_validation_base@_WV?$string_output_adapter@_W@__crt_stdio_output@@@2@@__crt_stdio_output@@AEAA_N_W@Z 0000000140039d20 f i libucrt:output.obj
 0001:00038e40       ?write_stored_string_tchar@?$output_processor@_WV?$string_output_adapter@_W@__crt_stdio_output@@V?$positional_parameter_base@_WV?$string_output_adapter@_W@__crt_stdio_output@@@2@@__crt_stdio_output@@AEAA_N_W@Z 0000000140039e40 f i libucrt:output.obj
 0001:00038f60       ?write_stored_string_tchar@?$output_processor@_WV?$string_output_adapter@_W@__crt_stdio_output@@V?$standard_base@_WV?$string_output_adapter@_W@__crt_stdio_output@@@2@@__crt_stdio_output@@AEAA_N_W@Z 0000000140039f60 f i libucrt:output.obj
 0001:00039080       ?write_string@?$stream_output_adapter@D@__crt_stdio_output@@QEBAXQEBDHQEAHAEAV__crt_deferred_errno_cache@@@Z 000000014003a080 f i libucrt:output.obj
 0001:000390b0       ?write_string@?$stream_output_adapter@_W@__crt_stdio_output@@QEBAXQEB_WHQEAHAEAV__crt_deferred_errno_cache@@@Z 000000014003a0b0 f i libucrt:output.obj
 0001:000390e0       ?write_string@?$string_output_adapter@D@__crt_stdio_output@@QEBAXQEBDHQEAHAEAV__crt_deferred_errno_cache@@@Z 000000014003a0e0 f i libucrt:output.obj
 0001:000391ac       ?write_string@?$string_output_adapter@_W@__crt_stdio_output@@QEBAXQEB_WHQEAHAEAV__crt_deferred_errno_cache@@@Z 000000014003a1ac f i libucrt:output.obj
 0001:0003927c       ?write_string_impl@?$output_adapter_common@DV?$stream_output_adapter@D@__crt_stdio_output@@@__crt_stdio_output@@IEBAXQEBDHQEAHAEAV__crt_deferred_errno_cache@@@Z 000000014003a27c f i libucrt:output.obj
 0001:000393b0       ?write_string_impl@?$output_adapter_common@_WV?$stream_output_adapter@_W@__crt_stdio_output@@@__crt_stdio_output@@IEBAXQEB_WHQEAHAEAV__crt_deferred_errno_cache@@@Z 000000014003a3b0 f i libucrt:output.obj
 0001:000394f0       __acrt_disable_global_locale_sync 000000014003a4f0 f i libucrt:output.obj
 0001:000394f8       __acrt_enable_global_locale_sync 000000014003a4f8 f i libucrt:output.obj
 0001:00039504       __acrt_isleadbyte_l_noupdate 000000014003a504 f i libucrt:output.obj
 0001:00039530       __acrt_locale_changed      000000014003a530 f i libucrt:output.obj
 0001:00039540       __acrt_locale_get_ctype_array_value 000000014003a540 f i libucrt:output.obj
 0001:00039560       __stdio_common_vfprintf    000000014003a560 f   libucrt:output.obj
 0001:00039610       __stdio_common_vfprintf_p  000000014003a610 f   libucrt:output.obj
 0001:000396c0       __stdio_common_vfprintf_s  000000014003a6c0 f   libucrt:output.obj
 0001:00039770       __stdio_common_vfwprintf   000000014003a770 f   libucrt:output.obj
 0001:00039820       __stdio_common_vfwprintf_p 000000014003a820 f   libucrt:output.obj
 0001:000398d0       __stdio_common_vfwprintf_s 000000014003a8d0 f   libucrt:output.obj
 0001:00039980       __stdio_common_vsnprintf_s 000000014003a980 f   libucrt:output.obj
 0001:00039b1c       __stdio_common_vsnwprintf_s 000000014003ab1c f   libucrt:output.obj
 0001:00039ccc       __stdio_common_vsprintf    000000014003accc f   libucrt:output.obj
 0001:00039cd4       __stdio_common_vsprintf_p  000000014003acd4 f   libucrt:output.obj
 0001:00039cdc       __stdio_common_vsprintf_s  000000014003acdc f   libucrt:output.obj
 0001:00039d58       __stdio_common_vswprintf   000000014003ad58 f   libucrt:output.obj
 0001:00039d60       __stdio_common_vswprintf_p 000000014003ad60 f   libucrt:output.obj
 0001:00039d68       __stdio_common_vswprintf_s 000000014003ad68 f   libucrt:output.obj
 0001:00039df4       _ctype_fast_check_internal 000000014003adf4 f i libucrt:output.obj
 0001:00039e0c       _isdigit_fast_internal     000000014003ae0c f i libucrt:output.obj
 0001:00039e28       _tolower_fast_internal     000000014003ae28 f i libucrt:output.obj
 0001:00039e40       free                       000000014003ae40 f   libucrt:free.obj
 0001:00039e58       malloc                     000000014003ae58 f   libucrt:malloc.obj
 0001:00039e60       ??$?B$$A6AXPEAXK0@Z@__crt_fast_encoded_nullptr_t@@QEBAP6AXPEAXK0@ZXZ 000000014003ae60 f i libucrt:exit.obj
 0001:00039ee4       ??$__crt_fast_decode_pointer@P6AXPEAXK0@Z@@YAP6AXPEAXK0@ZQ6AX0K0@Z@Z 000000014003aee4 f i libucrt:exit.obj
 0001:00039f00       ??$__crt_fast_encode_pointer@P6AXPEAXK0@Z@@YAP6AXPEAXK0@ZQ6AX0K0@Z@Z 000000014003af00 f i libucrt:exit.obj
 0001:00039f28       ??$__crt_get_proc_address@P6AXI@Z@@YAP6AXI@ZQEAUHINSTANCE__@@QEBD@Z 000000014003af28 f i libucrt:exit.obj
 0001:00039f5c       ??0?$__crt_unique_handle_t@U__crt_hmodule_traits@@@@QEAA@QEAUHINSTANCE__@@@Z 000000014003af5c f i libucrt:exit.obj
 0001:00039f64       ??1?$__crt_unique_handle_t@U__crt_hmodule_traits@@@@QEAA@XZ 000000014003af64 f i libucrt:exit.obj
 0001:0003a094       ?__acrt_select_exit_lock@@YA?AW4__acrt_lock_id@@XZ 000000014003b094 f i libucrt:exit.obj
 0001:0003a09c       ?__crt_fast_encode_pointer@@YA?AU__crt_fast_encoded_nullptr_t@@$$T@Z 000000014003b09c f i libucrt:exit.obj
 0001:0003a0a4       ?__crt_rotate_pointer_value@@YA_K_KH@Z 000000014003b0a4 f i libucrt:exit.obj
 0001:0003a0c0       ?close@?$__crt_unique_handle_t@U__crt_hmodule_traits@@@@QEAAXXZ 000000014003b0c0 f i libucrt:exit.obj
 0001:0003a0ec       ?close@__crt_hmodule_traits@@SA_NPEAUHINSTANCE__@@@Z 000000014003b0ec f i libucrt:exit.obj
 0001:0003a250       ?get@?$__crt_unique_handle_t@U__crt_hmodule_traits@@@@QEBAPEAUHINSTANCE__@@XZ 000000014003b250 f i libucrt:exit.obj
 0001:0003a254       ?get_address_of@?$__crt_unique_handle_t@U__crt_hmodule_traits@@@@QEAAPEAPEAUHINSTANCE__@@XZ 000000014003b254 f i libucrt:exit.obj
 0001:0003a258       ?get_invalid_value@__crt_hmodule_traits@@SAPEAUHINSTANCE__@@XZ 000000014003b258 f i libucrt:exit.obj
 0001:0003a374       _Exit                      000000014003b374 f   libucrt:exit.obj
 0001:0003a384       __acrt_initialize_thread_local_exit_callback 000000014003b384 f   libucrt:exit.obj
 0001:0003a390       _c_exit                    000000014003b390 f   libucrt:exit.obj
 0001:0003a3a4       _cexit                     000000014003b3a4 f   libucrt:exit.obj
 0001:0003a3b4       _exit                      000000014003b3b4 f   libucrt:exit.obj
 0001:0003a3c4       _is_c_termination_complete 000000014003b3c4 f   libucrt:exit.obj
 0001:0003a3cc       _register_thread_local_exe_atexit_callback 000000014003b3cc f   libucrt:exit.obj
 0001:0003a418       exit                       000000014003b418 f   libucrt:exit.obj
 0001:0003a424       quick_exit                 000000014003b424 f   libucrt:exit.obj
 0001:0003a450       strlen                     000000014003b450 f   libucrt:strlen.obj
 0001:0003a54c       _seh_filter_dll            000000014003b54c f   libucrt:exception_filter.obj
 0001:0003a564       _seh_filter_exe            000000014003b564 f   libucrt:exception_filter.obj
 0001:0003a854       __acrt_report_runtime_error 000000014003b854 f   libucrt:report_runtime_error.obj
 0001:0003aa08       _invoke_watson_if_error    000000014003ba08 f i libucrt:report_runtime_error.obj
 0001:0003aa48       _query_app_type            000000014003ba48 f   libucrt:report_runtime_error.obj
 0001:0003aa50       _set_app_type              000000014003ba50 f   libucrt:report_runtime_error.obj
 0001:0003aa58       ??$__crt_fast_decode_pointer@P6AHPEAU_exception@@@Z@@YAP6AHPEAU_exception@@@ZQ6AH0@Z@Z 000000014003ba58 f i libucrt:matherr.obj
 0001:0003aa74       ??$__crt_fast_encode_pointer@P6AHPEAU_exception@@@Z@@YAP6AHPEAU_exception@@@ZQ6AH0@Z@Z 000000014003ba74 f i libucrt:matherr.obj
 0001:0003aa9c       ?get_current_state_index@__crt_state_management@@YA_KXZ 000000014003ba9c f i libucrt:matherr.obj
 0001:0003aaa0       ?initialize@?$dual_state_global@P6AHPEAU_exception@@@Z@__crt_state_management@@QEAAXQ6AHPEAU_exception@@@Z@Z 000000014003baa0 f i libucrt:matherr.obj
 0001:0003aad0       ?value@?$dual_state_global@P6AHPEAU_exception@@@Z@__crt_state_management@@QEAAAEAP6AHPEAU_exception@@@ZXZ 000000014003bad0 f i libucrt:matherr.obj
 0001:0003aad4       __acrt_has_user_matherr    000000014003bad4 f   libucrt:matherr.obj
 0001:0003aaf8       __acrt_initialize_user_matherr 000000014003baf8 f   libucrt:matherr.obj
 0001:0003ab04       __acrt_invoke_user_matherr 000000014003bb04 f   libucrt:matherr.obj
 0001:0003ab40       __setusermatherr           000000014003bb40 f   libucrt:matherr.obj
 0001:0003ab70       ??$?RE@__crt_internal_free_policy@@QEBAXQEBE@Z 000000014003bb70 f i libucrt:argv_parsing.obj
 0001:0003ab7c       ??$?RPEAD@__crt_internal_free_policy@@QEBAXQEBQEAD@Z 000000014003bb7c f i libucrt:argv_parsing.obj
 0001:0003ab88       ??$?RPEA_W@__crt_internal_free_policy@@QEBAXQEBQEA_W@Z 000000014003bb88 f i libucrt:argv_parsing.obj
 0001:0003af38       ??$get_module_file_name@$$TAEAY0BAF@DH@?$__crt_char_traits@D@@SAK$$QEA$$TAEAY0BAF@D$$QEAH@Z 000000014003bf38 f i libucrt:argv_parsing.obj
 0001:0003af48       ??$get_module_file_name@$$TAEAY0BAF@_WH@?$__crt_char_traits@_W@@SAK$$QEA$$TAEAY0BAF@_W$$QEAH@Z 000000014003bf48 f i libucrt:argv_parsing.obj
 0001:0003b390       ??$set_program_name@PEAD@?$__crt_char_traits@D@@SAX$$QEAPEAD@Z 000000014003c390 f i libucrt:argv_parsing.obj
 0001:0003b3a0       ??$set_program_name@PEA_W@?$__crt_char_traits@_W@@SAX$$QEAPEA_W@Z 000000014003c3a0 f i libucrt:argv_parsing.obj
 0001:0003b3c0       ??0?$__crt_unique_heap_ptr@EU__crt_internal_free_policy@@@@QEAA@QEAE@Z 000000014003c3c0 f i libucrt:argv_parsing.obj
 0001:0003b3c8       ??0?$__crt_unique_heap_ptr@PEADU__crt_internal_free_policy@@@@QEAA@QEAPEAD@Z 000000014003c3c8 f i libucrt:argv_parsing.obj
 0001:0003b3d0       ??0?$__crt_unique_heap_ptr@PEA_WU__crt_internal_free_policy@@@@QEAA@QEAPEA_W@Z 000000014003c3d0 f i libucrt:argv_parsing.obj
 0001:0003b3d8       ??1?$__crt_unique_heap_ptr@EU__crt_internal_free_policy@@@@QEAA@XZ 000000014003c3d8 f i libucrt:argv_parsing.obj
 0001:0003b3fc       ??1?$__crt_unique_heap_ptr@PEADU__crt_internal_free_policy@@@@QEAA@XZ 000000014003c3fc f i libucrt:argv_parsing.obj
 0001:0003b420       ??1?$__crt_unique_heap_ptr@PEA_WU__crt_internal_free_policy@@@@QEAA@XZ 000000014003c420 f i libucrt:argv_parsing.obj
 0001:0003b444       ??B?$__crt_unique_heap_ptr@EU__crt_internal_free_policy@@@@QEBA_NXZ 000000014003c444 f i libucrt:argv_parsing.obj
 0001:0003b498       ?detach@?$__crt_unique_heap_ptr@EU__crt_internal_free_policy@@@@QEAAPEAEXZ 000000014003c498 f i libucrt:argv_parsing.obj
 0001:0003b4a4       ?detach@?$__crt_unique_heap_ptr@PEADU__crt_internal_free_policy@@@@QEAAPEAPEADXZ 000000014003c4a4 f i libucrt:argv_parsing.obj
 0001:0003b4b0       ?detach@?$__crt_unique_heap_ptr@PEA_WU__crt_internal_free_policy@@@@QEAAPEAPEA_WXZ 000000014003c4b0 f i libucrt:argv_parsing.obj
 0001:0003b4d8       ?get@?$__crt_unique_heap_ptr@EU__crt_internal_free_policy@@@@QEBAPEAEXZ 000000014003c4d8 f i libucrt:argv_parsing.obj
 0001:0003b4dc       ?get@?$__crt_unique_heap_ptr@PEADU__crt_internal_free_policy@@@@QEBAPEAPEADXZ 000000014003c4dc f i libucrt:argv_parsing.obj
 0001:0003b4e0       ?get@?$__crt_unique_heap_ptr@PEA_WU__crt_internal_free_policy@@@@QEBAPEAPEA_WXZ 000000014003c4e0 f i libucrt:argv_parsing.obj
 0001:0003b4e4       ?get_address_of@?$__crt_unique_heap_ptr@PEADU__crt_internal_free_policy@@@@QEAAPEAPEAPEADXZ 000000014003c4e4 f i libucrt:argv_parsing.obj
 0001:0003b4e8       ?get_address_of@?$__crt_unique_heap_ptr@PEA_WU__crt_internal_free_policy@@@@QEAAPEAPEAPEA_WXZ 000000014003c4e8 f i libucrt:argv_parsing.obj
 0001:0003b51c       ?is_valid@?$__crt_unique_heap_ptr@EU__crt_internal_free_policy@@@@QEBA_NXZ 000000014003c51c f i libucrt:argv_parsing.obj
 0001:0003b528       ?release@?$__crt_unique_heap_ptr@EU__crt_internal_free_policy@@@@QEAAXXZ 000000014003c528 f i libucrt:argv_parsing.obj
 0001:0003b54c       ?release@?$__crt_unique_heap_ptr@PEADU__crt_internal_free_policy@@@@QEAAXXZ 000000014003c54c f i libucrt:argv_parsing.obj
 0001:0003b570       ?release@?$__crt_unique_heap_ptr@PEA_WU__crt_internal_free_policy@@@@QEAAXXZ 000000014003c570 f i libucrt:argv_parsing.obj
 0001:0003b5b4       __acrt_allocate_buffer_for_argv 000000014003c5b4 f   libucrt:argv_parsing.obj
 0001:0003b628       _configure_narrow_argv     000000014003c628 f   libucrt:argv_parsing.obj
 0001:0003b810       _configure_wide_argv       000000014003c810 f   libucrt:argv_parsing.obj
 0001:0003b9f4       _set_pgmptr                000000014003c9f4 f i libucrt:argv_parsing.obj
 0001:0003ba00       _set_wpgmptr               000000014003ca00 f i libucrt:argv_parsing.obj
 0001:0003ba0c       ??$?R_W@__crt_internal_free_policy@@QEBAXQEB_W@Z 000000014003ca0c f i libucrt:environment_initialization.obj
 0001:0003c054       ??$get_environment_from_os@$$V@?$__crt_char_traits@D@@SAPEADXZ 000000014003d054 f i libucrt:environment_initialization.obj
 0001:0003c05c       ??$get_environment_from_os@$$V@?$__crt_char_traits@_W@@SAPEA_WXZ 000000014003d05c f i libucrt:environment_initialization.obj
 0001:0003c24c       ??$set_variable_in_environment_nolock@PEADH@?$__crt_char_traits@D@@SAH$$QEAPEAD$$QEAH@Z 000000014003d24c f i libucrt:environment_initialization.obj
 0001:0003c258       ??$set_variable_in_environment_nolock@PEA_WH@?$__crt_char_traits@_W@@SAH$$QEAPEA_W$$QEAH@Z 000000014003d258 f i libucrt:environment_initialization.obj
 0001:0003c264       ??$tcscpy_s@PEADAEB_KAEAPEAD@?$__crt_char_traits@D@@SAH$$QEAPEADAEB_KAEAPEAD@Z 000000014003d264 f i libucrt:environment_initialization.obj
 0001:0003c278       ??$tcscpy_s@PEA_WAEB_KAEAPEA_W@?$__crt_char_traits@_W@@SAH$$QEAPEA_WAEB_KAEAPEA_W@Z 000000014003d278 f i libucrt:environment_initialization.obj
 0001:0003c28c       ??$tcslen@AEAPEAD@?$__crt_char_traits@D@@SA_KAEAPEAD@Z 000000014003d28c f i libucrt:environment_initialization.obj
 0001:0003c2a4       ??$tcslen@AEAPEA_W@?$__crt_char_traits@_W@@SA_KAEAPEA_W@Z 000000014003d2a4 f i libucrt:environment_initialization.obj
 0001:0003c2bc       ??$uninitialize@A6AXAEAPEAPEAD@Z@?$dual_state_global@PEAPEAD@__crt_state_management@@QEAAXA6AXAEAPEAPEAD@Z@Z 000000014003d2bc f i libucrt:environment_initialization.obj
 0001:0003c310       ??$uninitialize@A6AXAEAPEAPEA_W@Z@?$dual_state_global@PEAPEA_W@__crt_state_management@@QEAAXA6AXAEAPEAPEA_W@Z@Z 000000014003d310 f i libucrt:environment_initialization.obj
 0001:0003c3a4       ??0?$__crt_unique_heap_ptr@_WU__crt_internal_free_policy@@@@QEAA@QEA_W@Z 000000014003d3a4 f i libucrt:environment_initialization.obj
 0001:0003c3ac       ??1?$__crt_unique_heap_ptr@_WU__crt_internal_free_policy@@@@QEAA@XZ 000000014003d3ac f i libucrt:environment_initialization.obj
 0001:0003c3d0       ??B?$__crt_unique_heap_ptr@PEADU__crt_internal_free_policy@@@@QEBA_NXZ 000000014003d3d0 f i libucrt:environment_initialization.obj
 0001:0003c3dc       ??B?$__crt_unique_heap_ptr@PEA_WU__crt_internal_free_policy@@@@QEBA_NXZ 000000014003d3dc f i libucrt:environment_initialization.obj
 0001:0003c3e8       ??B?$__crt_unique_heap_ptr@_WU__crt_internal_free_policy@@@@QEBA_NXZ 000000014003d3e8 f i libucrt:environment_initialization.obj
 0001:0003c3f4       ?__crt_compute_required_transform_buffer_count@@YA_KIQEBD@Z 000000014003d3f4 f i libucrt:environment_initialization.obj
 0001:0003c424       ?__crt_compute_required_transform_buffer_count@@YA_KIQEB_W@Z 000000014003d424 f i libucrt:environment_initialization.obj
 0001:0003c460       ?__crt_transform_string@@YA_KIQEBDQEA_W_K@Z 000000014003d460 f i libucrt:environment_initialization.obj
 0001:0003c48c       ?__crt_transform_string@@YA_KIQEB_WQEAD_K@Z 000000014003d48c f i libucrt:environment_initialization.obj
 0001:0003c4c8       ?detach@?$__crt_unique_heap_ptr@DU__crt_internal_free_policy@@@@QEAAPEADXZ 000000014003d4c8 f i libucrt:environment_initialization.obj
 0001:0003c4d4       ?detach@?$__crt_unique_heap_ptr@_WU__crt_internal_free_policy@@@@QEAAPEA_WXZ 000000014003d4d4 f i libucrt:environment_initialization.obj
 0001:0003c4e0       ?get@?$__crt_unique_heap_ptr@_WU__crt_internal_free_policy@@@@QEBAPEA_WXZ 000000014003d4e0 f i libucrt:environment_initialization.obj
 0001:0003c52c       ?initialize@?$dual_state_global@PEAPEAD@__crt_state_management@@QEAAXQEAPEAD@Z 000000014003d52c f i libucrt:environment_initialization.obj
 0001:0003c55c       ?initialize@?$dual_state_global@PEAPEA_W@__crt_state_management@@QEAAXQEAPEA_W@Z 000000014003d55c f i libucrt:environment_initialization.obj
 0001:0003c58c       ?is_valid@?$__crt_unique_heap_ptr@PEADU__crt_internal_free_policy@@@@QEBA_NXZ 000000014003d58c f i libucrt:environment_initialization.obj
 0001:0003c598       ?is_valid@?$__crt_unique_heap_ptr@PEA_WU__crt_internal_free_policy@@@@QEBA_NXZ 000000014003d598 f i libucrt:environment_initialization.obj
 0001:0003c5a4       ?is_valid@?$__crt_unique_heap_ptr@_WU__crt_internal_free_policy@@@@QEBA_NXZ 000000014003d5a4 f i libucrt:environment_initialization.obj
 0001:0003c5bc       ?release@?$__crt_unique_heap_ptr@_WU__crt_internal_free_policy@@@@QEAAXXZ 000000014003d5bc f i libucrt:environment_initialization.obj
 0001:0003c5e0       ?value@?$dual_state_global@PEAPEAD@__crt_state_management@@QEAAAEAPEAPEADXZ 000000014003d5e0 f i libucrt:environment_initialization.obj
 0001:0003c5e4       ?value@?$dual_state_global@PEAPEA_W@__crt_state_management@@QEAAAEAPEAPEA_WXZ 000000014003d5e4 f i libucrt:environment_initialization.obj
 0001:0003c5e8       __dcrt_get_or_create_narrow_environment_nolock 000000014003d5e8 f   libucrt:environment_initialization.obj
 0001:0003c634       __dcrt_get_or_create_wide_environment_nolock 000000014003d634 f   libucrt:environment_initialization.obj
 0001:0003c680       __dcrt_uninitialize_environments_nolock 000000014003d680 f   libucrt:environment_initialization.obj
 0001:0003c6c8       __p__environ               000000014003d6c8 f   libucrt:environment_initialization.obj
 0001:0003c6d4       __p__wenviron              000000014003d6d4 f   libucrt:environment_initialization.obj
 0001:0003c6e0       _get_initial_narrow_environment 000000014003d6e0 f   libucrt:environment_initialization.obj
 0001:0003c744       _get_initial_wide_environment 000000014003d744 f   libucrt:environment_initialization.obj
 0001:0003c7a8       _initialize_narrow_environment 000000014003d7a8 f   libucrt:environment_initialization.obj
 0001:0003c7b0       _initialize_wide_environment 000000014003d7b0 f   libucrt:environment_initialization.obj
 0001:0003c7b8       _initterm                  000000014003d7b8 f   libucrt:initterm.obj
 0001:0003c838       _initterm_e                000000014003d838 f   libucrt:initterm.obj
 0001:0003c884       ??$__crt_interlocked_read@H@@YAHPEDH@Z 000000014003d884 f i libucrt:setmode.obj
 0001:0003c888       ?value@?$dual_state_global@H@__crt_state_management@@QEAAAEAHXZ 000000014003d888 f i libucrt:setmode.obj
 0001:0003c88c       _get_fmode                 000000014003d88c f   libucrt:setmode.obj
 0001:0003c8c8       _set_fmode                 000000014003d8c8 f   libucrt:setmode.obj
 0001:0003c914       _setmode                   000000014003d914 f   libucrt:setmode.obj
 0001:0003ca58       _setmode_nolock            000000014003da58 f   libucrt:setmode.obj
 0001:0003cb70       __acrt_initialize_command_line 000000014003db70 f   libucrt:argv_data.obj
 0001:0003cba0       __acrt_uninitialize_command_line 000000014003dba0 f   libucrt:argv_data.obj
 0001:0003cba4       __p___argc                 000000014003dba4 f   libucrt:argv_data.obj
 0001:0003cbb0       __p___argv                 000000014003dbb0 f   libucrt:argv_data.obj
 0001:0003cbbc       __p___wargv                000000014003dbbc f   libucrt:argv_data.obj
 0001:0003cbc8       __p__acmdln                000000014003dbc8 f   libucrt:argv_data.obj
 0001:0003cbd4       __p__pgmptr                000000014003dbd4 f   libucrt:argv_data.obj
 0001:0003cbe0       __p__wcmdln                000000014003dbe0 f   libucrt:argv_data.obj
 0001:0003cbec       __p__wpgmptr               000000014003dbec f   libucrt:argv_data.obj
 0001:0003cbf8       _get_pgmptr                000000014003dbf8 f   libucrt:argv_data.obj
 0001:0003cc3c       _get_wpgmptr               000000014003dc3c f   libucrt:argv_data.obj
 0001:0003cc84       ??$?RU__crt_locale_data@@@__crt_internal_free_policy@@QEBAXQEBU__crt_locale_data@@@Z 000000014003dc84 f i libucrt:wsetlocale.obj
 0001:0003cc90       ??$?RU__crt_locale_pointers@@@__crt_internal_free_policy@@QEBAXQEBU__crt_locale_pointers@@@Z 000000014003dc90 f i libucrt:wsetlocale.obj
 0001:0003cc9c       ??$?RU__crt_multibyte_data@@@__crt_internal_free_policy@@QEBAXQEBU__crt_multibyte_data@@@Z 000000014003dc9c f i libucrt:wsetlocale.obj
 0001:0003d1a4       ??0?$__crt_unique_heap_ptr@U__crt_locale_data@@U__crt_internal_free_policy@@@@QEAA@QEAU__crt_locale_data@@@Z 000000014003e1a4 f i libucrt:wsetlocale.obj
 0001:0003d1ac       ??0?$__crt_unique_heap_ptr@U__crt_locale_pointers@@U__crt_internal_free_policy@@@@QEAA@QEAU__crt_locale_pointers@@@Z 000000014003e1ac f i libucrt:wsetlocale.obj
 0001:0003d1b4       ??0?$__crt_unique_heap_ptr@U__crt_multibyte_data@@U__crt_internal_free_policy@@@@QEAA@QEAU__crt_multibyte_data@@@Z 000000014003e1b4 f i libucrt:wsetlocale.obj
 0001:0003d1bc       ??0_expandlocale_locale_name_cache@@QEAA@QEA_W_KQEAU__crt_qualified_locale_data@@@Z 000000014003e1bc f i libucrt:wsetlocale.obj
 0001:0003d22c       ??1?$__crt_unique_heap_ptr@U__crt_locale_data@@U__crt_internal_free_policy@@@@QEAA@XZ 000000014003e22c f i libucrt:wsetlocale.obj
 0001:0003d250       ??1?$__crt_unique_heap_ptr@U__crt_locale_pointers@@U__crt_internal_free_policy@@@@QEAA@XZ 000000014003e250 f i libucrt:wsetlocale.obj
 0001:0003d274       ??1?$__crt_unique_heap_ptr@U__crt_multibyte_data@@U__crt_internal_free_policy@@@@QEAA@XZ 000000014003e274 f i libucrt:wsetlocale.obj
 0001:0003d298       ??1_expandlocale_locale_name_cache@@QEAA@XZ 000000014003e298 f i libucrt:wsetlocale.obj
 0001:0003d2f4       ??B?$__crt_unique_heap_ptr@U__crt_locale_data@@U__crt_internal_free_policy@@@@QEBA_NXZ 000000014003e2f4 f i libucrt:wsetlocale.obj
 0001:0003d300       ??B?$__crt_unique_heap_ptr@U__crt_locale_pointers@@U__crt_internal_free_policy@@@@QEBA_NXZ 000000014003e300 f i libucrt:wsetlocale.obj
 0001:0003d30c       ??B?$__crt_unique_heap_ptr@U__crt_multibyte_data@@U__crt_internal_free_policy@@@@QEBA_NXZ 000000014003e30c f i libucrt:wsetlocale.obj
 0001:0003d618       ?commit_locale_name@_expandlocale_locale_name_cache@@QEAAXQEB_W_K@Z 000000014003e618 f i libucrt:wsetlocale.obj
 0001:0003d6ac       ?commit_locale_name_cache_already_updated@_expandlocale_locale_name_cache@@QEAAXQEB_W_K@Z 000000014003e6ac f i libucrt:wsetlocale.obj
 0001:0003d6fc       ?detach@?$__crt_unique_heap_ptr@U__crt_locale_data@@U__crt_internal_free_policy@@@@QEAAPEAU__crt_locale_data@@XZ 000000014003e6fc f i libucrt:wsetlocale.obj
 0001:0003d708       ?detach@?$__crt_unique_heap_ptr@U__crt_locale_pointers@@U__crt_internal_free_policy@@@@QEAAPEAU__crt_locale_pointers@@XZ 000000014003e708 f i libucrt:wsetlocale.obj
 0001:0003d714       ?detach@?$__crt_unique_heap_ptr@U__crt_multibyte_data@@U__crt_internal_free_policy@@@@QEAAPEAU__crt_multibyte_data@@XZ 000000014003e714 f i libucrt:wsetlocale.obj
 0001:0003d720       ?get@?$__crt_unique_heap_ptr@U__crt_locale_data@@U__crt_internal_free_policy@@@@QEBAPEAU__crt_locale_data@@XZ 000000014003e720 f i libucrt:wsetlocale.obj
 0001:0003d724       ?get@?$__crt_unique_heap_ptr@U__crt_locale_pointers@@U__crt_internal_free_policy@@@@QEBAPEAU__crt_locale_pointers@@XZ 000000014003e724 f i libucrt:wsetlocale.obj
 0001:0003d728       ?get@?$__crt_unique_heap_ptr@U__crt_multibyte_data@@U__crt_internal_free_policy@@@@QEBAPEAU__crt_multibyte_data@@XZ 000000014003e728 f i libucrt:wsetlocale.obj
 0001:0003d72c       ?is_valid@?$__crt_unique_heap_ptr@U__crt_locale_data@@U__crt_internal_free_policy@@@@QEBA_NXZ 000000014003e72c f i libucrt:wsetlocale.obj
 0001:0003d738       ?is_valid@?$__crt_unique_heap_ptr@U__crt_locale_pointers@@U__crt_internal_free_policy@@@@QEBA_NXZ 000000014003e738 f i libucrt:wsetlocale.obj
 0001:0003d744       ?is_valid@?$__crt_unique_heap_ptr@U__crt_multibyte_data@@U__crt_internal_free_policy@@@@QEBA_NXZ 000000014003e744 f i libucrt:wsetlocale.obj
 0001:0003d750       ?release@?$__crt_unique_heap_ptr@U__crt_locale_data@@U__crt_internal_free_policy@@@@QEAAXXZ 000000014003e750 f i libucrt:wsetlocale.obj
 0001:0003d774       ?release@?$__crt_unique_heap_ptr@U__crt_locale_pointers@@U__crt_internal_free_policy@@@@QEAAXXZ 000000014003e774 f i libucrt:wsetlocale.obj
 0001:0003d798       ?release@?$__crt_unique_heap_ptr@U__crt_multibyte_data@@U__crt_internal_free_policy@@@@QEAAXXZ 000000014003e798 f i libucrt:wsetlocale.obj
 0001:0003d7bc       ?value@?$dual_state_global@PEAU__crt_locale_data@@@__crt_state_management@@QEAAAEAPEAU__crt_locale_data@@XZ 000000014003e7bc f i libucrt:wsetlocale.obj
 0001:0003d7c0       __acrt_copy_locale_name    000000014003e7c0 f   libucrt:wsetlocale.obj
 0001:0003d864       __acrt_set_locale_changed  000000014003e864 f   libucrt:wsetlocale.obj
 0001:0003d874       __acrt_uninitialize_locale 000000014003e874 f   libucrt:wsetlocale.obj
 0001:0003d8b0       __ascii_tolower            000000014003e8b0 f i libucrt:wsetlocale.obj
 0001:0003d8c4       __ascii_towlower           000000014003e8c4 f i libucrt:wsetlocale.obj
 0001:0003d8d4       __lc_lctowcs               000000014003e8d4 f   libucrt:wsetlocale.obj
 0001:0003d9a0       __lc_wcstolc               000000014003e9a0 f   libucrt:wsetlocale.obj
 0001:0003db60       _configthreadlocale        000000014003eb60 f   libucrt:wsetlocale.obj
 0001:0003dcd4       _create_locale             000000014003ecd4 f   libucrt:wsetlocale.obj
 0001:0003e304       _free_locale               000000014003f304 f   libucrt:wsetlocale.obj
 0001:0003e3d0       _get_current_locale        000000014003f3d0 f   libucrt:wsetlocale.obj
 0001:0003e4bc       _wcreate_locale            000000014003f4bc f   libucrt:wsetlocale.obj
 0001:0003e658       _wcscats                   000000014003f658 f   libucrt:wsetlocale.obj
 0001:0003e6d8       _wsetlocale                000000014003f6d8 f   libucrt:wsetlocale.obj
 0001:0003f89c       ?value@?$dual_state_global@J@__crt_state_management@@QEAAAEAJXZ 000000014004089c f i libucrt:new_mode.obj
 0001:0003f8a0       _query_new_mode            00000001400408a0 f   libucrt:new_mode.obj
 0001:0003f8a8       _set_new_mode              00000001400408a8 f   libucrt:new_mode.obj
 0001:0003f8e0       __p__commode               00000001400408e0 f   libucrt:ncommode.obj
 0001:0003f8ec       ??$?B$$A6AXXZ@__crt_fast_encoded_nullptr_t@@QEBAP6AXXZXZ 00000001400408ec f i libucrt:onexit.obj
 0001:0003f8f8       ??$?BP6AXXZ@__crt_fast_encoded_nullptr_t@@QEBAPEAP6AXXZXZ 00000001400408f8 f i libucrt:onexit.obj
 0001:0003f904       ??$?RP6AXXZ@__crt_internal_free_policy@@QEBAXQEBQ6AXXZ@Z 0000000140040904 f i libucrt:onexit.obj
 0001:0003fa08       ??$__crt_fast_decode_pointer@P6AXXZ@@YAP6AXXZQ6AXXZ@Z 0000000140040a08 f i libucrt:onexit.obj
 0001:0003fa24       ??$__crt_fast_decode_pointer@PEAP6AXXZ@@YAPEAP6AXXZQEAP6AXXZ@Z 0000000140040a24 f i libucrt:onexit.obj
 0001:0003fa40       ??$__crt_fast_encode_pointer@P6AHXZ@@YAP6AHXZQ6AHXZ@Z 0000000140040a40 f i libucrt:onexit.obj
 0001:0003fa68       ??$__crt_fast_encode_pointer@P6AXXZ@@YAP6AXXZQ6AXXZ@Z 0000000140040a68 f i libucrt:onexit.obj
 0001:0003fa90       ??$__crt_fast_encode_pointer@PEAP6AXXZ@@YAPEAP6AXXZQEAP6AXXZ@Z 0000000140040a90 f i libucrt:onexit.obj
 0001:0003fb00       ??0?$__crt_unique_heap_ptr@P6AXXZU__crt_internal_free_policy@@@@QEAA@QEAP6AXXZ@Z 0000000140040b00 f i libucrt:onexit.obj
 0001:0003fb08       ??1?$__crt_unique_heap_ptr@P6AXXZU__crt_internal_free_policy@@@@QEAA@XZ 0000000140040b08 f i libucrt:onexit.obj
 0001:0003fb2c       ??1scoped_global_state_reset@__crt_state_management@@QEAA@XZ 0000000140040b2c f i libucrt:onexit.obj
 0001:0003fec8       ?detach@?$__crt_unique_heap_ptr@P6AXXZU__crt_internal_free_policy@@@@QEAAPEAP6AXXZXZ 0000000140040ec8 f i libucrt:onexit.obj
 0001:0003fed4       ?release@?$__crt_unique_heap_ptr@P6AXXZU__crt_internal_free_policy@@@@QEAAXXZ 0000000140040ed4 f i libucrt:onexit.obj
 0001:0003fef8       _crt_at_quick_exit         0000000140040ef8 f   libucrt:onexit.obj
 0001:0003ff0c       _crt_atexit                0000000140040f0c f   libucrt:onexit.obj
 0001:0003ff20       _execute_onexit_table      0000000140040f20 f   libucrt:onexit.obj
 0001:0003ff68       _initialize_onexit_table   0000000140040f68 f   libucrt:onexit.obj
 0001:0003ff98       _register_onexit_function  0000000140040f98 f   libucrt:onexit.obj
 0001:00040178       ??$?BX@__crt_fast_encoded_nullptr_t@@QEBAPEAXXZ 0000000140041178 f i libucrt:initialization.obj
 0001:00040184       ??$__crt_fast_encode_pointer@PEAX@@YAPEAXQEAX@Z 0000000140041184 f i libucrt:initialization.obj
 0001:00040288       ?__acrt_stdio_is_initialized@@YA_NXZ 0000000140041288 f i libucrt:initialization.obj
 0001:00040298       ?initialize@?$dual_state_global@PEAU__crt_locale_data@@@__crt_state_management@@QEAAXQEAU__crt_locale_data@@@Z 0000000140041298 f i libucrt:initialization.obj
 0001:000402c8       __acrt_initialize          00000001400412c8 f   libucrt:initialization.obj
 0001:000402e0       __acrt_thread_attach       00000001400412e0 f   libucrt:initialization.obj
 0001:000402fc       __acrt_thread_detach       00000001400412fc f   libucrt:initialization.obj
 0001:00040310       __acrt_uninitialize        0000000140041310 f   libucrt:initialization.obj
 0001:00040354       __acrt_uninitialize_critical 0000000140041354 f   libucrt:initialization.obj
 0001:00040380       _get_terminate             0000000140041380 f   libucrt:terminate.obj
 0001:000403ac       set_terminate              00000001400413ac f   libucrt:terminate.obj
 0001:000403e4       terminate                  00000001400413e4 f   libucrt:terminate.obj
 0001:00040488       strcpy_s                   0000000140041488 f   libucrt:strcpy_s.obj
 0001:00040500       _set_abort_behavior        0000000140041500 f   libucrt:abort.obj
 0001:00040524       abort                      0000000140041524 f   libucrt:abort.obj
 0001:00040590       calloc                     0000000140041590 f   libucrt:calloc.obj
 0001:00040598       ??$is_overflow_condition@K@__crt_strtox@@YA_NIK@Z 0000000140041598 f i libucrt:atox.obj
 0001:000405c8       ??$is_overflow_condition@_K@__crt_strtox@@YA_NI_K@Z 00000001400415c8 f i libucrt:atox.obj
 0001:00040604       ??$make_c_string_character_source@D$$T@__crt_strtox@@YA?AV?$c_string_character_source@D@0@QEBD$$T@Z 0000000140041604 f i libucrt:atox.obj
 0001:0004061c       ??$make_c_string_character_source@_W$$T@__crt_strtox@@YA?AV?$c_string_character_source@_W@0@QEB_W$$T@Z 000000014004161c f i libucrt:atox.obj
 0001:00040634       ??$parse_integer@KV?$c_string_character_source@D@__crt_strtox@@@__crt_strtox@@YAKQEAU__crt_locale_pointers@@V?$c_string_character_source@D@0@H_N@Z 0000000140041634 f i libucrt:atox.obj
 0001:000409f8       ??$parse_integer@KV?$c_string_character_source@_W@__crt_strtox@@@__crt_strtox@@YAKQEAU__crt_locale_pointers@@V?$c_string_character_source@_W@0@H_N@Z 00000001400419f8 f i libucrt:atox.obj
 0001:00041248       ??$parse_integer@_KV?$c_string_character_source@D@__crt_strtox@@@__crt_strtox@@YA_KQEAU__crt_locale_pointers@@V?$c_string_character_source@D@0@H_N@Z 0000000140042248 f i libucrt:atox.obj
 0001:000415f0       ??$parse_integer@_KV?$c_string_character_source@_W@__crt_strtox@@@__crt_strtox@@YA_KQEAU__crt_locale_pointers@@V?$c_string_character_source@_W@0@H_N@Z 00000001400425f0 f i libucrt:atox.obj
 0001:00041f1c       ??$parse_integer_from_string@JD$$T@__crt_strtox@@YAJQEBD$$THQEAU__crt_locale_pointers@@@Z 0000000140042f1c f i libucrt:atox.obj
 0001:00041f58       ??$parse_integer_from_string@J_W$$T@__crt_strtox@@YAJQEB_W$$THQEAU__crt_locale_pointers@@@Z 0000000140042f58 f i libucrt:atox.obj
 0001:00041f94       ??$parse_integer_from_string@_JD$$T@__crt_strtox@@YA_JQEBD$$THQEAU__crt_locale_pointers@@@Z 0000000140042f94 f i libucrt:atox.obj
 0001:00041fd0       ??$parse_integer_from_string@_J_W$$T@__crt_strtox@@YA_JQEB_W$$THQEAU__crt_locale_pointers@@@Z 0000000140042fd0 f i libucrt:atox.obj
 0001:0004200c       ??0?$c_string_character_source@D@__crt_strtox@@QEAA@QEBDQEAPEBD@Z 000000014004300c f i libucrt:atox.obj
 0001:00042024       ??0?$c_string_character_source@_W@__crt_strtox@@QEAA@QEB_WQEAPEB_W@Z 0000000140043024 f i libucrt:atox.obj
 0001:0004203c       ??1?$c_string_character_source@D@__crt_strtox@@QEAA@XZ 000000014004303c f i libucrt:atox.obj
 0001:00042050       ??1?$c_string_character_source@_W@__crt_strtox@@QEAA@XZ 0000000140043050 f i libucrt:atox.obj
 0001:00042064       ?get@?$c_string_character_source@D@__crt_strtox@@QEAADXZ 0000000140043064 f i libucrt:atox.obj
 0001:00042074       ?get@?$c_string_character_source@_W@__crt_strtox@@QEAA_WXZ 0000000140043074 f i libucrt:atox.obj
 0001:00042088       ?is_space@__crt_strtox@@YA_NDQEAU__crt_locale_pointers@@@Z 0000000140043088 f i libucrt:atox.obj
 0001:000420b0       ?is_space@__crt_strtox@@YA_N_WPEAU__crt_locale_pointers@@@Z 00000001400430b0 f i libucrt:atox.obj
 0001:000420d0       ?maximum_signed_value@__crt_strtox@@YAJK@Z 00000001400430d0 f i libucrt:atox.obj
 0001:000420d8       ?maximum_signed_value@__crt_strtox@@YA_J_K@Z 00000001400430d8 f i libucrt:atox.obj
 0001:000420e8       ?minimum_signed_value@__crt_strtox@@YAJK@Z 00000001400430e8 f i libucrt:atox.obj
 0001:000420f0       ?minimum_signed_value@__crt_strtox@@YA_J_K@Z 00000001400430f0 f i libucrt:atox.obj
 0001:00042100       ?parse_digit@__crt_strtox@@YAID@Z 0000000140043100 f i libucrt:atox.obj
 0001:0004213c       ?parse_digit@__crt_strtox@@YAI_W@Z 000000014004313c f i libucrt:atox.obj
 0001:00042380       ?restore_state@?$c_string_character_source@D@__crt_strtox@@QEAA_NQEBD@Z 0000000140043380 f i libucrt:atox.obj
 0001:00042388       ?restore_state@?$c_string_character_source@_W@__crt_strtox@@QEAA_NQEB_W@Z 0000000140043388 f i libucrt:atox.obj
 0001:00042390       ?save_state@?$c_string_character_source@D@__crt_strtox@@QEBAPEBDXZ 0000000140043390 f i libucrt:atox.obj
 0001:00042394       ?save_state@?$c_string_character_source@_W@__crt_strtox@@QEBAPEB_WXZ 0000000140043394 f i libucrt:atox.obj
 0001:00042398       ?unget@?$c_string_character_source@D@__crt_strtox@@QEAAXD@Z 0000000140043398 f i libucrt:atox.obj
 0001:000423cc       ?unget@?$c_string_character_source@_W@__crt_strtox@@QEAAX_W@Z 00000001400433cc f i libucrt:atox.obj
 0001:00042404       ?validate@?$c_string_character_source@D@__crt_strtox@@QEBA_NXZ 0000000140043404 f i libucrt:atox.obj
 0001:00042434       ?validate@?$c_string_character_source@_W@__crt_strtox@@QEBA_NXZ 0000000140043434 f i libucrt:atox.obj
 0001:00042464       ?wide_character_to_digit@__crt_strtox@@YAH_W@Z 0000000140043464 f i libucrt:atox.obj
 0001:0004266c       __acrt_get_locale_data_prefix 000000014004366c f i libucrt:atox.obj
 0001:00042670       __ascii_iswalpha           0000000140043670 f i libucrt:atox.obj
 0001:00042690       __ascii_toupper            0000000140043690 f i libucrt:atox.obj
 0001:000426a4       __ascii_towupper           00000001400436a4 f i libucrt:atox.obj
 0001:000426b4       _atoi64                    00000001400436b4 f   libucrt:atox.obj
 0001:000426e8       _atoi64_l                  00000001400436e8 f   libucrt:atox.obj
 0001:00042720       _atoi_l                    0000000140043720 f   libucrt:atox.obj
 0001:00042758       _atol_l                    0000000140043758 f   libucrt:atox.obj
 0001:00042790       _atoll_l                   0000000140043790 f   libucrt:atox.obj
 0001:000427c8       _chvalidchk_l              00000001400437c8 f i libucrt:atox.obj
 0001:00042844       _ischartype_l              0000000140043844 f i libucrt:atox.obj
 0001:000428d8       _wtoi                      00000001400438d8 f   libucrt:atox.obj
 0001:0004290c       _wtoi64                    000000014004390c f   libucrt:atox.obj
 0001:00042940       _wtoi64_l                  0000000140043940 f   libucrt:atox.obj
 0001:00042978       _wtoi_l                    0000000140043978 f   libucrt:atox.obj
 0001:000429b0       _wtol                      00000001400439b0 f   libucrt:atox.obj
 0001:000429e4       _wtol_l                    00000001400439e4 f   libucrt:atox.obj
 0001:00042a1c       _wtoll                     0000000140043a1c f   libucrt:atox.obj
 0001:00042a50       _wtoll_l                   0000000140043a50 f   libucrt:atox.obj
 0001:00042a88       atoi                       0000000140043a88 f   libucrt:atox.obj
 0001:00042abc       atol                       0000000140043abc f   libucrt:atox.obj
 0001:00042af0       atoll                      0000000140043af0 f   libucrt:atox.obj
 0001:00042b40       strncmp                    0000000140043b40 f   libucrt:strncmp.obj
 0001:00042be0       wcsncmp                    0000000140043be0 f   libucrt:wcsncmp.obj
 0001:00042c18       ??$__crt_fast_decode_pointer@P6AXPEB_W00I_K@Z@@YAP6AXPEB_W00I_K@ZQ6AX000I1@Z@Z 0000000140043c18 f i libucrt:invalid_parameter.obj
 0001:00042c34       ??$__crt_fast_encode_pointer@P6AXPEB_W00I_K@Z@@YAP6AXPEB_W00I_K@ZQ6AX000I1@Z@Z 0000000140043c34 f i libucrt:invalid_parameter.obj
 0001:00042c5c       ??$initialize_from_array@$$BY00Q6AXPEB_W00I_K@Z@?$dual_state_global@P6AXPEB_W00I_K@Z@__crt_state_management@@QEAAXAEAY00Q6AXPEB_W00I_K@Z@Z 0000000140043c5c f i libucrt:invalid_parameter.obj
 0001:00042cec       ?dangerous_get_state_array@?$dual_state_global@P6AXPEB_W00I_K@Z@__crt_state_management@@QEAAPEAP6AXPEB_W00I_K@ZXZ 0000000140043cec f i libucrt:invalid_parameter.obj
 0001:00042cf0       ?value@?$dual_state_global@P6AXPEB_W00I_K@Z@__crt_state_management@@QEAAAEAP6AXPEB_W00I_K@ZXZ 0000000140043cf0 f i libucrt:invalid_parameter.obj
 0001:00042cf4       __acrt_call_reportfault    0000000140043cf4 f   libucrt:invalid_parameter.obj
 0001:00042ea8       __acrt_initialize_invalid_parameter_handler 0000000140043ea8 f   libucrt:invalid_parameter.obj
 0001:00042eb4       _get_invalid_parameter_handler 0000000140043eb4 f   libucrt:invalid_parameter.obj
 0001:00042ed0       _get_thread_local_invalid_parameter_handler 0000000140043ed0 f   libucrt:invalid_parameter.obj
 0001:00042ef0       _invalid_parameter         0000000140043ef0 f   libucrt:invalid_parameter.obj
 0001:00042fcc       _invalid_parameter_noinfo  0000000140043fcc f   libucrt:invalid_parameter.obj
 0001:00042ff4       _invalid_parameter_noinfo_noreturn 0000000140043ff4 f   libucrt:invalid_parameter.obj
 0001:00043030       _invoke_watson             0000000140044030 f   libucrt:invalid_parameter.obj
 0001:00043088       _set_invalid_parameter_handler 0000000140044088 f   libucrt:invalid_parameter.obj
 0001:000430cc       _set_thread_local_invalid_parameter_handler 00000001400440cc f   libucrt:invalid_parameter.obj
 0001:000430fc       __acrt_errno_from_os_error 00000001400440fc f   libucrt:errno.obj
 0001:00043154       __acrt_errno_map_os_error  0000000140044154 f   libucrt:errno.obj
 0001:000431b8       __doserrno                 00000001400441b8 f   libucrt:errno.obj
 0001:000431e0       _errno                     00000001400441e0 f   libucrt:errno.obj
 0001:00043208       _get_doserrno              0000000140044208 f   libucrt:errno.obj
 0001:00043254       _get_errno                 0000000140044254 f   libucrt:errno.obj
 0001:000432a0       _set_doserrno              00000001400442a0 f   libucrt:errno.obj
 0001:000432e8       _set_errno                 00000001400442e8 f   libucrt:errno.obj
 0001:00043330       _calloc_base               0000000140044330 f   libucrt:calloc_base.obj
 0001:000433d0       _free_base                 00000001400443d0 f   libucrt:free_base.obj
 0001:00043450       ??$?B$$A6AHPEA_WK_J@Z@__crt_fast_encoded_nullptr_t@@QEBAP6AHPEA_WK_J@ZXZ 0000000140044450 f i libucrt:winapi_thunks.obj
 0001:00043524       ??$__crt_fast_decode_pointer@P6AHPEA_WK_J@Z@@YAP6AHPEA_WK_J@ZQ6AH0K1@Z@Z 0000000140044524 f i libucrt:winapi_thunks.obj
 0001:00043540       ??$__crt_fast_decode_pointer@PEAX@@YAPEAXQEAX@Z 0000000140044540 f i libucrt:winapi_thunks.obj
 0001:0004355c       ??$__crt_fast_encode_pointer@P6AHPEA_WK_J@Z@@YAP6AHPEA_WK_J@ZQ6AH0K1@Z@Z 000000014004455c f i libucrt:winapi_thunks.obj
 0001:00044310       GetCurrentThreadEffectiveToken 0000000140045310 f i libucrt:winapi_thunks.obj
 0001:0004431c       __acrt_AppPolicyGetProcessTerminationMethodInternal 000000014004531c f   libucrt:winapi_thunks.obj
 0001:00044380       __acrt_AppPolicyGetShowDeveloperDiagnosticInternal 0000000140045380 f   libucrt:winapi_thunks.obj
 0001:000443e4       __acrt_AppPolicyGetThreadInitializationTypeInternal 00000001400453e4 f   libucrt:winapi_thunks.obj
 0001:00044448       __acrt_AppPolicyGetWindowingModelInternal 0000000140045448 f   libucrt:winapi_thunks.obj
 0001:000444ac       __acrt_AreFileApisANSI     00000001400454ac f   libucrt:winapi_thunks.obj
 0001:000444f4       __acrt_CompareStringEx     00000001400454f4 f   libucrt:winapi_thunks.obj
 0001:00044608       __acrt_EnumSystemLocalesEx 0000000140045608 f   libucrt:winapi_thunks.obj
 0001:000446c4       __acrt_FlsAlloc            00000001400456c4 f   libucrt:winapi_thunks.obj
 0001:00044720       __acrt_FlsFree             0000000140045720 f   libucrt:winapi_thunks.obj
 0001:00044778       __acrt_FlsGetValue         0000000140045778 f   libucrt:winapi_thunks.obj
 0001:000447d0       __acrt_FlsSetValue         00000001400457d0 f   libucrt:winapi_thunks.obj
 0001:00044838       __acrt_GetDateFormatEx     0000000140045838 f   libucrt:winapi_thunks.obj
 0001:0004491c       __acrt_GetEnabledXStateFeatures 000000014004591c f   libucrt:winapi_thunks.obj
 0001:00044964       __acrt_GetLocaleInfoEx     0000000140045964 f   libucrt:winapi_thunks.obj
 0001:00044a08       __acrt_GetSystemTimePreciseAsFileTime 0000000140045a08 f   libucrt:winapi_thunks.obj
 0001:00044a64       __acrt_GetTimeFormatEx     0000000140045a64 f   libucrt:winapi_thunks.obj
 0001:00044b3c       __acrt_GetUserDefaultLocaleName 0000000140045b3c f   libucrt:winapi_thunks.obj
 0001:00044bb8       __acrt_GetXStateFeaturesMask 0000000140045bb8 f   libucrt:winapi_thunks.obj
 0001:00044c20       __acrt_InitializeCriticalSectionEx 0000000140045c20 f   libucrt:winapi_thunks.obj
 0001:00044c9c       __acrt_IsValidLocaleName   0000000140045c9c f   libucrt:winapi_thunks.obj
 0001:00044d08       __acrt_LCIDToLocaleName    0000000140045d08 f   libucrt:winapi_thunks.obj
 0001:00044d94       __acrt_LCMapStringEx       0000000140045d94 f   libucrt:winapi_thunks.obj
 0001:00044ea8       __acrt_LocaleNameToLCID    0000000140045ea8 f   libucrt:winapi_thunks.obj
 0001:00044f0c       __acrt_LocateXStateFeature 0000000140045f0c f   libucrt:winapi_thunks.obj
 0001:00044f84       __acrt_MessageBoxA         0000000140045f84 f   libucrt:winapi_thunks.obj
 0001:00045014       __acrt_MessageBoxW         0000000140046014 f   libucrt:winapi_thunks.obj
 0001:000450a4       __acrt_RoInitialize        00000001400460a4 f   libucrt:winapi_thunks.obj
 0001:000450f4       __acrt_RoUninitialize      00000001400460f4 f   libucrt:winapi_thunks.obj
 0001:00045134       __acrt_RtlGenRandom        0000000140046134 f   libucrt:winapi_thunks.obj
 0001:00045198       __acrt_SetThreadStackGuarantee 0000000140046198 f   libucrt:winapi_thunks.obj
 0001:000451ec       __acrt_can_show_message_box 00000001400461ec f   libucrt:winapi_thunks.obj
 0001:00045274       __acrt_can_use_vista_locale_apis 0000000140046274 f   libucrt:winapi_thunks.obj
 0001:000452b0       __acrt_can_use_xstate_apis 00000001400462b0 f   libucrt:winapi_thunks.obj
 0001:000452ec       __acrt_eagerly_load_locale_apis 00000001400462ec f   libucrt:winapi_thunks.obj
 0001:0004549c       __acrt_get_parent_window   000000014004649c f   libucrt:winapi_thunks.obj
 0001:00045534       __acrt_initialize_winapi_thunks 0000000140046534 f   libucrt:winapi_thunks.obj
 0001:00045574       __acrt_is_interactive      0000000140046574 f   libucrt:winapi_thunks.obj
 0001:0004566c       __acrt_uninitialize_winapi_thunks 000000014004666c f   libucrt:winapi_thunks.obj
 0001:000456c0       ??0__crt_stdio_stream@@QEAA@QEAU__crt_stdio_stream_data@@@Z 00000001400466c0 f i libucrt:closeall.obj
 0001:000456c8       _fcloseall                 00000001400466c8 f   libucrt:closeall.obj
 0001:00045da8       __acrt_stdio_flush_nolock  0000000140046da8 f   libucrt:fflush.obj
 0001:00045e40       _fflush_nolock             0000000140046e40 f   libucrt:fflush.obj
 0001:00045ea0       _flushall                  0000000140046ea0 f   libucrt:fflush.obj
 0001:00045ea8       fflush                     0000000140046ea8 f   libucrt:fflush.obj
 0001:00045f28       __acrt_stdio_free_buffer_nolock 0000000140046f28 f   libucrt:_freebuf.obj
 0001:00046214       __acrt_initialize_lowio    0000000140047214 f   libucrt:ioinit.obj
 0001:00046260       __acrt_uninitialize_lowio  0000000140047260 f   libucrt:ioinit.obj
 0001:0004649c       _close                     000000014004749c f   libucrt:close.obj
 0001:00046568       _close_nolock              0000000140047568 f   libucrt:close.obj
 0001:00046654       _fileno                    0000000140047654 f   libucrt:fileno.obj
 0001:00046684       ??$?RU__crt_stdio_stream_data@@@__crt_internal_free_policy@@QEBAXQEBU__crt_stdio_stream_data@@@Z 0000000140047684 f i libucrt:stream.obj
 0001:00046690       ??0?$__crt_unique_heap_ptr@U__crt_stdio_stream_data@@U__crt_internal_free_policy@@@@QEAA@QEAU__crt_stdio_stream_data@@@Z 0000000140047690 f i libucrt:stream.obj
 0001:00046698       ??0__crt_stdio_stream@@QEAA@XZ 0000000140047698 f i libucrt:stream.obj
 0001:000466a4       ??1?$__crt_unique_heap_ptr@U__crt_stdio_stream_data@@U__crt_internal_free_policy@@@@QEAA@XZ 00000001400476a4 f i libucrt:stream.obj
 0001:000466c8       ?__acrt_stdio_allocate_stream@@YA?AV__crt_stdio_stream@@XZ 00000001400476c8 f   libucrt:stream.obj
 0001:00046734       ?__acrt_stdio_free_stream@@YAXV__crt_stdio_stream@@@Z 0000000140047734 f   libucrt:stream.obj
 0001:00046758       ?deallocate@__crt_stdio_stream@@QEAAXXZ 0000000140047758 f i libucrt:stream.obj
 0001:00046764       ?detach@?$__crt_unique_heap_ptr@U__crt_stdio_stream_data@@U__crt_internal_free_policy@@@@QEAAPEAU__crt_stdio_stream_data@@XZ 0000000140047764 f i libucrt:stream.obj
 0001:00046894       ?lock@__crt_stdio_stream@@QEBAXXZ 0000000140047894 f i libucrt:stream.obj
 0001:000468a0       ?release@?$__crt_unique_heap_ptr@U__crt_stdio_stream_data@@U__crt_internal_free_policy@@@@QEAAXXZ 00000001400478a0 f i libucrt:stream.obj
 0001:000468c4       ?try_allocate@__crt_stdio_stream@@QEAA_NXZ 00000001400478c4 f i libucrt:stream.obj
 0001:000468ec       _fgetwc_nolock             00000001400478ec f   libucrt:fgetwc.obj
 0001:00046af8       _fgetwchar                 0000000140047af8 f   libucrt:fgetwc.obj
 0001:00046b14       _getwc_nolock              0000000140047b14 f   libucrt:fgetwc.obj
 0001:00046b1c       fgetwc                     0000000140047b1c f   libucrt:fgetwc.obj
 0001:00046b88       getwc                      0000000140047b88 f   libucrt:fgetwc.obj
 0001:00046b90       getwchar                   0000000140047b90 f   libucrt:fgetwc.obj
 0001:00046bac       _fgetc_nolock              0000000140047bac f   libucrt:fgetc.obj
 0001:00046c00       _fgetchar                  0000000140047c00 f   libucrt:fgetc.obj
 0001:00046c1c       _getc_nolock               0000000140047c1c f   libucrt:fgetc.obj
 0001:00046c24       fgetc                      0000000140047c24 f   libucrt:fgetc.obj
 0001:00046d70       getc                       0000000140047d70 f   libucrt:fgetc.obj
 0001:00046d78       getchar                    0000000140047d78 f   libucrt:fgetc.obj
 0001:00046d94       ??$__acrt_stdio_parse_mode@D@@YA?AU__acrt_stdio_stream_mode@@QEBD@Z 0000000140047d94 f i libucrt:openfile.obj
 0001:00047108       ??$__acrt_stdio_parse_mode@_W@@YA?AU__acrt_stdio_stream_mode@@QEB_W@Z 0000000140048108 f i libucrt:openfile.obj
 0001:00047644       ??$tcsncmp@AEAPEBDAEAY02$$CBD_K@?$__crt_char_traits@D@@SAHAEAPEBDAEAY02$$CBD$$QEA_K@Z 0000000140048644 f i libucrt:openfile.obj
 0001:00047654       ??$tcsncmp@AEAPEB_WAEAY02$$CB_W_K@?$__crt_char_traits@_W@@SAHAEAPEB_WAEAY02$$CB_W$$QEA_K@Z 0000000140048654 f i libucrt:openfile.obj
 0001:00047664       ??$tcsnicmp@AEAPEBDAEAY04$$CBD_K@?$__crt_char_traits@D@@SAHAEAPEBDAEAY04$$CBD$$QEA_K@Z 0000000140048664 f i libucrt:openfile.obj
 0001:00047674       ??$tcsnicmp@AEAPEBDAEAY06$$CBD_K@?$__crt_char_traits@D@@SAHAEAPEBDAEAY06$$CBD$$QEA_K@Z 0000000140048674 f i libucrt:openfile.obj
 0001:00047684       ??$tcsnicmp@AEAPEBDAEAY07$$CBD_K@?$__crt_char_traits@D@@SAHAEAPEBDAEAY07$$CBD$$QEA_K@Z 0000000140048684 f i libucrt:openfile.obj
 0001:00047694       ??$tcsnicmp@AEAPEB_WAEAY04$$CB_W_K@?$__crt_char_traits@_W@@SAHAEAPEB_WAEAY04$$CB_W$$QEA_K@Z 0000000140048694 f i libucrt:openfile.obj
 0001:000476a4       ??$tcsnicmp@AEAPEB_WAEAY06$$CB_W_K@?$__crt_char_traits@_W@@SAHAEAPEB_WAEAY06$$CB_W$$QEA_K@Z 00000001400486a4 f i libucrt:openfile.obj
 0001:000476b4       ??$tcsnicmp@AEAPEB_WAEAY07$$CB_W_K@?$__crt_char_traits@_W@@SAHAEAPEB_WAEAY07$$CB_W$$QEA_K@Z 00000001400486b4 f i libucrt:openfile.obj
 0001:000476c4       ??$tsopen_s@PEAHAEBQEBDAEBHAEBHH@?$__crt_char_traits@D@@SAH$$QEAPEAHAEBQEBDAEBH2$$QEAH@Z 00000001400486c4 f i libucrt:openfile.obj
 0001:000476ec       ??$tsopen_s@PEAHAEBQEB_WAEBHAEBHH@?$__crt_char_traits@_W@@SAH$$QEAPEAHAEBQEB_WAEBH2$$QEAH@Z 00000001400486ec f i libucrt:openfile.obj
 0001:00047714       ?__acrt_stdio_parse_mode_D@@YA_NAEAU__acrt_stdio_stream_mode@@@Z 0000000140048714 f i libucrt:openfile.obj
 0001:0004772c       ?__acrt_stdio_parse_mode_N@@YA_NAEAU__acrt_stdio_stream_mode@@@Z 000000014004872c f i libucrt:openfile.obj
 0001:00047734       ?__acrt_stdio_parse_mode_R@@YA_NAEAU__acrt_stdio_stream_mode@@AEA_N@Z 0000000140048734 f i libucrt:openfile.obj
 0001:0004774c       ?__acrt_stdio_parse_mode_S@@YA_NAEAU__acrt_stdio_stream_mode@@AEA_N@Z 000000014004874c f i libucrt:openfile.obj
 0001:00047764       ?__acrt_stdio_parse_mode_T@@YA_NAEAU__acrt_stdio_stream_mode@@@Z 0000000140048764 f i libucrt:openfile.obj
 0001:00047780       ?__acrt_stdio_parse_mode_b@@YA_NAEAU__acrt_stdio_stream_mode@@@Z 0000000140048780 f i libucrt:openfile.obj
 0001:0004779c       ?__acrt_stdio_parse_mode_c@@YA_NAEAU__acrt_stdio_stream_mode@@AEA_N@Z 000000014004879c f i libucrt:openfile.obj
 0001:000477b4       ?__acrt_stdio_parse_mode_n@@YA_NAEAU__acrt_stdio_stream_mode@@AEA_N@Z 00000001400487b4 f i libucrt:openfile.obj
 0001:000477cc       ?__acrt_stdio_parse_mode_plus@@YA_NAEAU__acrt_stdio_stream_mode@@AEA_N@Z 00000001400487cc f i libucrt:openfile.obj
 0001:00047804       ?__acrt_stdio_parse_mode_t@@YA_NAEAU__acrt_stdio_stream_mode@@@Z 0000000140048804 f i libucrt:openfile.obj
 0001:00047820       ?__acrt_stdio_parse_mode_x@@YA_NAEAU__acrt_stdio_stream_mode@@@Z 0000000140048820 f i libucrt:openfile.obj
 0001:0004783c       _openfile                  000000014004883c f   libucrt:openfile.obj
 0001:00047900       _wopenfile                 0000000140048900 f   libucrt:openfile.obj
 0001:000483c8       _read                      00000001400493c8 f   libucrt:read.obj
 0001:00048528       _read_nolock               0000000140049528 f   libucrt:read.obj
 0001:00048eec       __acrt_stdio_refill_and_read_narrow_nolock 0000000140049eec f   libucrt:_filbuf.obj
 0001:000490b0       __acrt_stdio_refill_and_read_wide_nolock 000000014004a0b0 f   libucrt:_filbuf.obj
 0001:00049604       _lseek                     000000014004a604 f   libucrt:lseek.obj
 0001:0004960c       _lseek_nolock              000000014004a60c f   libucrt:lseek.obj
 0001:00049614       _lseeki64                  000000014004a614 f   libucrt:lseek.obj
 0001:0004961c       _lseeki64_nolock           000000014004a61c f   libucrt:lseek.obj
 0001:00049624       _malloc_base               000000014004a624 f   libucrt:malloc_base.obj
 0001:0004969c       ??$make_c_string_character_source@DPEAPEAD@__crt_strtox@@YA?AV?$c_string_character_source@D@0@QEBDQEAPEAD@Z 000000014004a69c f i libucrt:strtox.obj
 0001:000496b4       ??$make_c_string_character_source@_WPEAPEA_W@__crt_strtox@@YA?AV?$c_string_character_source@_W@0@QEB_WQEAPEA_W@Z 000000014004a6b4 f i libucrt:strtox.obj
 0001:000496cc       ??$parse_integer_from_string@JDPEAPEAD@__crt_strtox@@YAJQEBDQEAPEADHQEAU__crt_locale_pointers@@@Z 000000014004a6cc f i libucrt:strtox.obj
 0001:00049708       ??$parse_integer_from_string@J_WPEAPEA_W@__crt_strtox@@YAJQEB_WQEAPEA_WHQEAU__crt_locale_pointers@@@Z 000000014004a708 f i libucrt:strtox.obj
 0001:00049744       ??$parse_integer_from_string@KDPEAPEAD@__crt_strtox@@YAKQEBDQEAPEADHQEAU__crt_locale_pointers@@@Z 000000014004a744 f i libucrt:strtox.obj
 0001:00049780       ??$parse_integer_from_string@K_WPEAPEA_W@__crt_strtox@@YAKQEB_WQEAPEA_WHQEAU__crt_locale_pointers@@@Z 000000014004a780 f i libucrt:strtox.obj
 0001:000497bc       ??$parse_integer_from_string@_JDPEAPEAD@__crt_strtox@@YA_JQEBDQEAPEADHQEAU__crt_locale_pointers@@@Z 000000014004a7bc f i libucrt:strtox.obj
 0001:000497f8       ??$parse_integer_from_string@_J_WPEAPEA_W@__crt_strtox@@YA_JQEB_WQEAPEA_WHQEAU__crt_locale_pointers@@@Z 000000014004a7f8 f i libucrt:strtox.obj
 0001:00049834       ??$parse_integer_from_string@_KDPEAPEAD@__crt_strtox@@YA_KQEBDQEAPEADHQEAU__crt_locale_pointers@@@Z 000000014004a834 f i libucrt:strtox.obj
 0001:00049870       ??$parse_integer_from_string@_K_WPEAPEA_W@__crt_strtox@@YA_KQEB_WQEAPEA_WHQEAU__crt_locale_pointers@@@Z 000000014004a870 f i libucrt:strtox.obj
 0001:000498ac       _strtoi64                  000000014004a8ac f   libucrt:strtox.obj
 0001:000498e0       _strtoi64_l                000000014004a8e0 f   libucrt:strtox.obj
 0001:0004991c       _strtoimax_l               000000014004a91c f   libucrt:strtox.obj
 0001:00049958       _strtol_l                  000000014004a958 f   libucrt:strtox.obj
 0001:00049994       _strtoll_l                 000000014004a994 f   libucrt:strtox.obj
 0001:000499d0       _strtoui64                 000000014004a9d0 f   libucrt:strtox.obj
 0001:00049a04       _strtoui64_l               000000014004aa04 f   libucrt:strtox.obj
 0001:00049a40       _strtoul_l                 000000014004aa40 f   libucrt:strtox.obj
 0001:00049a7c       _strtoull_l                000000014004aa7c f   libucrt:strtox.obj
 0001:00049ab8       _strtoumax_l               000000014004aab8 f   libucrt:strtox.obj
 0001:00049af4       _wcstoi64                  000000014004aaf4 f   libucrt:strtox.obj
 0001:00049b28       _wcstoi64_l                000000014004ab28 f   libucrt:strtox.obj
 0001:00049b64       _wcstoimax_l               000000014004ab64 f   libucrt:strtox.obj
 0001:00049ba0       _wcstol_l                  000000014004aba0 f   libucrt:strtox.obj
 0001:00049bdc       _wcstoll_l                 000000014004abdc f   libucrt:strtox.obj
 0001:00049c18       _wcstoui64                 000000014004ac18 f   libucrt:strtox.obj
 0001:00049c4c       _wcstoui64_l               000000014004ac4c f   libucrt:strtox.obj
 0001:00049c88       _wcstoul_l                 000000014004ac88 f   libucrt:strtox.obj
 0001:00049cc4       _wcstoull_l                000000014004acc4 f   libucrt:strtox.obj
 0001:00049d00       _wcstoumax_l               000000014004ad00 f   libucrt:strtox.obj
 0001:00049d3c       strtoimax                  000000014004ad3c f   libucrt:strtox.obj
 0001:00049d70       strtol                     000000014004ad70 f   libucrt:strtox.obj
 0001:00049da4       strtoll                    000000014004ada4 f   libucrt:strtox.obj
 0001:00049dd8       strtoul                    000000014004add8 f   libucrt:strtox.obj
 0001:00049e0c       strtoull                   000000014004ae0c f   libucrt:strtox.obj
 0001:00049e40       strtoumax                  000000014004ae40 f   libucrt:strtox.obj
 0001:00049e74       wcstoimax                  000000014004ae74 f   libucrt:strtox.obj
 0001:00049ea8       wcstol                     000000014004aea8 f   libucrt:strtox.obj
 0001:00049edc       wcstoll                    000000014004aedc f   libucrt:strtox.obj
 0001:00049f10       wcstoul                    000000014004af10 f   libucrt:strtox.obj
 0001:00049f44       wcstoull                   000000014004af44 f   libucrt:strtox.obj
 0001:00049f78       wcstoumax                  000000014004af78 f   libucrt:strtox.obj
 0001:00049fac       _mbtowc_l                  000000014004afac f   libucrt:mbtowc.obj
 0001:0004a18c       mbtowc                     000000014004b18c f   libucrt:mbtowc.obj
 0001:0004a198       _wctomb_l                  000000014004b198 f   libucrt:wctomb.obj
 0001:0004a228       _wctomb_s_l                000000014004b228 f   libucrt:wctomb.obj
 0001:0004a42c       wctomb                     000000014004b42c f   libucrt:wctomb.obj
 0001:0004a48c       wctomb_s                   000000014004b48c f   libucrt:wctomb.obj
 0001:0004af74       ??1?$__crt_simd_cleanup_guard@$00@@QEAA@XZ 000000014004bf74 f i libucrt:strnlen.obj
 0001:0004af78       ??1?$__crt_simd_cleanup_guard@$0A@@@QEAA@XZ 000000014004bf78 f i libucrt:strnlen.obj
 0001:0004af7c       ?compare_equals@?$__crt_simd_traits@$00E@@SA?AT__m256i@@T2@0@Z 000000014004bf7c f i libucrt:strnlen.obj
 0001:0004af88       ?compare_equals@?$__crt_simd_traits@$00G@@SA?AT__m256i@@T2@0@Z 000000014004bf88 f i libucrt:strnlen.obj
 0001:0004af94       ?compare_equals@?$__crt_simd_traits@$0A@E@@SA?AT__m128i@@T2@0@Z 000000014004bf94 f i libucrt:strnlen.obj
 0001:0004afa0       ?compare_equals@?$__crt_simd_traits@$0A@G@@SA?AT__m128i@@T2@0@Z 000000014004bfa0 f i libucrt:strnlen.obj
 0001:0004afac       ?compute_byte_mask@?$__crt_simd_pack_traits@$00@@SAHT__m256i@@@Z 000000014004bfac f i libucrt:strnlen.obj
 0001:0004afbc       ?compute_byte_mask@?$__crt_simd_pack_traits@$0A@@@SAHT__m128i@@@Z 000000014004bfbc f i libucrt:strnlen.obj
 0001:0004afc8       ?get_zero_pack@?$__crt_simd_pack_traits@$00@@SA?AT__m256i@@XZ 000000014004bfc8 f i libucrt:strnlen.obj
 0001:0004afd0       ?get_zero_pack@?$__crt_simd_pack_traits@$0A@@@SA?AT__m128i@@XZ 000000014004bfd0 f i libucrt:strnlen.obj
 0001:0004afd4       strnlen                    000000014004bfd4 f   libucrt:strnlen.obj
 0001:0004b178       wcslen                     000000014004c178 f   libucrt:strnlen.obj
 0001:0004b2ec       wcsnlen                    000000014004c2ec f   libucrt:strnlen.obj
 0001:0004b538       ??$?RU__acrt_ptd@@@__crt_internal_free_policy@@QEBAXQEBU__acrt_ptd@@@Z 000000014004c538 f i libucrt:per_thread_data.obj
 0001:0004b7f8       ??0?$__crt_unique_heap_ptr@U__acrt_ptd@@U__crt_internal_free_policy@@@@QEAA@QEAU__acrt_ptd@@@Z 000000014004c7f8 f i libucrt:per_thread_data.obj
 0001:0004b800       ??0__crt_scoped_get_last_error_reset@@QEAA@XZ 000000014004c800 f i libucrt:per_thread_data.obj
 0001:0004b820       ??1?$__crt_unique_heap_ptr@U__acrt_ptd@@U__crt_internal_free_policy@@@@QEAA@XZ 000000014004c820 f i libucrt:per_thread_data.obj
 0001:0004b844       ??1__crt_scoped_get_last_error_reset@@QEAA@XZ 000000014004c844 f i libucrt:per_thread_data.obj
 0001:0004b850       ??B?$__crt_unique_heap_ptr@U__acrt_ptd@@U__crt_internal_free_policy@@@@QEBA_NXZ 000000014004c850 f i libucrt:per_thread_data.obj
 0001:0004bb20       ?dangerous_get_state_array@?$dual_state_global@PEAU__crt_locale_data@@@__crt_state_management@@QEAAPEAPEAU__crt_locale_data@@XZ 000000014004cb20 f i libucrt:per_thread_data.obj
 0001:0004bdb4       ?detach@?$__crt_unique_heap_ptr@U__acrt_ptd@@U__crt_internal_free_policy@@@@QEAAPEAU__acrt_ptd@@XZ 000000014004cdb4 f i libucrt:per_thread_data.obj
 0001:0004bdc0       ?get@?$__crt_unique_heap_ptr@U__acrt_ptd@@U__crt_internal_free_policy@@@@QEBAPEAU__acrt_ptd@@XZ 000000014004cdc0 f i libucrt:per_thread_data.obj
 0001:0004bdc4       ?get_current_state_index@__crt_state_management@@YA_KAEBV__crt_scoped_get_last_error_reset@@@Z 000000014004cdc4 f i libucrt:per_thread_data.obj
 0001:0004bf8c       ?is_valid@?$__crt_unique_heap_ptr@U__acrt_ptd@@U__crt_internal_free_policy@@@@QEBA_NXZ 000000014004cf8c f i libucrt:per_thread_data.obj
 0001:0004bf98       ?release@?$__crt_unique_heap_ptr@U__acrt_ptd@@U__crt_internal_free_policy@@@@QEAAXXZ 000000014004cf98 f i libucrt:per_thread_data.obj
 0001:0004c064       __acrt_freeptd             000000014004d064 f   libucrt:per_thread_data.obj
 0001:0004c0b8       __acrt_getptd              000000014004d0b8 f   libucrt:per_thread_data.obj
 0001:0004c1c4       __acrt_getptd_head         000000014004d1c4 f   libucrt:per_thread_data.obj
 0001:0004c294       __acrt_getptd_noexit       000000014004d294 f   libucrt:per_thread_data.obj
 0001:0004c394       __acrt_initialize_ptd      000000014004d394 f   libucrt:per_thread_data.obj
 0001:0004c3dc       __acrt_uninitialize_ptd    000000014004d3dc f   libucrt:per_thread_data.obj
 0001:0004c408       __threadhandle             000000014004d408 f   libucrt:per_thread_data.obj
 0001:0004c410       __threadid                 000000014004d410 f   libucrt:per_thread_data.obj
 0001:0004c418       ?value@?$dual_state_global@PEAU__crt_multibyte_data@@@__crt_state_management@@QEAAAEAPEAU__crt_multibyte_data@@XZ 000000014004d418 f i libucrt:locale_update.obj
 0001:0004c41c       __acrt_should_sync_with_global_locale 000000014004d41c f i libucrt:locale_update.obj
 0001:0004c430       __acrt_update_locale_info  000000014004d430 f   libucrt:locale_update.obj
 0001:0004c470       __acrt_update_multibyte_info 000000014004d470 f   libucrt:locale_update.obj
 0001:0004c4b0       ?__acrt_fp_classify@@YA?AW4__acrt_fp_class@@AEBN@Z 000000014004d4b0 f i libucrt:cvt.obj
 0001:0004c524       ?__acrt_fp_is_negative@@YA_NAEBN@Z 000000014004d524 f i libucrt:cvt.obj
 0001:0004d440       ?strrchr@@YAPEADQEADH@Z    000000014004e440 f i libucrt:cvt.obj
 0001:0004d448       __acrt_fp_format           000000014004e448 f   libucrt:cvt.obj
 0001:0004d870       _fputwc_nolock             000000014004e870 f   libucrt:fputwc.obj
 0001:0004da4c       _fputwchar                 000000014004ea4c f   libucrt:fputwc.obj
 0001:0004da78       _putwc_nolock              000000014004ea78 f   libucrt:fputwc.obj
 0001:0004da80       fputwc                     000000014004ea80 f   libucrt:fputwc.obj
 0001:0004daf8       putwc                      000000014004eaf8 f   libucrt:fputwc.obj
 0001:0004db00       putwchar                   000000014004eb00 f   libucrt:fputwc.obj
 0001:0004db08       _fputc_nolock              000000014004eb08 f   libucrt:fputc.obj
 0001:0004db24       _fputchar                  000000014004eb24 f   libucrt:fputc.obj
 0001:0004db50       _putc_nolock               000000014004eb50 f   libucrt:fputc.obj
 0001:0004db6c       fputc                      000000014004eb6c f   libucrt:fputc.obj
 0001:0004dcdc       putc                       000000014004ecdc f   libucrt:fputc.obj
 0001:0004dce4       putchar                    000000014004ece4 f   libucrt:fputc.obj
 0001:0004dcec       _get_printf_count_output   000000014004ecec f   libucrt:printf_count_output.obj
 0001:0004dd0c       _set_printf_count_output   000000014004ed0c f   libucrt:printf_count_output.obj
 0001:0004dd3c       ?has_temporary_buffer@__crt_stdio_stream@@QEBA_NXZ 000000014004ed3c f i libucrt:_sftbuf.obj
 0001:0004dd4c       __acrt_should_use_temporary_buffer 000000014004ed4c f   libucrt:_sftbuf.obj
 0001:0004dda4       __acrt_stdio_begin_temporary_buffering_nolock 000000014004eda4 f   libucrt:_sftbuf.obj
 0001:0004dea0       __acrt_stdio_end_temporary_buffering_nolock 000000014004eea0 f   libucrt:_sftbuf.obj
 0001:0004dee8       __p___mb_cur_max           000000014004eee8 f   libucrt:nlsdata.obj
 0001:0004df24       __acrt_initialize_locks    000000014004ef24 f   libucrt:locks.obj
 0001:0004df80       __acrt_lock                000000014004ef80 f   libucrt:locks.obj
 0001:0004dfa0       __acrt_uninitialize_locks  000000014004efa0 f   libucrt:locks.obj
 0001:0004dfe4       __acrt_unlock              000000014004efe4 f   libucrt:locks.obj
 0001:0004e004       _lock_locales              000000014004f004 f   libucrt:locks.obj
 0001:0004e028       _unlock_locales            000000014004f028 f   libucrt:locks.obj
 0001:0004e244       __acrt_get_begin_thread_init_policy 000000014004f244 f   libucrt:win_policies.obj
 0001:0004e2ac       __acrt_get_developer_information_policy 000000014004f2ac f   libucrt:win_policies.obj
 0001:0004e314       __acrt_get_process_end_policy 000000014004f314 f   libucrt:win_policies.obj
 0001:0004e360       __acrt_get_windowing_model_policy 000000014004f360 f   libucrt:win_policies.obj
 0001:0004e3e8       _set_error_mode            000000014004f3e8 f   libucrt:set_error_mode.obj
 0001:0004e4e0       wcscat_s                   000000014004f4e0 f   libucrt:wcscat_s.obj
 0001:0004e608       wcscpy_s                   000000014004f608 f   libucrt:wcscpy_s.obj
 0001:0004e79c       wcsncpy_s                  000000014004f79c f   libucrt:wcsncpy_s.obj
 0001:0004ea58       ??$message_box@$$TAEBQEBDAEBQEBDK@?$__crt_char_traits@D@@SAH$$QEA$$TAEBQEBD1$$QEAK@Z 000000014004fa58 f i libucrt:crtmbox.obj
 0001:0004ea70       ??$message_box@$$TAEBQEB_WAEBQEB_WK@?$__crt_char_traits@_W@@SAH$$QEA$$TAEBQEB_W1$$QEAK@Z 000000014004fa70 f i libucrt:crtmbox.obj
 0001:0004ea88       ??$message_box@PEAUHWND__@@AEBQEBDAEBQEBDAEBI@?$__crt_char_traits@D@@SAH$$QEAPEAUHWND__@@AEBQEBD1AEBI@Z 000000014004fa88 f i libucrt:crtmbox.obj
 0001:0004eaa0       ??$message_box@PEAUHWND__@@AEBQEB_WAEBQEB_WAEBI@?$__crt_char_traits@_W@@SAH$$QEAPEAUHWND__@@AEBQEB_W1AEBI@Z 000000014004faa0 f i libucrt:crtmbox.obj
 0001:0004eab8       ??$output_debug_string@AEBQEBD@?$__crt_char_traits@D@@SAXAEBQEBD@Z 000000014004fab8 f i libucrt:crtmbox.obj
 0001:0004eac4       ??$output_debug_string@AEBQEB_W@?$__crt_char_traits@_W@@SAXAEBQEB_W@Z 000000014004fac4 f i libucrt:crtmbox.obj
 0001:0004ead0       __acrt_show_narrow_message_box 000000014004fad0 f   libucrt:crtmbox.obj
 0001:0004eb9c       __acrt_show_wide_message_box 000000014004fb9c f   libucrt:crtmbox.obj
 0001:0004f064       ??$__acrt_mbs_to_wcs_cp@U__crt_win32_buffer_internal_dynamic_resizing@@@@YAHQEBDAEAV?$__crt_win32_buffer@_WU__crt_win32_buffer_internal_dynamic_resizing@@@@I@Z 0000000140050064 f i libucrt:argv_wildcards.obj
 0001:0004f238       ??$__acrt_wcs_to_mbs_cp@U__crt_win32_buffer_internal_dynamic_resizing@@@@YAHQEB_WAEAV?$__crt_win32_buffer@DU__crt_win32_buffer_internal_dynamic_resizing@@@@I@Z 0000000140050238 f i libucrt:argv_wildcards.obj
 0001:00050518       ??$tcslen@AEBQEBD@?$__crt_char_traits@D@@SA_KAEBQEBD@Z 0000000140051518 f i libucrt:argv_wildcards.obj
 0001:00050530       ??$tcslen@AEBQEB_W@?$__crt_char_traits@_W@@SA_KAEBQEB_W@Z 0000000140051530 f i libucrt:argv_wildcards.obj
 0001:00050548       ??$tcsncpy_s@AEAPEAD_KAEAPEADAEB_K@?$__crt_char_traits@D@@SAHAEAPEAD$$QEA_K0AEB_K@Z 0000000140051548 f i libucrt:argv_wildcards.obj
 0001:00050560       ??$tcsncpy_s@AEAPEA_W_KAEAPEA_WAEB_K@?$__crt_char_traits@_W@@SAHAEAPEA_W$$QEA_K0AEB_K@Z 0000000140051560 f i libucrt:argv_wildcards.obj
 0001:00050578       ??$tcsncpy_s@PEADAEB_KAEBQEBDAEB_K@?$__crt_char_traits@D@@SAH$$QEAPEADAEB_KAEBQEBD1@Z 0000000140051578 f i libucrt:argv_wildcards.obj
 0001:00050590       ??$tcsncpy_s@PEAD_KAEBQEBDAEB_K@?$__crt_char_traits@D@@SAH$$QEAPEAD$$QEA_KAEBQEBDAEB_K@Z 0000000140051590 f i libucrt:argv_wildcards.obj
 0001:000505a8       ??$tcsncpy_s@PEA_WAEB_KAEBQEB_WAEB_K@?$__crt_char_traits@_W@@SAH$$QEAPEA_WAEB_KAEBQEB_W1@Z 00000001400515a8 f i libucrt:argv_wildcards.obj
 0001:000505c0       ??$tcsncpy_s@PEA_W_KAEBQEB_WAEB_K@?$__crt_char_traits@_W@@SAH$$QEAPEA_W$$QEA_KAEBQEB_WAEB_K@Z 00000001400515c0 f i libucrt:argv_wildcards.obj
 0001:000505d8       ??$tcspbrk@AEAPEADAEAY02$$CBD@?$__crt_char_traits@D@@SAPEADAEAPEADAEAY02$$CBD@Z 00000001400515d8 f i libucrt:argv_wildcards.obj
 0001:000505e4       ??$tcspbrk@AEAPEA_WAEAY02$$CB_W@?$__crt_char_traits@_W@@SAPEA_WAEAPEA_WAEAY02$$CB_W@Z 00000001400515e4 f i libucrt:argv_wildcards.obj
 0001:000505f0       ??0?$__crt_unique_handle_t@U__crt_findfile_traits@@@@QEAA@QEAX@Z 00000001400515f0 f i libucrt:argv_wildcards.obj
 0001:000505f8       ??0?$__crt_win32_buffer@DU__crt_win32_buffer_internal_dynamic_resizing@@@@QEAA@XZ 00000001400515f8 f i libucrt:argv_wildcards.obj
 0001:0005061c       ??0?$__crt_win32_buffer@_WU__crt_win32_buffer_internal_dynamic_resizing@@@@QEAA@XZ 000000014005161c f i libucrt:argv_wildcards.obj
 0001:00050670       ??1?$__crt_unique_handle_t@U__crt_findfile_traits@@@@QEAA@XZ 0000000140051670 f i libucrt:argv_wildcards.obj
 0001:0005069c       ??1?$__crt_win32_buffer@DU__crt_win32_buffer_internal_dynamic_resizing@@@@QEAA@XZ 000000014005169c f i libucrt:argv_wildcards.obj
 0001:000506c8       ??1?$__crt_win32_buffer@_WU__crt_win32_buffer_internal_dynamic_resizing@@@@QEAA@XZ 00000001400516c8 f i libucrt:argv_wildcards.obj
 0001:00050890       ?__acrt_get_utf8_acp_compatibility_codepage@@YAIXZ 0000000140051890 f i libucrt:argv_wildcards.obj
 0001:000508ec       ?_deallocate@?$__crt_win32_buffer@DU__crt_win32_buffer_internal_dynamic_resizing@@@@AEAAXXZ 00000001400518ec f i libucrt:argv_wildcards.obj
 0001:00050918       ?_deallocate@?$__crt_win32_buffer@_WU__crt_win32_buffer_internal_dynamic_resizing@@@@AEAAXXZ 0000000140051918 f i libucrt:argv_wildcards.obj
 0001:00050944       ?allocate@?$__crt_win32_buffer@DU__crt_win32_buffer_internal_dynamic_resizing@@@@QEAAH_K@Z 0000000140051944 f i libucrt:argv_wildcards.obj
 0001:000509b8       ?allocate@?$__crt_win32_buffer@_WU__crt_win32_buffer_internal_dynamic_resizing@@@@QEAAH_K@Z 00000001400519b8 f i libucrt:argv_wildcards.obj
 0001:00050a2c       ?allocate@__crt_win32_buffer_internal_dynamic_resizing@@SAHQEAPEAX_KAEBV__crt_win32_buffer_empty_debug_info@@@Z 0000000140051a2c f i libucrt:argv_wildcards.obj
 0001:00050c94       ?capacity@?$__crt_win32_buffer@DU__crt_win32_buffer_internal_dynamic_resizing@@@@QEBA_KXZ 0000000140051c94 f i libucrt:argv_wildcards.obj
 0001:00050c9c       ?capacity@?$__crt_win32_buffer@_WU__crt_win32_buffer_internal_dynamic_resizing@@@@QEBA_KXZ 0000000140051c9c f i libucrt:argv_wildcards.obj
 0001:00050ca4       ?close@?$__crt_unique_handle_t@U__crt_findfile_traits@@@@QEAAXXZ 0000000140051ca4 f i libucrt:argv_wildcards.obj
 0001:00050cd0       ?close@__crt_findfile_traits@@SA_NPEAX@Z 0000000140051cd0 f i libucrt:argv_wildcards.obj
 0001:00050cec       ?data@?$__crt_win32_buffer@DU__crt_win32_buffer_internal_dynamic_resizing@@@@QEAAPEADXZ 0000000140051cec f i libucrt:argv_wildcards.obj
 0001:00050cf4       ?data@?$__crt_win32_buffer@_WU__crt_win32_buffer_internal_dynamic_resizing@@@@QEAAPEA_WXZ 0000000140051cf4 f i libucrt:argv_wildcards.obj
 0001:00050cfc       ?deallocate@__crt_win32_buffer_internal_dynamic_resizing@@SAXQEAXAEBV__crt_win32_buffer_empty_debug_info@@@Z 0000000140051cfc f i libucrt:argv_wildcards.obj
 0001:00050d04       ?debug_info@?$__crt_win32_buffer@DU__crt_win32_buffer_internal_dynamic_resizing@@@@QEBAAEBV__crt_win32_buffer_empty_debug_info@@XZ 0000000140051d04 f i libucrt:argv_wildcards.obj
 0001:00050d08       ?debug_info@?$__crt_win32_buffer@_WU__crt_win32_buffer_internal_dynamic_resizing@@@@QEBAAEBV__crt_win32_buffer_empty_debug_info@@XZ 0000000140051d08 f i libucrt:argv_wildcards.obj
 0001:00050f0c       ?get@?$__crt_unique_handle_t@U__crt_findfile_traits@@@@QEBAPEAXXZ 0000000140051f0c f i libucrt:argv_wildcards.obj
 0001:00050fd8       ?get_invalid_value@__crt_findfile_traits@@SAPEAXXZ 0000000140051fd8 f i libucrt:argv_wildcards.obj
 0001:000510b8       ?set_to_nullptr@?$__crt_win32_buffer@DU__crt_win32_buffer_internal_dynamic_resizing@@@@QEAAXXZ 00000001400520b8 f i libucrt:argv_wildcards.obj
 0001:000510f8       ?set_to_nullptr@?$__crt_win32_buffer@_WU__crt_win32_buffer_internal_dynamic_resizing@@@@QEAAXXZ 00000001400520f8 f i libucrt:argv_wildcards.obj
 0001:00051138       ?size@?$__crt_win32_buffer@DU__crt_win32_buffer_internal_dynamic_resizing@@@@QEAAX_K@Z 0000000140052138 f i libucrt:argv_wildcards.obj
 0001:00051140       ?size@?$__crt_win32_buffer@_WU__crt_win32_buffer_internal_dynamic_resizing@@@@QEAAX_K@Z 0000000140052140 f i libucrt:argv_wildcards.obj
 0001:00051168       ?strpbrk@@YAPEADQEADQEBD@Z 0000000140052168 f i libucrt:argv_wildcards.obj
 0001:00051170       ?wcspbrk@@YAPEA_WPEA_WPEB_W@Z 0000000140052170 f i libucrt:argv_wildcards.obj
 0001:00051178       __acrt_expand_narrow_argv_wildcards 0000000140052178 f   libucrt:argv_wildcards.obj
 0001:00051180       __acrt_expand_wide_argv_wildcards 0000000140052180 f   libucrt:argv_wildcards.obj
 0001:000512e8       ??$__acrt_wcs_to_mbs_cp@U__crt_win32_buffer_no_resizing@@@@YAHQEB_WAEAV?$__crt_win32_buffer@DU__crt_win32_buffer_no_resizing@@@@I@Z 00000001400522e8 f i libucrt:getmodulefilenamea.obj
 0001:00051440       ??0?$__crt_win32_buffer@DU__crt_win32_buffer_no_resizing@@@@QEAA@QEAD_K@Z 0000000140052440 f i libucrt:getmodulefilenamea.obj
 0001:00051464       ??1?$__crt_win32_buffer@DU__crt_win32_buffer_no_resizing@@@@QEAA@XZ 0000000140052464 f i libucrt:getmodulefilenamea.obj
 0001:000514b0       ?_deallocate@?$__crt_win32_buffer@DU__crt_win32_buffer_no_resizing@@@@AEAAXXZ 00000001400524b0 f i libucrt:getmodulefilenamea.obj
 0001:000514c0       ?allocate@?$__crt_win32_buffer@DU__crt_win32_buffer_no_resizing@@@@QEAAH_K@Z 00000001400524c0 f i libucrt:getmodulefilenamea.obj
 0001:000514fc       ?allocate@__crt_win32_buffer_no_resizing@@SAHQEAPEAX_KAEBV__crt_win32_buffer_empty_debug_info@@@Z 00000001400524fc f i libucrt:getmodulefilenamea.obj
 0001:00051518       ?capacity@?$__crt_win32_buffer@DU__crt_win32_buffer_no_resizing@@@@QEBA_KXZ 0000000140052518 f i libucrt:getmodulefilenamea.obj
 0001:00051520       ?data@?$__crt_win32_buffer@DU__crt_win32_buffer_no_resizing@@@@QEAAPEADXZ 0000000140052520 f i libucrt:getmodulefilenamea.obj
 0001:00051528       ?deallocate@__crt_win32_buffer_no_resizing@@SAXQEAXAEBV__crt_win32_buffer_empty_debug_info@@@Z 0000000140052528 f i libucrt:getmodulefilenamea.obj
 0001:0005152c       ?debug_info@?$__crt_win32_buffer@DU__crt_win32_buffer_no_resizing@@@@QEBAAEBV__crt_win32_buffer_empty_debug_info@@XZ 000000014005252c f i libucrt:getmodulefilenamea.obj
 0001:00051530       ?set_to_nullptr@?$__crt_win32_buffer@DU__crt_win32_buffer_no_resizing@@@@QEAAXXZ 0000000140052530 f i libucrt:getmodulefilenamea.obj
 0001:0005154c       ?size@?$__crt_win32_buffer@DU__crt_win32_buffer_no_resizing@@@@QEAAX_K@Z 000000014005254c f i libucrt:getmodulefilenamea.obj
 0001:00051554       ?size@?$__crt_win32_buffer@DU__crt_win32_buffer_no_resizing@@@@QEBA_KXZ 0000000140052554 f i libucrt:getmodulefilenamea.obj
 0001:0005155c       __acrt_GetModuleFileNameA  000000014005255c f   libucrt:getmodulefilenamea.obj
 0001:0005191c       ??$initialize_from_array@$$BY10BAA@E@?$dual_state_global@PEAE@__crt_state_management@@QEAAXAEAY10BAA@E@Z 000000014005291c f i libucrt:mbctype.obj
 0001:00051920       ??$initialize_from_array@$$BY10BAB@E@?$dual_state_global@PEAE@__crt_state_management@@QEAAXAEAY10BAB@E@Z 0000000140052920 f i libucrt:mbctype.obj
 0001:00051bac       ?dangerous_get_state_array@?$dual_state_global@PEAE@__crt_state_management@@QEAAPEAPEAEXZ 0000000140052bac f i libucrt:mbctype.obj
 0001:00051bb0       ?dangerous_get_state_array@?$dual_state_global@PEAU__crt_multibyte_data@@@__crt_state_management@@QEAAPEAPEAU__crt_multibyte_data@@XZ 0000000140052bb0 f i libucrt:mbctype.obj
 0001:00051c50       ?initialize@?$dual_state_global@PEAU__crt_multibyte_data@@@__crt_state_management@@QEAAXQEAU__crt_multibyte_data@@@Z 0000000140052c50 f i libucrt:mbctype.obj
 0001:000522a8       ?value@?$dual_state_global@PEAE@__crt_state_management@@QEAAAEAPEAEXZ 00000001400532a8 f i libucrt:mbctype.obj
 0001:000522ac       __acrt_initialize_multibyte 00000001400532ac f   libucrt:mbctype.obj
 0001:00052324       __acrt_update_thread_multibyte_data 0000000140053324 f   libucrt:mbctype.obj
 0001:00052348       __p__mbcasemap             0000000140053348 f   libucrt:mbctype.obj
 0001:00052354       __p__mbctype               0000000140053354 f   libucrt:mbctype.obj
 0001:00052360       _getmbcp                   0000000140053360 f   libucrt:mbctype.obj
 0001:000523a8       _setmbcp                   00000001400533a8 f   libucrt:mbctype.obj
 0001:000523d8       _setmbcp_nolock            00000001400533d8 f   libucrt:mbctype.obj
 0001:0005287c       _ismbbalnum                000000014005387c f   libucrt:ismbbyte.obj
 0001:00052898       _ismbbalnum_l              0000000140053898 f   libucrt:ismbbyte.obj
 0001:000528b8       _ismbbalpha                00000001400538b8 f   libucrt:ismbbyte.obj
 0001:000528d4       _ismbbalpha_l              00000001400538d4 f   libucrt:ismbbyte.obj
 0001:000528f4       _ismbbblank                00000001400538f4 f   libucrt:ismbbyte.obj
 0001:00052918       _ismbbblank_l              0000000140053918 f   libucrt:ismbbyte.obj
 0001:00052940       _ismbbgraph                0000000140053940 f   libucrt:ismbbyte.obj
 0001:0005295c       _ismbbgraph_l              000000014005395c f   libucrt:ismbbyte.obj
 0001:0005297c       _ismbbkalnum               000000014005397c f   libucrt:ismbbyte.obj
 0001:00052994       _ismbbkalnum_l             0000000140053994 f   libucrt:ismbbyte.obj
 0001:000529b0       _ismbbkana                 00000001400539b0 f   libucrt:ismbbyte.obj
 0001:000529b8       _ismbbkana_l               00000001400539b8 f   libucrt:ismbbyte.obj
 0001:00052a38       _ismbbkprint               0000000140053a38 f   libucrt:ismbbyte.obj
 0001:00052a50       _ismbbkprint_l             0000000140053a50 f   libucrt:ismbbyte.obj
 0001:00052a6c       _ismbbkpunct               0000000140053a6c f   libucrt:ismbbyte.obj
 0001:00052a84       _ismbbkpunct_l             0000000140053a84 f   libucrt:ismbbyte.obj
 0001:00052aa0       _ismbblead                 0000000140053aa0 f   libucrt:ismbbyte.obj
 0001:00052ab8       _ismbblead_l               0000000140053ab8 f   libucrt:ismbbyte.obj
 0001:00052ad4       _ismbbprint                0000000140053ad4 f   libucrt:ismbbyte.obj
 0001:00052af0       _ismbbprint_l              0000000140053af0 f   libucrt:ismbbyte.obj
 0001:00052b10       _ismbbpunct                0000000140053b10 f   libucrt:ismbbyte.obj
 0001:00052b28       _ismbbpunct_l              0000000140053b28 f   libucrt:ismbbyte.obj
 0001:00052b44       _ismbbtrail                0000000140053b44 f   libucrt:ismbbyte.obj
 0001:00052b5c       _ismbbtrail_l              0000000140053b5c f   libucrt:ismbbyte.obj
 0001:00052be4       __acrt_MultiByteToWideChar 0000000140053be4 f   libucrt:multibytetowidechar.obj
 0001:00052cac       __acrt_WideCharToMultiByte 0000000140053cac f   libucrt:widechartomultibyte.obj
 0001:00052e48       __dcrt_get_narrow_environment_from_os 0000000140053e48 f   libucrt:get_environment_from_os.obj
 0001:00052f8c       __dcrt_get_wide_environment_from_os 0000000140053f8c f   libucrt:get_environment_from_os.obj
 0001:00053c30       ??$get_or_create_environment_nolock@$$V@?$__crt_char_traits@D@@SAPEAPEADXZ 0000000140054c30 f i libucrt:setenv.obj
 0001:00053c38       ??$get_or_create_environment_nolock@$$V@?$__crt_char_traits@_W@@SAPEAPEA_WXZ 0000000140054c38 f i libucrt:setenv.obj
 0001:00053c40       ??$set_environment_variable@AEBQEADQEAD@?$__crt_char_traits@D@@SAHAEBQEAD$$QEBQEAD@Z 0000000140054c40 f i libucrt:setenv.obj
 0001:00053c50       ??$set_environment_variable@AEBQEA_WQEA_W@?$__crt_char_traits@_W@@SAHAEBQEA_W$$QEBQEA_W@Z 0000000140054c50 f i libucrt:setenv.obj
 0001:00053c60       ??$tcschr@AEBQEADD@?$__crt_char_traits@D@@SAPEADAEBQEAD$$QEAD@Z 0000000140054c60 f i libucrt:setenv.obj
 0001:00053c70       ??$tcschr@AEBQEA_WD@?$__crt_char_traits@_W@@SAPEA_WAEBQEA_W$$QEAD@Z 0000000140054c70 f i libucrt:setenv.obj
 0001:00053c80       ??$tcscpy_s@AEAPEADAEB_KAEAPEAD@?$__crt_char_traits@D@@SAHAEAPEADAEB_K0@Z 0000000140054c80 f i libucrt:setenv.obj
 0001:00053c94       ??$tcscpy_s@AEAPEA_WAEB_KAEAPEA_W@?$__crt_char_traits@_W@@SAHAEAPEA_WAEB_K0@Z 0000000140054c94 f i libucrt:setenv.obj
 0001:00053ca8       ??$tcscpy_s@AEBQEADAEB_KAEBQEAD@?$__crt_char_traits@D@@SAHAEBQEADAEB_K0@Z 0000000140054ca8 f i libucrt:setenv.obj
 0001:00053cbc       ??$tcscpy_s@AEBQEA_WAEB_KAEBQEA_W@?$__crt_char_traits@_W@@SAHAEBQEA_WAEB_K0@Z 0000000140054cbc f i libucrt:setenv.obj
 0001:00053cd0       ??$tcslen@AEBQEAD@?$__crt_char_traits@D@@SA_KAEBQEAD@Z 0000000140054cd0 f i libucrt:setenv.obj
 0001:00053ce8       ??$tcslen@AEBQEA_W@?$__crt_char_traits@_W@@SA_KAEBQEA_W@Z 0000000140054ce8 f i libucrt:setenv.obj
 0001:00053d00       ??$tcsnicoll@AEBQEBDAEAPEADAEB_K@?$__crt_char_traits@D@@SAHAEBQEBDAEAPEADAEB_K@Z 0000000140054d00 f i libucrt:setenv.obj
 0001:00053d14       ??$tcsnicoll@AEBQEB_WAEAPEA_WAEB_K@?$__crt_char_traits@_W@@SAHAEBQEB_WAEAPEA_WAEB_K@Z 0000000140054d14 f i libucrt:setenv.obj
 0001:00053d70       ?strchr@@YAPEADQEADH@Z     0000000140054d70 f i libucrt:setenv.obj
 0001:00053d78       ?wcschr@@YAPEA_WPEA_W_W@Z  0000000140054d78 f i libucrt:setenv.obj
 0001:00053d80       __dcrt_set_variable_in_narrow_environment_nolock 0000000140054d80 f   libucrt:setenv.obj
 0001:00053d88       __dcrt_set_variable_in_wide_environment_nolock 0000000140054d88 f   libucrt:setenv.obj
 0001:00053d90       ??$?RU__crt_lowio_handle_data@@@__crt_internal_free_policy@@QEBAXQEBU__crt_lowio_handle_data@@@Z 0000000140054d90 f i libucrt:osfinfo.obj
 0001:00053d9c       ??0?$__crt_unique_heap_ptr@U__crt_lowio_handle_data@@U__crt_internal_free_policy@@@@QEAA@QEAU__crt_lowio_handle_data@@@Z 0000000140054d9c f i libucrt:osfinfo.obj
 0001:00053da4       ??1?$__crt_unique_heap_ptr@U__crt_lowio_handle_data@@U__crt_internal_free_policy@@@@QEAA@XZ 0000000140054da4 f i libucrt:osfinfo.obj
 0001:00053dc8       ??B?$__crt_unique_heap_ptr@U__crt_lowio_handle_data@@U__crt_internal_free_policy@@@@QEBA_NXZ 0000000140054dc8 f i libucrt:osfinfo.obj
 0001:00053dd4       ?detach@?$__crt_unique_heap_ptr@U__crt_lowio_handle_data@@U__crt_internal_free_policy@@@@QEAAPEAU__crt_lowio_handle_data@@XZ 0000000140054dd4 f i libucrt:osfinfo.obj
 0001:00053de0       ?get@?$__crt_unique_heap_ptr@U__crt_lowio_handle_data@@U__crt_internal_free_policy@@@@QEBAPEAU__crt_lowio_handle_data@@XZ 0000000140054de0 f i libucrt:osfinfo.obj
 0001:00053de4       ?is_valid@?$__crt_unique_heap_ptr@U__crt_lowio_handle_data@@U__crt_internal_free_policy@@@@QEBA_NXZ 0000000140054de4 f i libucrt:osfinfo.obj
 0001:00053df0       ?release@?$__crt_unique_heap_ptr@U__crt_lowio_handle_data@@U__crt_internal_free_policy@@@@QEAAXXZ 0000000140054df0 f i libucrt:osfinfo.obj
 0001:00053e14       __acrt_lowio_create_handle_array 0000000140054e14 f   libucrt:osfinfo.obj
 0001:00053ee4       __acrt_lowio_destroy_handle_array 0000000140054ee4 f   libucrt:osfinfo.obj
 0001:00053f48       __acrt_lowio_ensure_fh_exists 0000000140054f48 f   libucrt:osfinfo.obj
 0001:0005401c       __acrt_lowio_lock_fh       000000014005501c f   libucrt:osfinfo.obj
 0001:0005404c       __acrt_lowio_set_os_handle 000000014005504c f   libucrt:osfinfo.obj
 0001:0005413c       __acrt_lowio_unlock_fh     000000014005513c f   libucrt:osfinfo.obj
 0001:0005416c       _alloc_osfhnd              000000014005516c f   libucrt:osfinfo.obj
 0001:000542fc       _free_osfhnd               00000001400552fc f   libucrt:osfinfo.obj
 0001:000543e4       _get_osfhandle             00000001400553e4 f   libucrt:osfinfo.obj
 0001:00054478       _open_osfhandle            0000000140055478 f   libucrt:osfinfo.obj
 0001:000545bc       ?dangerous_get_state_array@?$dual_state_global@H@__crt_state_management@@QEAAPEAHXZ 00000001400555bc f i libucrt:txtmode.obj
 0001:000545c0       __acrt_initialize_fmode    00000001400555c0 f   libucrt:txtmode.obj
 0001:000545e0       __p__fmode                 00000001400555e0 f   libucrt:txtmode.obj
 0001:000545ec       ??$?RG@__crt_internal_free_policy@@QEBAXQEBG@Z 00000001400555ec f i libucrt:initctype.obj
 0001:000545f8       ??$?RJ@__crt_internal_free_policy@@QEBAXQEBJ@Z 00000001400555f8 f i libucrt:initctype.obj
 0001:00054604       ??0?$__crt_unique_heap_ptr@GU__crt_internal_free_policy@@@@QEAA@QEAG@Z 0000000140055604 f i libucrt:initctype.obj
 0001:0005460c       ??0?$__crt_unique_heap_ptr@JU__crt_internal_free_policy@@@@QEAA@QEAJ@Z 000000014005560c f i libucrt:initctype.obj
 0001:00054614       ??1?$__crt_unique_heap_ptr@GU__crt_internal_free_policy@@@@QEAA@XZ 0000000140055614 f i libucrt:initctype.obj
 0001:00054638       ??1?$__crt_unique_heap_ptr@JU__crt_internal_free_policy@@@@QEAA@XZ 0000000140055638 f i libucrt:initctype.obj
 0001:0005465c       ?detach@?$__crt_unique_heap_ptr@GU__crt_internal_free_policy@@@@QEAAPEAGXZ 000000014005565c f i libucrt:initctype.obj
 0001:00054668       ?detach@?$__crt_unique_heap_ptr@JU__crt_internal_free_policy@@@@QEAAPEAJXZ 0000000140055668 f i libucrt:initctype.obj
 0001:00054674       ?release@?$__crt_unique_heap_ptr@GU__crt_internal_free_policy@@@@QEAAXXZ 0000000140055674 f i libucrt:initctype.obj
 0001:00054698       ?release@?$__crt_unique_heap_ptr@JU__crt_internal_free_policy@@@@QEAAXXZ 0000000140055698 f i libucrt:initctype.obj
 0001:000546bc       ___lc_codepage_func        00000001400556bc f   libucrt:initctype.obj
 0001:000546f8       ___lc_collate_cp_func      00000001400556f8 f   libucrt:initctype.obj
 0001:00054734       ___lc_locale_name_func     0000000140055734 f   libucrt:initctype.obj
 0001:00054774       ___mb_cur_max_func         0000000140055774 f   libucrt:initctype.obj
 0001:000547b0       ___mb_cur_max_l_func       00000001400557b0 f   libucrt:initctype.obj
 0001:000547c4       __acrt_locale_initialize_ctype 00000001400557c4 f   libucrt:initctype.obj
 0001:00054fc0       ??$?RUlconv@@@__crt_internal_free_policy@@QEBAXQEBUlconv@@@Z 0000000140055fc0 f i libucrt:initmon.obj
 0001:00054fcc       ??0?$__crt_unique_heap_ptr@Ulconv@@U__crt_internal_free_policy@@@@QEAA@QEAUlconv@@@Z 0000000140055fcc f i libucrt:initmon.obj
 0001:00054fd4       ??1?$__crt_unique_heap_ptr@Ulconv@@U__crt_internal_free_policy@@@@QEAA@XZ 0000000140055fd4 f i libucrt:initmon.obj
 0001:00054ff8       ?detach@?$__crt_unique_heap_ptr@Ulconv@@U__crt_internal_free_policy@@@@QEAAPEAUlconv@@XZ 0000000140055ff8 f i libucrt:initmon.obj
 0001:00055004       ?release@?$__crt_unique_heap_ptr@Ulconv@@U__crt_internal_free_policy@@@@QEAAXXZ 0000000140056004 f i libucrt:initmon.obj
 0001:00055028       __acrt_locale_free_monetary 0000000140056028 f   libucrt:initmon.obj
 0001:00055174       __acrt_locale_initialize_monetary 0000000140056174 f   libucrt:initmon.obj
 0001:00055834       __acrt_locale_free_numeric 0000000140056834 f   libucrt:initnum.obj
 0001:000558bc       __acrt_locale_initialize_numeric 00000001400568bc f   libucrt:initnum.obj
 0001:00055c9c       ??$?RU__crt_lc_time_data@@@__crt_internal_free_policy@@QEBAXQEBU__crt_lc_time_data@@@Z 0000000140056c9c f i libucrt:inittime.obj
 0001:00055cf0       ??0?$__crt_unique_heap_ptr@U__crt_lc_time_data@@U__crt_internal_free_policy@@@@QEAA@QEAU__crt_lc_time_data@@@Z 0000000140056cf0 f i libucrt:inittime.obj
 0001:00055cf8       ??1?$__crt_unique_heap_ptr@U__crt_lc_time_data@@U__crt_internal_free_policy@@@@QEAA@XZ 0000000140056cf8 f i libucrt:inittime.obj
 0001:00055d1c       ??B?$__crt_unique_heap_ptr@U__crt_lc_time_data@@U__crt_internal_free_policy@@@@QEBA_NXZ 0000000140056d1c f i libucrt:inittime.obj
 0001:00055d28       ?detach@?$__crt_unique_heap_ptr@U__crt_lc_time_data@@U__crt_internal_free_policy@@@@QEAAPEAU__crt_lc_time_data@@XZ 0000000140056d28 f i libucrt:inittime.obj
 0001:00055da4       ?get@?$__crt_unique_heap_ptr@U__crt_lc_time_data@@U__crt_internal_free_policy@@@@QEBAPEAU__crt_lc_time_data@@XZ 0000000140056da4 f i libucrt:inittime.obj
 0001:0005624c       ?is_valid@?$__crt_unique_heap_ptr@U__crt_lc_time_data@@U__crt_internal_free_policy@@@@QEBA_NXZ 000000014005724c f i libucrt:inittime.obj
 0001:00056258       ?release@?$__crt_unique_heap_ptr@U__crt_lc_time_data@@U__crt_internal_free_policy@@@@QEAAXXZ 0000000140057258 f i libucrt:inittime.obj
 0001:0005627c       __acrt_locale_free_time    000000014005727c f   libucrt:inittime.obj
 0001:000563c8       __acrt_locale_initialize_time 00000001400573c8 f   libucrt:inittime.obj
 0001:0005648c       __pctype_func              000000014005748c f   libucrt:ctype.obj
 0001:000564c8       __pwctype_func             00000001400574c8 f   libucrt:ctype.obj
 0001:00056608       wcsncat_s                  0000000140057608 f   libucrt:wcsncat_s.obj
 0001:00056744       wcscspn                    0000000140057744 f   libucrt:wcscspn.obj
 0001:00056794       wcspbrk                    0000000140057794 f   libucrt:wcspbrk.obj
 0001:000567d8       ??0?$__crt_scoped_stack_ptr@_W@@QEAA@U?$__crt_scoped_stack_ptr_tag@_W@@@Z 00000001400577d8 f i libucrt:getstringtypea.obj
 0001:000567e0       ??0?$__crt_scoped_stack_ptr_tag@_W@@QEAA@QEA_W@Z 00000001400577e0 f i libucrt:getstringtypea.obj
 0001:000567e8       ??1?$__crt_scoped_stack_ptr@_W@@QEAA@XZ 00000001400577e8 f i libucrt:getstringtypea.obj
 0001:00056814       ?get@?$__crt_scoped_stack_ptr@_W@@QEBAPEA_WXZ 0000000140057814 f i libucrt:getstringtypea.obj
 0001:00056818       _MallocaComputeSize        0000000140057818 f i libucrt:getstringtypea.obj
 0001:0005682c       _MarkAllocaS               000000014005782c f i libucrt:getstringtypea.obj
 0001:00056840       __acrt_GetStringTypeA      0000000140057840 f   libucrt:getstringtypea.obj
 0001:00056a30       _freea_crt                 0000000140057a30 f i libucrt:getstringtypea.obj
 0001:00056a58       __acrt_add_locale_ref      0000000140057a58 f   libucrt:locale_refcounting.obj
 0001:00056b08       __acrt_free_locale         0000000140057b08 f   libucrt:locale_refcounting.obj
 0001:00056cdc       __acrt_locale_add_lc_time_reference 0000000140057cdc f   libucrt:locale_refcounting.obj
 0001:00056d0c       __acrt_locale_free_lc_time_if_unreferenced 0000000140057d0c f   libucrt:locale_refcounting.obj
 0001:00056d50       __acrt_locale_release_lc_time_reference 0000000140057d50 f   libucrt:locale_refcounting.obj
 0001:00056d80       __acrt_release_locale_ref  0000000140057d80 f   libucrt:locale_refcounting.obj
 0001:00056e54       __acrt_update_thread_locale_data 0000000140057e54 f   libucrt:locale_refcounting.obj
 0001:00056ee0       _updatetlocinfoEx_nolock   0000000140057ee0 f   libucrt:locale_refcounting.obj
 0001:000579c4       __acrt_get_qualified_locale 00000001400589c4 f   libucrt:get_qualified_locale.obj
 0001:00058784       __acrt_get_qualified_locale_downlevel 0000000140059784 f   libucrt:getqloc_downlevel.obj
 0001:00058aa4       localeconv                 0000000140059aa4 f   libucrt:localeconv.obj
 0001:00058ae4       _recalloc                  0000000140059ae4 f   libucrt:recalloc.obj
 0001:00058aec       _recalloc_base             0000000140059aec f   libucrt:recalloc.obj
 0001:00058ba8       __acrt_getheap             0000000140059ba8 f   libucrt:heap_handle.obj
 0001:00058bb4       __acrt_initialize_heap     0000000140059bb4 f   libucrt:heap_handle.obj
 0001:00058bd8       __acrt_uninitialize_heap   0000000140059bd8 f   libucrt:heap_handle.obj
 0001:00058be8       _get_heap_handle           0000000140059be8 f   libucrt:heap_handle.obj
 0001:00058bf4       __acrt_execute_initializers 0000000140059bf4 f   libucrt:shared_initialization.obj
 0001:00058c94       __acrt_execute_uninitializers 0000000140059c94 f   libucrt:shared_initialization.obj
 0001:00058ce0       ??$?B$$A6AH_K@Z@__crt_fast_encoded_nullptr_t@@QEBAP6AH_K@ZXZ 0000000140059ce0 f i libucrt:new_handler.obj
 0001:00058cec       ??$__crt_fast_decode_pointer@P6AH_K@Z@@YAP6AH_K@ZQ6AH0@Z@Z 0000000140059cec f i libucrt:new_handler.obj
 0001:00058d08       ??$__crt_fast_encode_pointer@P6AH_K@Z@@YAP6AH_K@ZQ6AH0@Z@Z 0000000140059d08 f i libucrt:new_handler.obj
 0001:00058d30       ?_set_new_handler@@YAP6AH_K@ZH@Z 0000000140059d30 f   libucrt:new_handler.obj
 0001:00058d40       ?initialize@?$dual_state_global@P6AH_K@Z@__crt_state_management@@QEAAXQ6AH_K@Z@Z 0000000140059d40 f i libucrt:new_handler.obj
 0001:00058d70       ?value@?$dual_state_global@P6AH_K@Z@__crt_state_management@@QEAAAEAP6AH_K@ZXZ 0000000140059d70 f i libucrt:new_handler.obj
 0001:00058d74       __acrt_initialize_new_handler 0000000140059d74 f   libucrt:new_handler.obj
 0001:00058d80       _callnewh                  0000000140059d80 f   libucrt:new_handler.obj
 0001:00058dbc       _query_new_handler         0000000140059dbc f   libucrt:new_handler.obj
 0001:00058e00       _set_new_handler           0000000140059e00 f   libucrt:new_handler.obj
 0001:00058e70       ??$?B$$A6AXH@Z@__crt_fast_encoded_nullptr_t@@QEBAP6AXH@ZXZ 0000000140059e70 f i libucrt:signal.obj
 0001:00058f04       ??$__crt_fast_decode_pointer@P6AXH@Z@@YAP6AXH@ZQ6AXH@Z@Z 0000000140059f04 f i libucrt:signal.obj
 0001:00058f20       ??$__crt_fast_encode_pointer@P6AXH@Z@@YAP6AXH@ZQ6AXH@Z@Z 0000000140059f20 f i libucrt:signal.obj
 0001:00059090       ?initialize@?$dual_state_global@P6AXH@Z@__crt_state_management@@QEAAXQ6AXH@Z@Z 000000014005a090 f i libucrt:signal.obj
 0001:0005914c       ?value@?$dual_state_global@P6AXH@Z@__crt_state_management@@QEAAAEAP6AXH@ZXZ 000000014005a14c f i libucrt:signal.obj
 0001:00059150       __acrt_get_sigabrt_handler 000000014005a150 f   libucrt:signal.obj
 0001:0005918c       __acrt_initialize_signal_handlers 000000014005a18c f   libucrt:signal.obj
 0001:000591b0       __fpecode                  000000014005a1b0 f   libucrt:signal.obj
 0001:000591c8       __pxcptinfoptrs            000000014005a1c8 f   libucrt:signal.obj
 0001:000591e0       raise                      000000014005a1e0 f   libucrt:signal.obj
 0001:000594e4       signal                     000000014005a4e4 f   libucrt:signal.obj
 0001:00059734       _iswctype_l                000000014005a734 f   libucrt:iswctype.obj
 0001:0005973c       iswctype                   000000014005a73c f   libucrt:iswctype.obj
 0001:000597c4       _isctype                   000000014005a7c4 f   libucrt:isctype.obj
 0001:00059800       _isctype_l                 000000014005a800 f   libucrt:isctype.obj
 0001:0005994c       _isleadbyte_fast_internal  000000014005a94c f i libucrt:isctype.obj
 0001:00059a74       __acrt_DownlevelLCIDToLocaleName 000000014005aa74 f   libucrt:lcidtoname_downlevel.obj
 0001:00059ba8       __acrt_DownlevelLocaleNameToLCID 000000014005aba8 f   libucrt:lcidtoname_downlevel.obj
 0001:00059e18       _commit                    000000014005ae18 f   libucrt:commit.obj
 0001:0005ab60       _write                     000000014005bb60 f   libucrt:write.obj
 0001:0005ac88       _write_nolock              000000014005bc88 f   libucrt:write.obj
 0001:0005b024       _ungetc_nolock             000000014005c024 f   libucrt:ungetc.obj
 0001:0005b194       ungetc                     000000014005c194 f   libucrt:ungetc.obj
 0001:0005b204       __ascii_wcsnicmp           000000014005c204 f   libucrt:wcsnicmp.obj
 0001:0005b264       _towlower_fast_internal    000000014005c264 f i libucrt:wcsnicmp.obj
 0001:0005b294       _towlower_internal         000000014005c294 f i libucrt:wcsnicmp.obj
 0001:0005b2d8       _wcsnicmp                  000000014005c2d8 f   libucrt:wcsnicmp.obj
 0001:0005b330       _wcsnicmp_l                000000014005c330 f   libucrt:wcsnicmp.obj
 0001:0005b4d4       __ascii_strnicmp           000000014005c4d4 f   libucrt:strnicmp.obj
 0001:0005b530       _strnicmp                  000000014005c530 f   libucrt:strnicmp.obj
 0001:0005b594       _strnicmp_l                000000014005c594 f   libucrt:strnicmp.obj
 0001:0005bbe4       ??$tsopen_nolock@PEAHAEBQEAHAEBQEBDAEBHAEBHAEBHAEBH@?$__crt_char_traits@D@@SAH$$QEAPEAHAEBQEAHAEBQEBDAEBH333@Z 000000014005cbe4 f i libucrt:open.obj
 0001:0005bc2c       ??$tsopen_nolock@PEAHAEBQEAHAEBQEB_WAEBHAEBHAEBHAEBH@?$__crt_char_traits@_W@@SAH$$QEAPEAHAEBQEAHAEBQEB_WAEBH333@Z 000000014005cc2c f i libucrt:open.obj
 0001:0005bc74       ??$tsopen_nolock@PEAHPEAHAEBQEBDAEBHHAEBHH@?$__crt_char_traits@D@@SAH$$QEAPEAH0AEBQEBDAEBH$$QEAH23@Z 000000014005cc74 f i libucrt:open.obj
 0001:0005bcbc       ??$tsopen_nolock@PEAHPEAHAEBQEB_WAEBHHAEBHH@?$__crt_char_traits@_W@@SAH$$QEAPEAH0AEBQEB_WAEBH$$QEAH23@Z 000000014005ccbc f i libucrt:open.obj
 0001:0005c608       _open                      000000014005d608 f   libucrt:open.obj
 0001:0005c634       _sopen                     000000014005d634 f   libucrt:open.obj
 0001:0005c688       _sopen_dispatch            000000014005d688 f   libucrt:open.obj
 0001:0005c690       _sopen_nolock              000000014005d690 f   libucrt:open.obj
 0001:0005c7ec       _sopen_s                   000000014005d7ec f   libucrt:open.obj
 0001:0005c82c       _wopen                     000000014005d82c f   libucrt:open.obj
 0001:0005c858       _wsopen                    000000014005d858 f   libucrt:open.obj
 0001:0005c8ac       _wsopen_dispatch           000000014005d8ac f   libucrt:open.obj
 0001:0005c8b4       _wsopen_nolock             000000014005d8b4 f   libucrt:open.obj
 0001:0005cd94       _wsopen_s                  000000014005dd94 f   libucrt:open.obj
 0001:0005cdd4       _isatty                    000000014005ddd4 f   libucrt:isatty.obj
 0001:0005ce4c       __acrt_stdio_allocate_buffer_nolock 000000014005de4c f   libucrt:_getbuf.obj
 0001:0005ced4       __iswcsym                  000000014005ded4 f i libucrt:_wctype.obj
 0001:0005cf0c       __iswcsymf                 000000014005df0c f i libucrt:_wctype.obj
 0001:0005cf44       _isleadbyte_l              000000014005df44 f i libucrt:_wctype.obj
 0001:0005cfa4       _iswalnum_l                000000014005dfa4 f i libucrt:_wctype.obj
 0001:0005cfb0       _iswalpha_l                000000014005dfb0 f i libucrt:_wctype.obj
 0001:0005cfbc       _iswblank_l                000000014005dfbc f i libucrt:_wctype.obj
 0001:0005cfd8       _iswcntrl_l                000000014005dfd8 f i libucrt:_wctype.obj
 0001:0005cfe4       _iswcsym_l                 000000014005dfe4 f i libucrt:_wctype.obj
 0001:0005d01c       _iswcsymf_l                000000014005e01c f i libucrt:_wctype.obj
 0001:0005d054       _iswdigit_l                000000014005e054 f i libucrt:_wctype.obj
 0001:0005d060       _iswgraph_l                000000014005e060 f i libucrt:_wctype.obj
 0001:0005d06c       _iswlower_l                000000014005e06c f i libucrt:_wctype.obj
 0001:0005d078       _iswprint_l                000000014005e078 f i libucrt:_wctype.obj
 0001:0005d084       _iswpunct_l                000000014005e084 f i libucrt:_wctype.obj
 0001:0005d090       _iswspace_l                000000014005e090 f i libucrt:_wctype.obj
 0001:0005d09c       _iswupper_l                000000014005e09c f i libucrt:_wctype.obj
 0001:0005d0a8       _iswxdigit_l               000000014005e0a8 f i libucrt:_wctype.obj
 0001:0005d0b4       isleadbyte                 000000014005e0b4 f i libucrt:_wctype.obj
 0001:0005d114       iswalnum                   000000014005e114 f i libucrt:_wctype.obj
 0001:0005d120       iswalpha                   000000014005e120 f i libucrt:_wctype.obj
 0001:0005d12c       iswascii                   000000014005e12c f i libucrt:_wctype.obj
 0001:0005d140       iswblank                   000000014005e140 f i libucrt:_wctype.obj
 0001:0005d15c       iswcntrl                   000000014005e15c f i libucrt:_wctype.obj
 0001:0005d168       iswdigit                   000000014005e168 f i libucrt:_wctype.obj
 0001:0005d174       iswgraph                   000000014005e174 f i libucrt:_wctype.obj
 0001:0005d180       iswlower                   000000014005e180 f i libucrt:_wctype.obj
 0001:0005d18c       iswprint                   000000014005e18c f i libucrt:_wctype.obj
 0001:0005d198       iswpunct                   000000014005e198 f i libucrt:_wctype.obj
 0001:0005d1a4       iswspace                   000000014005e1a4 f i libucrt:_wctype.obj
 0001:0005d1b0       iswupper                   000000014005e1b0 f i libucrt:_wctype.obj
 0001:0005d1bc       iswxdigit                  000000014005e1bc f i libucrt:_wctype.obj
 0001:0005d1f8       ?__mbrtowc_utf8@__crt_mbstring@@YA_KPEA_WPEBD_KPEAU_Mbstatet@@@Z 000000014005e1f8 f   libucrt:mbrtowc.obj
 0001:0005d240       ?__mbsrtowcs_utf8@__crt_mbstring@@YA_KPEA_WPEAPEBD_KPEAU_Mbstatet@@@Z 000000014005e240 f   libucrt:mbrtowc.obj
 0001:0005d8b4       btowc                      000000014005e8b4 f   libucrt:mbrtowc.obj
 0001:0005d934       mbrlen                     000000014005e934 f   libucrt:mbrtowc.obj
 0001:0005d984       mbrtowc                    000000014005e984 f   libucrt:mbrtowc.obj
 0001:0005d9fc       mbsrtowcs                  000000014005e9fc f   libucrt:mbrtowc.obj
 0001:0005da04       mbsrtowcs_s                000000014005ea04 f   libucrt:mbrtowc.obj
 0001:0005dafc       ?__c32rtomb_utf8@__crt_mbstring@@YA_KPEAD_UPEAU_Mbstatet@@@Z 000000014005eafc f   libucrt:c32rtomb.obj
 0001:0005dbdc       ?reset_and_return@__crt_mbstring@@YA_K_KPEAU_Mbstatet@@@Z 000000014005ebdc f i libucrt:c32rtomb.obj
 0001:0005dbe8       ?return_illegal_sequence@__crt_mbstring@@YA_KPEAU_Mbstatet@@@Z 000000014005ebe8 f i libucrt:c32rtomb.obj
 0001:0005dc0c       c32rtomb                   000000014005ec0c f   libucrt:c32rtomb.obj
 0001:0005dcf0       __acrt_fp_strflt_to_string 000000014005ecf0 f   libucrt:_fptostr.obj
 0001:0005f450       ??0big_integer@__crt_strtox@@QEAA@AEBU01@@Z 0000000140060450 f i libucrt:cfout.obj
 0001:0005f490       ??0big_integer@__crt_strtox@@QEAA@XZ 0000000140060490 f i libucrt:cfout.obj
 0001:0005f510       ??4big_integer@__crt_strtox@@QEAAAEAU01@AEBU01@@Z 0000000140060510 f i libucrt:cfout.obj
 0001:0005f550       ??8__crt_strtox@@YA_NAEBUbig_integer@0@0@Z 0000000140060550 f i libucrt:cfout.obj
 0001:0005f590       ??9__crt_strtox@@YA_NAEBUbig_integer@0@0@Z 0000000140060590 f i libucrt:cfout.obj
 0001:0005f5e0       ?add_carry@__crt_strtox@@YAIAEAIII@Z 00000001400605e0 f i libucrt:cfout.obj
 0001:0005f600       ?add_multiply_carry@__crt_strtox@@YAIAEAIIII@Z 0000000140060600 f i libucrt:cfout.obj
 0001:0005f630       ?bit_scan_reverse@__crt_strtox@@YAII@Z 0000000140060630 f i libucrt:cfout.obj
 0001:0005f650       ?count_sequential_high_zeroes@__crt_strtox@@YAII@Z 0000000140060650 f i libucrt:cfout.obj
 0001:0005f670       ?divide@__crt_strtox@@YA_KAEAUbig_integer@1@AEBU21@@Z 0000000140060670 f i libucrt:cfout.obj
 0001:0005fbb0       ?is_zero@__crt_strtox@@YA_NAEBUbig_integer@1@@Z 0000000140060bb0 f i libucrt:cfout.obj
 0001:0005fbc0       ?make_big_integer@__crt_strtox@@YA?AUbig_integer@1@_K@Z 0000000140060bc0 f i libucrt:cfout.obj
 0001:0005fbe0       ?make_big_integer_power_of_two@__crt_strtox@@YA?AUbig_integer@1@I@Z 0000000140060be0 f i libucrt:cfout.obj
 0001:0005fc60       ?multiply@__crt_strtox@@YA_NAEAUbig_integer@1@AEBU21@@Z 0000000140060c60 f i libucrt:cfout.obj
 0001:00060100       ?multiply@__crt_strtox@@YA_NAEAUbig_integer@1@I@Z 0000000140061100 f i libucrt:cfout.obj
 0001:00060230       ?multiply_64_32@__crt_strtox@@YA_K_KI@Z 0000000140061230 f i libucrt:cfout.obj
 0001:00060240       ?multiply_by_power_of_ten@__crt_strtox@@YA_NAEAUbig_integer@1@I@Z 0000000140061240 f i libucrt:cfout.obj
 0001:00060960       ?multiply_core@__crt_strtox@@YAIQEAIII@Z 0000000140061960 f i libucrt:cfout.obj
 0001:000609c0       ?shift_left@__crt_strtox@@YA_NAEAUbig_integer@1@I@Z 00000001400619c0 f i libucrt:cfout.obj
 0001:00060b9c       __acrt_fltout              0000000140061b9c f   libucrt:cfout.obj
 0001:0006231c       __fpe_flt_rounds           000000014006331c f   libucrt:fegetround.obj
 0001:00062374       fegetround                 0000000140063374 f   libucrt:fegetround.obj
 0001:0006283c       __acrt_stdio_flush_and_write_narrow_nolock 000000014006383c f   libucrt:_flsbuf.obj
 0001:00062920       __acrt_stdio_flush_and_write_wide_nolock 0000000140063920 f   libucrt:_flsbuf.obj
 0001:00062a0c       __acrt_OutputDebugStringA  0000000140063a0c f   libucrt:outputdebugstringa.obj
 0001:00062c00       qsort                      0000000140063c00 f   libucrt:qsort.obj
 0001:0006317c       strncpy_s                  000000014006417c f   libucrt:strncpy_s.obj
 0001:00063350       strpbrk                    0000000140064350 f   libucrt:strpbrk.obj
 0001:0006380c       _mbsdec                    000000014006480c f   libucrt:mbsdec.obj
 0001:00063818       _mbsdec_l                  0000000140064818 f   libucrt:mbsdec.obj
 0001:000638d4       ??B?$__crt_scoped_stack_ptr@_W@@QEBA_NXZ 00000001400648d4 f i libucrt:lcmapstringa.obj
 0001:00063cbc       __acrt_LCMapStringA        0000000140064cbc f   libucrt:lcmapstringa.obj
 0001:00063d94       _wcsnicoll                 0000000140064d94 f   libucrt:wcsnicol.obj
 0001:00063df8       _wcsnicoll_l               0000000140064df8 f   libucrt:wcsnicol.obj
 0001:00063f24       _strnicoll                 0000000140064f24 f   libucrt:strnicol.obj
 0001:00063f40       _strnicoll_l               0000000140064f40 f   libucrt:strnicol.obj
 0001:00064288       __acrt_SetEnvironmentVariableA 0000000140065288 f   libucrt:setenvironmentvariablea.obj
 0001:0006465c       __acrt_GetLocaleInfoA      000000014006565c f   libucrt:getlocaleinfoa.obj
 0001:00064eb4       _i64toa                    0000000140065eb4 f   libucrt:xtoa.obj
 0001:00064ef4       _i64toa_s                  0000000140065ef4 f   libucrt:xtoa.obj
 0001:00064f20       _i64tow                    0000000140065f20 f   libucrt:xtoa.obj
 0001:00064f60       _i64tow_s                  0000000140065f60 f   libucrt:xtoa.obj
 0001:00064f8c       _itoa                      0000000140065f8c f   libucrt:xtoa.obj
 0001:00064fc8       _itoa_s                    0000000140065fc8 f   libucrt:xtoa.obj
 0001:00064ff0       _itow                      0000000140065ff0 f   libucrt:xtoa.obj
 0001:0006502c       _itow_s                    000000014006602c f   libucrt:xtoa.obj
 0001:00065054       _ltoa                      0000000140066054 f   libucrt:xtoa.obj
 0001:00065090       _ltoa_s                    0000000140066090 f   libucrt:xtoa.obj
 0001:000650b8       _ltow                      00000001400660b8 f   libucrt:xtoa.obj
 0001:000650f4       _ltow_s                    00000001400660f4 f   libucrt:xtoa.obj
 0001:0006511c       _ui64toa                   000000014006611c f   libucrt:xtoa.obj
 0001:00065148       _ui64toa_s                 0000000140066148 f   libucrt:xtoa.obj
 0001:00065160       _ui64tow                   0000000140066160 f   libucrt:xtoa.obj
 0001:0006518c       _ui64tow_s                 000000014006618c f   libucrt:xtoa.obj
 0001:000651a4       _ultoa                     00000001400661a4 f   libucrt:xtoa.obj
 0001:000651d0       _ultoa_s                   00000001400661d0 f   libucrt:xtoa.obj
 0001:000651e8       _ultow                     00000001400661e8 f   libucrt:xtoa.obj
 0001:00065214       _ultow_s                   0000000140066214 f   libucrt:xtoa.obj
 0001:0006522c       __ascii_wcsicmp            000000014006622c f   libucrt:wcsicmp.obj
 0001:0006527c       _wcsicmp                   000000014006627c f   libucrt:wcsicmp.obj
 0001:000652d4       _wcsicmp_l                 00000001400662d4 f   libucrt:wcsicmp.obj
 0001:00065444       wcscmp                     0000000140066444 f   libucrt:wcscmp.obj
 0001:00065488       _msize                     0000000140066488 f   libucrt:msize.obj
 0001:00065490       _msize_base                0000000140066490 f   libucrt:msize.obj
 0001:000654d8       _realloc_base              00000001400664d8 f   libucrt:realloc_base.obj
 0001:00065570       __acrt_GetStringTypeW      0000000140066570 f   libucrt:getstringtypew.obj
 0001:00065638       _putwch                    0000000140066638 f   libucrt:putwch.obj
 0001:00065684       _putwch_nolock             0000000140066684 f   libucrt:putwch.obj
 0001:000656d0       _towlower_l                00000001400666d0 f   libucrt:towlower.obj
 0001:000657bc       towlower                   00000001400667bc f   libucrt:towlower.obj
 0001:000658b0       ??0__crt_seek_guard@@QEAA@H_J@Z 00000001400668b0 f i libucrt:chsize.obj
 0001:0006591c       ??1__crt_seek_guard@@QEAA@XZ 000000014006691c f i libucrt:chsize.obj
 0001:000659a8       _chsize                    00000001400669a8 f   libucrt:chsize.obj
 0001:000659c4       _chsize_nolock             00000001400669c4 f   libucrt:chsize.obj
 0001:00065b8c       _chsize_s                  0000000140066b8c f   libucrt:chsize.obj
 0001:00065c84       _umask                     0000000140066c84 f   libucrt:umask.obj
 0001:00065c9c       _umask_s                   0000000140066c9c f   libucrt:umask.obj
 0001:00065ce8       ?__mbrtoc32_utf8@__crt_mbstring@@YA_KPEA_UPEBD_KPEAU_Mbstatet@@@Z 0000000140066ce8 f   libucrt:mbrtoc32.obj
 0001:00065f34       mbrtoc32                   0000000140066f34 f   libucrt:mbrtoc32.obj
 0001:00065f3c       _controlfp_s               0000000140066f3c f   libucrt:contrlfp.obj
 0001:00065fb8       fegetenv                   0000000140066fb8 f   libucrt:fegetenv.obj
 0001:00065fe0       fesetenv                   0000000140066fe0 f   libucrt:fesetenv.obj
 0001:00066040       feholdexcept               0000000140067040 f   libucrt:feholdexcept.obj
 0001:000660a4       ceil                       00000001400670a4 f   libucrt:ceil.obj
 0001:000661a0       log10                      00000001400671a0 f   libucrt:log10.obj
 0001:000668b8       ??$__acrt_fenv_shift_bits@W4__acrt_fenv_abstract_control@@@@YA?AW4__acrt_fenv_abstract_control@@W40@0I@Z 00000001400678b8 f i libucrt:_fenvutils.obj
 0001:000668c4       ??$__acrt_fenv_shift_bits@W4__acrt_fenv_abstract_status@@@@YA?AW4__acrt_fenv_abstract_status@@W40@0I@Z 00000001400678c4 f i libucrt:_fenvutils.obj
 0001:000668d0       ??$__acrt_fenv_translate_bit@W4__acrt_fenv_abstract_control@@W4__acrt_fenv_machine_sse_control@@@@YA?AW4__acrt_fenv_abstract_control@@W4__acrt_fenv_machine_sse_control@@0W40@1@Z 00000001400678d0 f i libucrt:_fenvutils.obj
 0001:000668e0       ??$__acrt_fenv_translate_bit@W4__acrt_fenv_abstract_status@@W4__acrt_fenv_machine_sse_status@@@@YA?AW4__acrt_fenv_abstract_status@@W4__acrt_fenv_machine_sse_status@@0W40@1@Z 00000001400678e0 f i libucrt:_fenvutils.obj
 0001:000668ec       ??$__acrt_fenv_translate_bit@W4__acrt_fenv_machine_sse_control@@W4__acrt_fenv_abstract_control@@@@YA?AW4__acrt_fenv_machine_sse_control@@W4__acrt_fenv_abstract_control@@0W40@1@Z 00000001400678ec f i libucrt:_fenvutils.obj
 0001:000668fc       ??$__acrt_fenv_translate_bit@W4__acrt_fenv_machine_sse_status@@W4__acrt_fenv_abstract_status@@@@YA?AW4__acrt_fenv_machine_sse_status@@W4__acrt_fenv_abstract_status@@0W40@1@Z 00000001400678fc f i libucrt:_fenvutils.obj
 0001:00066908       ??$__acrt_fenv_unshift_bits@W4__acrt_fenv_abstract_control@@@@YA?AW4__acrt_fenv_abstract_control@@W40@0I@Z 0000000140067908 f i libucrt:_fenvutils.obj
 0001:00066914       ??$__acrt_fenv_unshift_bits@W4__acrt_fenv_abstract_status@@@@YA?AW4__acrt_fenv_abstract_status@@W40@0I@Z 0000000140067914 f i libucrt:_fenvutils.obj
 0001:00066bf0       ??I@YA?AW4__acrt_fenv_abstract_control@@W40@0@Z 0000000140067bf0 f i libucrt:_fenvutils.obj
 0001:00066bf8       ??I@YA?AW4__acrt_fenv_abstract_status@@W40@0@Z 0000000140067bf8 f i libucrt:_fenvutils.obj
 0001:00066c00       ??I@YA?AW4__acrt_fenv_machine_sse_control@@W40@0@Z 0000000140067c00 f i libucrt:_fenvutils.obj
 0001:00066c08       ??I@YA?AW4__acrt_fenv_machine_sse_status@@W40@0@Z 0000000140067c08 f i libucrt:_fenvutils.obj
 0001:00066c10       ??U@YA?AW4__acrt_fenv_abstract_control@@W40@0@Z 0000000140067c10 f i libucrt:_fenvutils.obj
 0001:00066c18       ??U@YA?AW4__acrt_fenv_abstract_status@@W40@0@Z 0000000140067c18 f i libucrt:_fenvutils.obj
 0001:00066c20       ??U@YA?AW4__acrt_fenv_machine_sse_control@@W40@0@Z 0000000140067c20 f i libucrt:_fenvutils.obj
 0001:00066c28       ??_5@YAAEAW4__acrt_fenv_abstract_control@@AEAW40@W40@@Z 0000000140067c28 f i libucrt:_fenvutils.obj
 0001:00066c30       ??_5@YAAEAW4__acrt_fenv_abstract_status@@AEAW40@W40@@Z 0000000140067c30 f i libucrt:_fenvutils.obj
 0001:00066c38       ??_5@YAAEAW4__acrt_fenv_machine_sse_control@@AEAW40@W40@@Z 0000000140067c38 f i libucrt:_fenvutils.obj
 0001:00066c40       ??_5@YAAEAW4__acrt_fenv_machine_sse_status@@AEAW40@W40@@Z 0000000140067c40 f i libucrt:_fenvutils.obj
 0001:00066c48       ?__acrt_fenv_shift_abstract_sse_control@@YA?AW4__acrt_fenv_abstract_control@@W41@@Z 0000000140067c48 f i libucrt:_fenvutils.obj
 0001:00066c60       ?__acrt_fenv_shift_abstract_sse_status@@YA?AW4__acrt_fenv_abstract_status@@W41@@Z 0000000140067c60 f i libucrt:_fenvutils.obj
 0001:00066c6c       ?__acrt_fenv_unshift_abstract_sse_control@@YA?AW4__acrt_fenv_abstract_control@@W41@@Z 0000000140067c6c f i libucrt:_fenvutils.obj
 0001:00066c88       ?__acrt_fenv_unshift_abstract_sse_status@@YA?AW4__acrt_fenv_abstract_status@@W41@@Z 0000000140067c88 f i libucrt:_fenvutils.obj
 0001:0006708c       __acrt_fenv_expand_round_control 000000014006808c f   libucrt:_fenvutils.obj
 0001:000670a8       __acrt_fenv_get_common_round_control 00000001400680a8 f   libucrt:_fenvutils.obj
 0001:000670b4       __acrt_fenv_get_control    00000001400680b4 f   libucrt:_fenvutils.obj
 0001:000671e4       __acrt_fenv_get_fp_status_word_from_exception_mask 00000001400681e4 f   libucrt:_fenvutils.obj
 0001:000671f4       __acrt_fenv_get_status     00000001400681f4 f   libucrt:_fenvutils.obj
 0001:0006725c       __acrt_fenv_set_control    000000014006825c f   libucrt:_fenvutils.obj
 0001:000673f4       __acrt_fenv_set_status     00000001400683f4 f   libucrt:_fenvutils.obj
 0001:00067718       _mbstowcs_l                0000000140068718 f   libucrt:mbstowcs.obj
 0001:00067720       _mbstowcs_s_l              0000000140068720 f   libucrt:mbstowcs.obj
 0001:000678a0       mbstowcs                   00000001400688a0 f   libucrt:mbstowcs.obj
 0001:000678c0       mbstowcs_s                 00000001400688c0 f   libucrt:mbstowcs.obj
 0001:000678e8       __strncnt                  00000001400688e8 f   libucrt:strncnt.obj
 0001:00067904       __acrt_CompareStringW      0000000140068904 f   libucrt:comparestringw.obj
 0001:00067e24       __acrt_CompareStringA      0000000140068e24 f   libucrt:comparestringa.obj
 0001:0006803c       __dcrt_lowio_ensure_console_output_initialized 000000014006903c f   libucrt:initcon.obj
 0001:000680a4       __dcrt_terminate_console_output 00000001400690a4 f   libucrt:initcon.obj
 0001:000680c8       __dcrt_write_console       00000001400690c8 f   libucrt:initcon.obj
 0001:000681b8       __acrt_LCMapStringW        00000001400691b8 f   libucrt:lcmapstringw.obj
 0001:000683cc       _clearfp                   00000001400693cc f   libucrt:ieee.obj
 0001:00068458       _control87                 0000000140069458 f   libucrt:ieee.obj
 0001:00068460       _controlfp                 0000000140069460 f   libucrt:ieee.obj
 0001:0006846c       _fpreset                   000000014006946c f   libucrt:ieee.obj
 0001:00068568       _set_controlfp             0000000140069568 f   libucrt:ieee.obj
 0001:000685ac       _statusfp                  00000001400695ac f   libucrt:ieee.obj
 0001:00068b00       _handle_error              0000000140069b00 f   libucrt:libm_error.obj
 0001:00068c70       _handle_errorf             0000000140069c70 f   libucrt:libm_error.obj
 0001:00068df0       _handle_nan                0000000140069df0 f   libucrt:libm_error.obj
 0001:00068e10       _handle_nanf               0000000140069e10 f   libucrt:libm_error.obj
 0001:00068e30       __acrt_initialize_fma3     0000000140069e30 f   libucrt:fma3_available.obj
 0001:00068ebc       _get_FMA3_enable           0000000140069ebc f   libucrt:fma3_available.obj
 0001:00068ec4       _set_FMA3_enable           0000000140069ec4 f   libucrt:fma3_available.obj
 0001:00068ee0       _log10_special             0000000140069ee0 f   libucrt:log_special.obj
 0001:00068f08       _log10f_special            0000000140069f08 f   libucrt:log_special.obj
 0001:00068f30       _log_special               0000000140069f30 f   libucrt:log_special.obj
 0001:00069014       _logf_special              000000014006a014 f   libucrt:log_special.obj
 0001:00069110       _get_fpsr                  000000014006a110 f   libucrt:fpsr.obj
 0001:00069120       _set_fpsr                  000000014006a120 f   libucrt:fpsr.obj
 0001:0006912a       _fclrf                     000000014006a12a f   libucrt:fpsr.obj
 0001:0006913e       _frnd                      000000014006a13e f   libucrt:fpsr.obj
 0001:00069174       _errcode                   000000014006a174 f   libucrt:fpexcept.obj
 0001:000691c8       _except1                   000000014006a1c8 f   libucrt:fpexcept.obj
 0001:000692f8       _except2                   000000014006a2f8 f   libucrt:fpexcept.obj
 0001:00069480       _handle_exc                000000014006a480 f   libucrt:fpexcept.obj
 0001:00069780       _handle_qnan2              000000014006a780 f   libucrt:fpexcept.obj
 0001:00069788       _raise_exc                 000000014006a788 f   libucrt:fpexcept.obj
 0001:000697b8       _raise_exc_ex              000000014006a7b8 f   libucrt:fpexcept.obj
 0001:00069b88       _raise_excf                000000014006ab88 f   libucrt:fpexcept.obj
 0001:00069bbc       _set_errno_from_matherr    000000014006abbc f   libucrt:fpexcept.obj
 0001:00069bf8       _umatherr                  000000014006abf8 f   libucrt:fpexcept.obj
 0001:00069d04       _clrfp                     000000014006ad04 f   libucrt:fpctrl.obj
 0001:00069d28       _ctrlfp                    000000014006ad28 f   libucrt:fpctrl.obj
 0001:00069dc4       _set_statfp                000000014006adc4 f   libucrt:fpctrl.obj
 0001:00069dec       _statfp                    000000014006adec f   libucrt:fpctrl.obj
 0001:00069e04       _add_exp                   000000014006ae04 f   libucrt:util.obj
 0001:00069e68       _decomp                    000000014006ae68 f   libucrt:util.obj
 0001:00069fe4       _get_exp                   000000014006afe4 f   libucrt:util.obj
 0001:0006a008       _set_bexp                  000000014006b008 f   libucrt:util.obj
 0001:0006a044       _set_exp                   000000014006b044 f   libucrt:util.obj
 0001:0006a08c       _sptype                    000000014006b08c f   libucrt:util.obj
 0001:0006a120       _FindPESection             000000014006b120 f   LIBCMT:pesect.obj
 0001:0006a180       _IsNonwritableInCurrentImage 000000014006b180 f   LIBCMT:pesect.obj
 0001:0006a1e0       _ValidateImageBase         000000014006b1e0 f   LIBCMT:pesect.obj
 0001:0006a218       ??1type_info@@UEAA@XZ      000000014006b218 f   LIBCMT:std_type_info_static.obj
 0001:0006a228       ??_Etype_info@@UEAAPEAXI@Z 000000014006b228 f i LIBCMT:std_type_info_static.obj
 0001:0006a228       ??_Gtype_info@@UEAAPEAXI@Z 000000014006b228 f i LIBCMT:std_type_info_static.obj
 0001:0006a260       ??3@YAXPEAX_K@Z            000000014006b260 f   LIBCMT:delete_scalar_size.obj
 0001:0006a268       __GSHandlerCheck_SEH       000000014006b268 f   LIBCMT:gshandlerseh.obj
 0001:0006a320       __chkstk                   000000014006b320 f   LIBCMT:chkstk.obj
 0001:0006a320       _alloca_probe              000000014006b320 f   LIBCMT:chkstk.obj
 0001:0006a388       ??3@YAXPEAX@Z              000000014006b388 f   LIBCMT:delete_scalar.obj
 0001:0006a38d       RtlUnwindEx                000000014006b38d f   kernel32:KERNEL32.dll
 0001:0006a393       InterlockedPushEntrySList  000000014006b393 f   kernel32:KERNEL32.dll
 0001:0006a399       InterlockedFlushSList      000000014006b399 f   kernel32:KERNEL32.dll
 0001:0006a39f       GetLastError               000000014006b39f f   kernel32:KERNEL32.dll
 0001:0006a3a5       SetLastError               000000014006b3a5 f   kernel32:KERNEL32.dll
 0001:0006a3ab       EnterCriticalSection       000000014006b3ab f   kernel32:KERNEL32.dll
 0001:0006a3b1       LeaveCriticalSection       000000014006b3b1 f   kernel32:KERNEL32.dll
 0001:0006a3b7       DeleteCriticalSection      000000014006b3b7 f   kernel32:KERNEL32.dll
 0001:0006a3bd       InitializeCriticalSectionAndSpinCount 000000014006b3bd f   kernel32:KERNEL32.dll
 0001:0006a3c3       TlsAlloc                   000000014006b3c3 f   kernel32:KERNEL32.dll
 0001:0006a3c9       TlsGetValue                000000014006b3c9 f   kernel32:KERNEL32.dll
 0001:0006a3cf       TlsSetValue                000000014006b3cf f   kernel32:KERNEL32.dll
 0001:0006a3d5       TlsFree                    000000014006b3d5 f   kernel32:KERNEL32.dll
 0001:0006a3db       FreeLibrary                000000014006b3db f   kernel32:KERNEL32.dll
 0001:0006a3e1       GetProcAddress             000000014006b3e1 f   kernel32:KERNEL32.dll
 0001:0006a3e7       LoadLibraryExW             000000014006b3e7 f   kernel32:KERNEL32.dll
 0001:0006a3ed       EncodePointer              000000014006b3ed f   kernel32:KERNEL32.dll
 0001:0006a3f3       RaiseException             000000014006b3f3 f   kernel32:KERNEL32.dll
 0001:0006a3f9       RtlPcToFileHeader          000000014006b3f9 f   kernel32:KERNEL32.dll
 0001:0006a3ff       ReadFile                   000000014006b3ff f   kernel32:KERNEL32.dll
 0001:0006a405       ExitProcess                000000014006b405 f   kernel32:KERNEL32.dll
 0001:0006a40b       GetModuleHandleExW         000000014006b40b f   kernel32:KERNEL32.dll
 0001:0006a411       GetStdHandle               000000014006b411 f   kernel32:KERNEL32.dll
 0001:0006a417       WriteFile                  000000014006b417 f   kernel32:KERNEL32.dll
 0001:0006a41d       GetModuleFileNameW         000000014006b41d f   kernel32:KERNEL32.dll
 0001:0006a423       GetCommandLineA            000000014006b423 f   kernel32:KERNEL32.dll
 0001:0006a429       GetCommandLineW            000000014006b429 f   kernel32:KERNEL32.dll
 0001:0006a42f       HeapAlloc                  000000014006b42f f   kernel32:KERNEL32.dll
 0001:0006a435       HeapFree                   000000014006b435 f   kernel32:KERNEL32.dll
 0001:0006a43b       GetDateFormatW             000000014006b43b f   kernel32:KERNEL32.dll
 0001:0006a441       GetTimeFormatW             000000014006b441 f   kernel32:KERNEL32.dll
 0001:0006a447       CompareStringW             000000014006b447 f   kernel32:KERNEL32.dll
 0001:0006a44d       LCMapStringW               000000014006b44d f   kernel32:KERNEL32.dll
 0001:0006a453       GetLocaleInfoW             000000014006b453 f   kernel32:KERNEL32.dll
 0001:0006a459       IsValidLocale              000000014006b459 f   kernel32:KERNEL32.dll
 0001:0006a45f       GetUserDefaultLCID         000000014006b45f f   kernel32:KERNEL32.dll
 0001:0006a465       EnumSystemLocalesW         000000014006b465 f   kernel32:KERNEL32.dll
 0001:0006a46b       GetFileType                000000014006b46b f   kernel32:KERNEL32.dll
 0001:0006a471       CloseHandle                000000014006b471 f   kernel32:KERNEL32.dll
 0001:0006a477       GetConsoleMode             000000014006b477 f   kernel32:KERNEL32.dll
 0001:0006a47d       ReadConsoleW               000000014006b47d f   kernel32:KERNEL32.dll
 0001:0006a483       SetFilePointerEx           000000014006b483 f   kernel32:KERNEL32.dll
 0001:0006a489       GetCurrentThread           000000014006b489 f   kernel32:KERNEL32.dll
 0001:0006a48f       OutputDebugStringW         000000014006b48f f   kernel32:KERNEL32.dll
 0001:0006a495       FindClose                  000000014006b495 f   kernel32:KERNEL32.dll
 0001:0006a49b       FindFirstFileExW           000000014006b49b f   kernel32:KERNEL32.dll
 0001:0006a4a1       FindNextFileW              000000014006b4a1 f   kernel32:KERNEL32.dll
 0001:0006a4a7       IsValidCodePage            000000014006b4a7 f   kernel32:KERNEL32.dll
 0001:0006a4ad       GetACP                     000000014006b4ad f   kernel32:KERNEL32.dll
 0001:0006a4b3       GetOEMCP                   000000014006b4b3 f   kernel32:KERNEL32.dll
 0001:0006a4b9       GetCPInfo                  000000014006b4b9 f   kernel32:KERNEL32.dll
 0001:0006a4bf       MultiByteToWideChar        000000014006b4bf f   kernel32:KERNEL32.dll
 0001:0006a4c5       WideCharToMultiByte        000000014006b4c5 f   kernel32:KERNEL32.dll
 0001:0006a4cb       GetEnvironmentStringsW     000000014006b4cb f   kernel32:KERNEL32.dll
 0001:0006a4d1       FreeEnvironmentStringsW    000000014006b4d1 f   kernel32:KERNEL32.dll
 0001:0006a4d7       SetEnvironmentVariableW    000000014006b4d7 f   kernel32:KERNEL32.dll
 0001:0006a4dd       SetStdHandle               000000014006b4dd f   kernel32:KERNEL32.dll
 0001:0006a4e3       GetStringTypeW             000000014006b4e3 f   kernel32:KERNEL32.dll
 0001:0006a4e9       GetProcessHeap             000000014006b4e9 f   kernel32:KERNEL32.dll
 0001:0006a4ef       SetConsoleCtrlHandler      000000014006b4ef f   kernel32:KERNEL32.dll
 0001:0006a4f5       FlushFileBuffers           000000014006b4f5 f   kernel32:KERNEL32.dll
 0001:0006a4fb       GetConsoleOutputCP         000000014006b4fb f   kernel32:KERNEL32.dll
 0001:0006a501       CreateFileW                000000014006b501 f   kernel32:KERNEL32.dll
 0001:0006a507       GetFileSizeEx              000000014006b507 f   kernel32:KERNEL32.dll
 0001:0006a50d       HeapSize                   000000014006b50d f   kernel32:KERNEL32.dll
 0001:0006a513       HeapReAlloc                000000014006b513 f   kernel32:KERNEL32.dll
 0001:0006a519       SetEndOfFile               000000014006b519 f   kernel32:KERNEL32.dll
 0001:0006a51f       WriteConsoleW              000000014006b51f f   kernel32:KERNEL32.dll
 0001:0006a540       memcmp                     000000014006b540 f   libvcruntime:memcmp.obj
 0001:0006a63c       _local_unwind              000000014006b63c f   libvcruntime:jmpuwind.obj
 0001:0006a670       strrchr                    000000014006b670 f   libvcruntime:strrchr.obj
 0001:0006a7fc       strchr                     000000014006b7fc f   libvcruntime:strchr.obj
 0001:0006a898       wcschr                     000000014006b898 f   libvcruntime:wcschr.obj
 0001:0006a92f       RtlUnwind                  000000014006b92f f   kernel32:KERNEL32.dll
 0001:0006de00       _guard_dispatch_icall_nop  000000014006ee00 f   LIBCMT:guard_dispatch.obj
 0001:0006de20       _guard_xfg_dispatch_icall_nop 000000014006ee20 f   LIBCMT:guard_xfg_dispatch.obj
 0002:00000000       __xc_a                     0000000140072000     LIBCMT:initializers.obj
 0002:00000220       __xc_z                     0000000140072220     LIBCMT:initializers.obj
 0002:00000330       __xi_a                     0000000140072330     LIBCMT:initializers.obj
 0002:00000660       __acrt_stdio_initializer   0000000140072660     libucrt:stdio_initializer.obj
 0002:00000670       __acrt_multibyte_initializer 0000000140072670     libucrt:multibyte_initializer.obj
 0002:00000680       __acrt_fmode_initializer   0000000140072680     libucrt:fmode_initializer.obj
 0002:00000690       __acrt_tran_fma3_initializer 0000000140072690     libucrt:fma3_initializer.obj
 0002:000007a0       __xi_z                     00000001400727a0     LIBCMT:initializers.obj
 0002:000008b0       __xp_a                     00000001400728b0     LIBCMT:initializers.obj
 0002:000009c0       __acrt_locale_terminator   00000001400729c0     libucrt:locale_initializer.obj
 0002:000009d0       __dcrt_console_output_terminator 00000001400729d0     libucrt:console_output_initializer.obj
 0002:00000ae0       __acrt_stdio_terminator    0000000140072ae0     libucrt:stdio_initializer.obj
 0002:00000bf0       __xp_z                     0000000140072bf0     LIBCMT:initializers.obj
 0002:00000d00       __xt_a                     0000000140072d00     LIBCMT:initializers.obj
 0002:00000e10       __xt_z                     0000000140072e10     LIBCMT:initializers.obj
 0002:00001100       __xmm@ffffffffffffffffffffffffffffffff 0000000140073100     LIBCMT:utility.obj
 0002:00001118       _pDestructExceptionObject  0000000140073118     libvcruntime:ehhelpers.obj
 0002:000019b0       ??_C@_08EHJDFFNH@__based?$CI@ 00000001400739b0     libvcruntime:undname.obj
 0002:000019c0       ??_C@_07KOLFKCDI@__cdecl@  00000001400739c0     libvcruntime:undname.obj
 0002:000019d0       ??_C@_08GHMPAG@__pascal@   00000001400739d0     libvcruntime:undname.obj
 0002:000019e0       ??_C@_09IFJBGAPI@__stdcall@ 00000001400739e0     libvcruntime:undname.obj
 0002:000019f0       ??_C@_0L@NPHFGOKO@__thiscall@ 00000001400739f0     libvcruntime:undname.obj
 0002:00001a00       ??_C@_0L@JMKHOMEK@__fastcall@ 0000000140073a00     libvcruntime:undname.obj
 0002:00001a10       ??_C@_0N@BCKKPABJ@__vectorcall@ 0000000140073a10     libvcruntime:undname.obj
 0002:00001a20       ??_C@_09HIJEGCPM@__clrcall@ 0000000140073a20     libvcruntime:undname.obj
 0002:00001a2c       ??_C@_06GHPCKEAG@__eabi@   0000000140073a2c     libvcruntime:undname.obj
 0002:00001a38       ??_C@_09IOPIDJLG@__swift_1@ 0000000140073a38     libvcruntime:undname.obj
 0002:00001a48       ??_C@_09KFNFGKHF@__swift_2@ 0000000140073a48     libvcruntime:undname.obj
 0002:00001a58       ??_C@_09LMMOFLDE@__swift_3@ 0000000140073a58     libvcruntime:undname.obj
 0002:00001a68       ??_C@_07JOMMBBKO@__ptr64@  0000000140073a68     libvcruntime:undname.obj
 0002:00001a78       ??_C@_0L@PILCLIHE@__restrict@ 0000000140073a78     libvcruntime:undname.obj
 0002:00001a88       ??_C@_0M@GFIIJFMG@__unaligned@ 0000000140073a88     libvcruntime:undname.obj
 0002:00001a98       ??_C@_09DHDLOLLB@restrict?$CI@ 0000000140073a98     libvcruntime:undname.obj
 0002:00001aa4       ??_C@_00CNPNBAHC@@         0000000140073aa4     libvcruntime:undname.obj
 0002:00001aa8       ??_C@_04NIHEBCM@?5new@     0000000140073aa8     libvcruntime:undname.obj
 0002:00001ab0       ??_C@_07FPCDHGMM@?5delete@ 0000000140073ab0     libvcruntime:undname.obj
 0002:00001abc       ??_C@_01NEMOKFLO@?$DN@     0000000140073abc     libvcruntime:undname.obj
 0002:00001ac0       ??_C@_02GPIOPFAK@?$DO?$DO@ 0000000140073ac0     libvcruntime:undname.obj
 0002:00001ac4       ??_C@_02FODMEDOG@?$DM?$DM@ 0000000140073ac4     libvcruntime:undname.obj
 0002:00001ac8       ??_C@_01DCLJPIOD@?$CB@     0000000140073ac8     libvcruntime:undname.obj
 0002:00001acc       ??_C@_02EGOFBIJA@?$DN?$DN@ 0000000140073acc     libvcruntime:undname.obj
 0002:00001ad0       ??_C@_02FDNJECIE@?$CB?$DN@ 0000000140073ad0     libvcruntime:undname.obj
 0002:00001ad4       ??_C@_02GPECMEKF@?$FL?$FN@ 0000000140073ad4     libvcruntime:undname.obj
 0002:00001ad8       ??_C@_08LHJFAFGD@operator@ 0000000140073ad8     libvcruntime:undname.obj
 0002:00001ae4       ??_C@_02HBOOOICD@?9?$DO@   0000000140073ae4     libvcruntime:undname.obj
 0002:00001ae8       ??_C@_01NBENCBCI@?$CK@     0000000140073ae8     libvcruntime:undname.obj
 0002:00001aec       ??_C@_02ECNGHCIF@?$CL?$CL@ 0000000140073aec     libvcruntime:undname.obj
 0002:00001af0       ??_C@_02BAABKJLB@?9?9@     0000000140073af0     libvcruntime:undname.obj
 0002:00001af4       ??_C@_01JOAMLHOP@?9@       0000000140073af4     libvcruntime:undname.obj
 0002:00001af8       ??_C@_01MIFGBAGJ@?$CL@     0000000140073af8     libvcruntime:undname.obj
 0002:00001afc       ??_C@_01HNPIGOCE@?$CG@     0000000140073afc     libvcruntime:undname.obj
 0002:00001b00       ??_C@_03MNHNFDLC@?9?$DO?$CK@ 0000000140073b00     libvcruntime:undname.obj
 0002:00001b04       ??_C@_01KMDKNFGN@?1@       0000000140073b04     libvcruntime:undname.obj
 0002:00001b08       ??_C@_01FGNFDNOH@?$CF@     0000000140073b08     libvcruntime:undname.obj
 0002:00001b0c       ??_C@_01MNNFJEPP@?$DM@     0000000140073b0c     libvcruntime:undname.obj
 0002:00001b10       ??_C@_02EHCHHCKH@?$DM?$DN@ 0000000140073b10     libvcruntime:undname.obj
 0002:00001b14       ??_C@_01PPODPGHN@?$DO@     0000000140073b14     libvcruntime:undname.obj
 0002:00001b18       ??_C@_02EEKDKGMJ@?$DO?$DN@ 0000000140073b18     libvcruntime:undname.obj
 0002:00001b1c       ??_C@_01IHBHIGKO@?0@       0000000140073b1c     libvcruntime:undname.obj
 0002:00001b20       ??_C@_02HCKGKOFO@?$CI?$CJ@ 0000000140073b20     libvcruntime:undname.obj
 0002:00001b24       ??_C@_01PJKLJHI@?$HO@      0000000140073b24     libvcruntime:undname.obj
 0002:00001b28       ??_C@_01JKBOJNNK@?$FO@     0000000140073b28     libvcruntime:undname.obj
 0002:00001b2c       ??_C@_01DNKMNLPK@?$HM@     0000000140073b2c     libvcruntime:undname.obj
 0002:00001b30       ??_C@_02PPKAJPJL@?$CG?$CG@ 0000000140073b30     libvcruntime:undname.obj
 0002:00001b34       ??_C@_02NONPIBCD@?$HM?$HM@ 0000000140073b34     libvcruntime:undname.obj
 0002:00001b38       ??_C@_02FPIMKNGF@?$CK?$DN@ 0000000140073b38     libvcruntime:undname.obj
 0002:00001b3c       ??_C@_02FOEOMHFC@?$CL?$DN@ 0000000140073b3c     libvcruntime:undname.obj
 0002:00001b40       ??_C@_02FKMDLLOA@?9?$DN@   0000000140073b40     libvcruntime:undname.obj
 0002:00001b44       ??_C@_02FJEHGPIO@?1?$DN@   0000000140073b44     libvcruntime:undname.obj
 0002:00001b48       ??_C@_02FENAOKFI@?$CF?$DN@ 0000000140073b48     libvcruntime:undname.obj
 0002:00001b4c       ??_C@_03IKFCCPFF@?$DO?$DO?$DN@ 0000000140073b4c     libvcruntime:undname.obj
 0002:00001b50       ??_C@_03CDNPDDLA@?$DM?$DM?$DN@ 0000000140073b50     libvcruntime:undname.obj
 0002:00001b54       ??_C@_02FGJGFEAB@?$CG?$DN@ 0000000140073b54     libvcruntime:undname.obj
 0002:00001b58       ??_C@_02DHLNPPGH@?$HM?$DN@ 0000000140073b58     libvcruntime:undname.obj
 0002:00001b5c       ??_C@_02MHEGNOJ@?$FO?$DN@  0000000140073b5c     libvcruntime:undname.obj
 0002:00001b60       ??_C@_09IFPLHPGF@?$GAvftable?8@ 0000000140073b60     libvcruntime:undname.obj
 0002:00001b70       ??_C@_09BLBHBJP@?$GAvbtable?8@ 0000000140073b70     libvcruntime:undname.obj
 0002:00001b80       ??_C@_07FEEIOKP@?$GAvcall?8@ 0000000140073b80     libvcruntime:undname.obj
 0002:00001b90       ??_C@_08LLFFHHDJ@?$GAtypeof?8@ 0000000140073b90     libvcruntime:undname.obj
 0002:00001ba0       ??_C@_0BF@KDPPACIK@?$GAlocal?5static?5guard?8@ 0000000140073ba0     libvcruntime:undname.obj
 0002:00001bc0       ??_C@_08OBABFOLI@?$GAstring?8@ 0000000140073bc0     libvcruntime:undname.obj
 0002:00001bd0       ??_C@_0BD@JDLKDPAB@?$GAvbase?5destructor?8@ 0000000140073bd0     libvcruntime:undname.obj
 0002:00001be8       ??_C@_0BN@DEGPLNFK@?$GAvector?5deleting?5destructor?8@ 0000000140073be8     libvcruntime:undname.obj
 0002:00001c10       ??_C@_0BO@OBMKPJIG@?$GAdefault?5constructor?5closure?8@ 0000000140073c10     libvcruntime:undname.obj
 0002:00001c38       ??_C@_0BN@IMDCHIKM@?$GAscalar?5deleting?5destructor?8@ 0000000140073c38     libvcruntime:undname.obj
 0002:00001c60       ??_C@_0BO@PFGOCPJJ@?$GAvector?5constructor?5iterator?8@ 0000000140073c60     libvcruntime:undname.obj
 0002:00001c88       ??_C@_0BN@LFPFMEDL@?$GAvector?5destructor?5iterator?8@ 0000000140073c88     libvcruntime:undname.obj
 0002:00001cb0       ??_C@_0CE@IKBNEHA@?$GAvector?5vbase?5constructor?5itera@ 0000000140073cb0     libvcruntime:undname.obj
 0002:00001ce0       ??_C@_0BL@NILFHHPC@?$GAvirtual?5displacement?5map?8@ 0000000140073ce0     libvcruntime:undname.obj
 0002:00001d00       ??_C@_0CB@JONCMFFK@?$GAeh?5vector?5constructor?5iterator@ 0000000140073d00     libvcruntime:undname.obj
 0002:00001d28       ??_C@_0CA@GCEOPDGL@?$GAeh?5vector?5destructor?5iterator?8@ 0000000140073d28     libvcruntime:undname.obj
 0002:00001d50       ??_C@_0CH@OOJPLCPH@?$GAeh?5vector?5vbase?5constructor?5it@ 0000000140073d50     libvcruntime:undname.obj
 0002:00001d80       ??_C@_0BL@LLKPOHJI@?$GAcopy?5constructor?5closure?8@ 0000000140073d80     libvcruntime:undname.obj
 0002:00001da0       ??_C@_0BA@KBCDOMBN@?$GAudt?5returning?8@ 0000000140073da0     libvcruntime:undname.obj
 0002:00001db4       ??_C@_03KLGMFNMG@?$GAEH@   0000000140073db4     libvcruntime:undname.obj
 0002:00001db8       ??_C@_05KHLCHHI@?$GARTTI@  0000000140073db8     libvcruntime:undname.obj
 0002:00001dc0       ??_C@_0BA@KKLDJDLB@?$GAlocal?5vftable?8@ 0000000140073dc0     libvcruntime:undname.obj
 0002:00001dd8       ??_C@_0CE@IIHCMGGL@?$GAlocal?5vftable?5constructor?5clos@ 0000000140073dd8     libvcruntime:undname.obj
 0002:00001e04       ??_C@_06FHBGPFGH@?5new?$FL?$FN@ 0000000140073e04     libvcruntime:undname.obj
 0002:00001e10       ??_C@_09LBNFPBCA@?5delete?$FL?$FN@ 0000000140073e10     libvcruntime:undname.obj
 0002:00001e20       ??_C@_0P@HJKNJFNN@?$GAomni?5callsig?8@ 0000000140073e20     libvcruntime:undname.obj
 0002:00001e38       ??_C@_0BL@CNOONJFP@?$GAplacement?5delete?5closure?8@ 0000000140073e38     libvcruntime:undname.obj
 0002:00001e58       ??_C@_0BN@CKNJLHMB@?$GAplacement?5delete?$FL?$FN?5closure?8@ 0000000140073e58     libvcruntime:undname.obj
 0002:00001e80       ??_C@_0CG@CFDHKGGD@?$GAmanaged?5vector?5constructor?5ite@ 0000000140073e80     libvcruntime:undname.obj
 0002:00001eb0       ??_C@_0CF@IMGKMJNO@?$GAmanaged?5vector?5destructor?5iter@ 0000000140073eb0     libvcruntime:undname.obj
 0002:00001ee0       ??_C@_0CG@HLDDJMAG@?$GAeh?5vector?5copy?5constructor?5ite@ 0000000140073ee0     libvcruntime:undname.obj
 0002:00001f10       ??_C@_0CM@FCBBDIGB@?$GAeh?5vector?5vbase?5copy?5construct@ 0000000140073f10     libvcruntime:undname.obj
 0002:00001f48       ??_C@_0BL@CLIPGLGB@?$GAdynamic?5initializer?5for?5?8@ 0000000140073f48     libvcruntime:undname.obj
 0002:00001f68       ??_C@_0CB@PDBIFEP@?$GAdynamic?5atexit?5destructor?5for?5@ 0000000140073f68     libvcruntime:undname.obj
 0002:00001f90       ??_C@_0CD@CGAJBKEJ@?$GAvector?5copy?5constructor?5iterat@ 0000000140073f90     libvcruntime:undname.obj
 0002:00001fc0       ??_C@_0CJ@GJELGAMM@?$GAvector?5vbase?5copy?5constructor?5@ 0000000140073fc0     libvcruntime:undname.obj
 0002:00001ff8       ??_C@_0CL@FGIJHLCE@?$GAmanaged?5vector?5copy?5constructo@ 0000000140073ff8     libvcruntime:undname.obj
 0002:00002030       ??_C@_0BM@PMGGMLDN@?$GAlocal?5static?5thread?5guard?8@ 0000000140074030     libvcruntime:undname.obj
 0002:00002058       ??_C@_0N@BDNMDMOL@operator?5?$CC?$CC?5@ 0000000140074058     libvcruntime:undname.obj
 0002:00002068       ??_C@_0BC@GGEBGALA@operator?5co_await@ 0000000140074068     libvcruntime:undname.obj
 0002:00002080       ??_C@_0M@GAAIMMOH@operator?$DM?$DN?$DO@ 0000000140074080     libvcruntime:undname.obj
 0002:00002090       ??_C@_0BC@DAFEJGAK@?5Type?5Descriptor?8@ 0000000140074090     libvcruntime:undname.obj
 0002:000020a8       ??_C@_0BM@LDKODKLH@?5Base?5Class?5Descriptor?5at?5?$CI@ 00000001400740a8     libvcruntime:undname.obj
 0002:000020d0       ??_C@_0BD@LGICGFMM@?5Base?5Class?5Array?8@ 00000001400740d0     libvcruntime:undname.obj
 0002:000020e8       ??_C@_0BN@MECKDCOJ@?5Class?5Hierarchy?5Descriptor?8@ 00000001400740e8     libvcruntime:undname.obj
 0002:00002110       ??_C@_0BK@CFCOFLF@?5Complete?5Object?5Locator?8@ 0000000140074110     libvcruntime:undname.obj
 0002:00002130       ??_C@_0BG@JNJLAMPM@?$GAanonymous?5namespace?8@ 0000000140074130     libvcruntime:undname.obj
 0002:0000214c       ??_C@_04HEJADOOB@CV?3?5@   000000014007414c     libvcruntime:undname.obj
 0002:00002154       ??_C@_02MOLJINC@?3?3@      0000000140074154     libvcruntime:undname.obj
 0002:00002158       ??_C@_0BE@JAEOCHPE@template?9parameter?9@ 0000000140074158     libvcruntime:undname.obj
 0002:00002170       ??_C@_0BF@LNLGBBNL@?$GAtemplate?9parameter?9@ 0000000140074170     libvcruntime:undname.obj
 0002:00002190       ??_C@_0O@KHGCOMHP@generic?9type?9@ 0000000140074190     libvcruntime:undname.obj
 0002:000021a0       ??_C@_0P@ODDENDLM@?$GAgeneric?9type?9@ 00000001400741a0     libvcruntime:undname.obj
 0002:000021b4       ??_C@_02OHHJMEON@?8?8@     00000001400741b4     libvcruntime:undname.obj
 0002:000021b8       ??_C@_0BN@IBLMMFAP@?$GAnon?9type?9template?9parameter@ 00000001400741b8     libvcruntime:undname.obj
 0002:000021dc       ??_C@_03DLDNIBIK@?$CFlf@   00000001400741dc     libvcruntime:undname.obj
 0002:000021e0       ??_C@_04OFALKAJ@?$DP?$DP_C@ 00000001400741e0     libvcruntime:undname.obj
 0002:000021e8       ??_C@_03KHICJKCI@?4?4?4@   00000001400741e8     libvcruntime:undname.obj
 0002:000021ec       ??_C@_04HIBGFPH@NULL@      00000001400741ec     libvcruntime:undname.obj
 0002:000021f4       ??_C@_02DPKJAMEF@?$CFd@    00000001400741f4     libvcruntime:undname.obj
 0002:000021f8       ??_C@_0BK@IHCCFNEL@?$GAtemplate?9type?9parameter?9@ 00000001400741f8     libvcruntime:undname.obj
 0002:00002218       ??_C@_0BK@OFCNNNKO@?$GAgeneric?9class?9parameter?9@ 0000000140074218     libvcruntime:undname.obj
 0002:00002238       ??_C@_0BL@NGJBLFIL@?$GAgeneric?9method?9parameter?9@ 0000000140074238     libvcruntime:undname.obj
 0002:00002258       ??_C@_07OHNGEDJK@nullptr@  0000000140074258     libvcruntime:undname.obj
 0002:00002264       ??_C@_06COJIGPIB@lambda@   0000000140074264     libvcruntime:undname.obj
 0002:0000226c       ??_C@_04GKJNKENE@void@     000000014007426c     libvcruntime:undname.obj
 0002:00002278       ??_C@_0BE@EODMJLIF@?$GAtemplate?9parameter@ 0000000140074278     libvcruntime:undname.obj
 0002:00002290       ??_C@_03OPGICMGF@?$HN?8?5@ 0000000140074290     libvcruntime:undname.obj
 0002:00002294       ??_C@_02IGFCGPIL@?$HN?8@   0000000140074294     libvcruntime:undname.obj
 0002:00002298       ??_C@_0N@CBHHHENL@?$GAvtordispex?$HL@ 0000000140074298     libvcruntime:undname.obj
 0002:000022a8       ??_C@_0L@GHPFDFH@?$GAvtordisp?$HL@ 00000001400742a8     libvcruntime:undname.obj
 0002:000022b8       ??_C@_0L@HNGCOGAE@?$GAadjustor?$HL@ 00000001400742b8     libvcruntime:undname.obj
 0002:000022c8       ??_C@_0CB@KJDOOODE@?$GAlocal?5static?5destructor?5helper@ 00000001400742c8     libvcruntime:undname.obj
 0002:000022f0       ??_C@_0DB@ILEFOCIJ@?$GAtemplate?5static?5data?5member?5co@ 00000001400742f0     libvcruntime:undname.obj
 0002:00002330       ??_C@_0DA@HGFJFBBE@?$GAtemplate?5static?5data?5member?5de@ 0000000140074330     libvcruntime:undname.obj
 0002:00002370       ??_C@_07PGOEDBHP@static?5@ 0000000140074370     libvcruntime:undname.obj
 0002:00002380       ??_C@_08NIEOINHE@virtual?5@ 0000000140074380     libvcruntime:undname.obj
 0002:00002390       ??_C@_09LAPHOOG@private?3?5@ 0000000140074390     libvcruntime:undname.obj
 0002:000023a0       ??_C@_0M@GAIFPFIP@protected?3?5@ 00000001400743a0     libvcruntime:undname.obj
 0002:000023b0       ??_C@_08GPDDCMKI@public?3?5@ 00000001400743b0     libvcruntime:undname.obj
 0002:000023c0       ??_C@_08KJLFOPNE@?$FLthunk?$FN?3@ 00000001400743c0     libvcruntime:undname.obj
 0002:000023d0       ??_C@_0M@DHNBOJMP@extern?5?$CCC?$CC?5@ 00000001400743d0     libvcruntime:undname.obj
 0002:000023e0       ??_C@_02KCKGHPCA@?$CJ?5@   00000001400743e0     libvcruntime:undname.obj
 0002:000023e4       ??_C@_05CIHEBHNO@char?5@   00000001400743e4     libvcruntime:undname.obj
 0002:000023ec       ??_C@_06EHJMALKF@short?5@  00000001400743ec     libvcruntime:undname.obj
 0002:000023f4       ??_C@_04LAHKHJMA@int?5@    00000001400743f4     libvcruntime:undname.obj
 0002:000023fc       ??_C@_05CJIMAING@long?5@   00000001400743fc     libvcruntime:undname.obj
 0002:00002408       ??_C@_09EBBEKKIH@unsigned?5@ 0000000140074408     libvcruntime:undname.obj
 0002:00002414       ??_C@_05BEFAKPML@void?5@   0000000140074414     libvcruntime:undname.obj
 0002:00002420       ??_C@_09GAIEOBLP@volatile?5@ 0000000140074420     libvcruntime:undname.obj
 0002:00002430       ??_C@_08PABEKFH@volatile@  0000000140074430     libvcruntime:undname.obj
 0002:00002440       ??_C@_0BA@LKIJLKPP@std?3?3nullptr_t?5@ 0000000140074440     libvcruntime:undname.obj
 0002:00002458       ??_C@_0P@GCOCNKDM@std?3?3nullptr_t@ 0000000140074458     libvcruntime:undname.obj
 0002:00002470       ??_C@_0L@EGPHHEKN@?$DMellipsis?$DO@ 0000000140074470     libvcruntime:undname.obj
 0002:00002480       ??_C@_04EENFHACM@?0?4?4?4@ 0000000140074480     libvcruntime:undname.obj
 0002:00002488       ??_C@_0M@ELJOJFFH@?0?$DMellipsis?$DO@ 0000000140074488     libvcruntime:undname.obj
 0002:00002498       ??_C@_09DNHFEOJI@?5noexcept@ 0000000140074498     libvcruntime:undname.obj
 0002:000024a4       ??_C@_03PBJBJNON@cpu@      00000001400744a4     libvcruntime:undname.obj
 0002:000024a8       ??_C@_03DCBBJBAA@amp@      00000001400744a8     libvcruntime:undname.obj
 0002:000024ac       ??_C@_02KEGNLNML@?0?5@     00000001400744ac     libvcruntime:undname.obj
 0002:000024b0       ??_C@_04ENMBGAPA@char@     00000001400744b0     libvcruntime:undname.obj
 0002:000024b8       ??_C@_05BFKKPKCG@short@    00000001400744b8     libvcruntime:undname.obj
 0002:000024c0       ??_C@_03JBIPMCLC@int@      00000001400744c0     libvcruntime:undname.obj
 0002:000024c4       ??_C@_04GOKPGOLB@long@     00000001400744c4     libvcruntime:undname.obj
 0002:000024cc       ??_C@_05KNFBNCOH@float@    00000001400744cc     libvcruntime:undname.obj
 0002:000024d4       ??_C@_06BNJCAIGJ@double@   00000001400744d4     libvcruntime:undname.obj
 0002:000024dc       ??_C@_04DDKJGDCM@bool@     00000001400744dc     libvcruntime:undname.obj
 0002:000024e4       ??_C@_06EBGKOKIG@__int8@   00000001400744e4     libvcruntime:undname.obj
 0002:000024f0       ??_C@_07ICFHOGAF@__int16@  00000001400744f0     libvcruntime:undname.obj
 0002:00002500       ??_C@_07OFLPPHGP@__int32@  0000000140074500     libvcruntime:undname.obj
 0002:00002510       ??_C@_07LFCOJCAC@__int64@  0000000140074510     libvcruntime:undname.obj
 0002:00002520       ??_C@_08GAHOLHEO@__int128@ 0000000140074520     libvcruntime:undname.obj
 0002:00002530       ??_C@_09EEKGDCPH@?$DMunknown?$DO@ 0000000140074530     libvcruntime:undname.obj
 0002:00002540       ??_C@_07CFHGOPCN@char8_t@  0000000140074540     libvcruntime:undname.obj
 0002:00002550       ??_C@_08HBIPOFJB@char16_t@ 0000000140074550     libvcruntime:undname.obj
 0002:00002560       ??_C@_08IECNCBKG@char32_t@ 0000000140074560     libvcruntime:undname.obj
 0002:00002570       ??_C@_07CLGGIAMF@wchar_t@  0000000140074570     libvcruntime:undname.obj
 0002:0000257c       ??_C@_04HAPDLBFF@auto@     000000014007457c     libvcruntime:undname.obj
 0002:00002588       ??_C@_0P@LHCGKIGK@decltype?$CIauto?$CJ@ 0000000140074588     libvcruntime:undname.obj
 0002:0000259c       ??_C@_05PCNBGHCF@this?5@   000000014007459c     libvcruntime:undname.obj
 0002:000025a4       ??_C@_06GCICPBLB@__w64?5@  00000001400745a4     libvcruntime:undname.obj
 0002:000025b0       ??_C@_07NFANNNEC@UNKNOWN@  00000001400745b0     libvcruntime:undname.obj
 0002:000025c0       ??_C@_07EDHNAJHC@signed?5@ 00000001400745c0     libvcruntime:undname.obj
 0002:000025cc       ??_C@_05BNCCCJPP@const@    00000001400745cc     libvcruntime:undname.obj
 0002:000025d8       ??_C@_09EFNPDFFP@?5volatile@ 00000001400745d8     libvcruntime:undname.obj
 0002:000025e8       ??_C@_0P@GCIFDJCJ@?$GAunknown?5ecsu?8@ 00000001400745e8     libvcruntime:undname.obj
 0002:000025fc       ??_C@_06MOJHIBMG@union?5@  00000001400745fc     libvcruntime:undname.obj
 0002:00002608       ??_C@_07DIBCDNGL@struct?5@ 0000000140074608     libvcruntime:undname.obj
 0002:00002614       ??_C@_06LJBABKPM@class?5@  0000000140074614     libvcruntime:undname.obj
 0002:00002620       ??_C@_08KOFANOFK@coclass?5@ 0000000140074620     libvcruntime:undname.obj
 0002:00002630       ??_C@_0N@DLIEFKNA@cointerface?5@ 0000000140074630     libvcruntime:undname.obj
 0002:00002640       ??_C@_05LJGMCFOG@enum?5@   0000000140074640     libvcruntime:undname.obj
 0002:00002648       ??_C@_06LIJLOJAG@const?5@  0000000140074648     libvcruntime:undname.obj
 0002:00002650       ??_C@_02KJPKDIBN@?$CG?5@   0000000140074650     libvcruntime:undname.obj
 0002:00002654       ??_C@_03PCKGMOPB@?$CG?$CG?5@ 0000000140074654     libvcruntime:undname.obj
 0002:00002658       ??_C@_0M@EALIELKG@cli?3?3array?$DM@ 0000000140074658     libvcruntime:undname.obj
 0002:00002668       ??_C@_0O@GKABPPIF@cli?3?3pin_ptr?$DM@ 0000000140074668     libvcruntime:undname.obj
 0002:00002678       ??_C@_02GOGNNPBN@?$CJ?$FL@ 0000000140074678     libvcruntime:undname.obj
 0002:0000267c       ??_C@_06EEGAIFAK@?$HLflat?$HN@ 000000014007467c     libvcruntime:undname.obj
 0002:00002684       ??_C@_05JIBOFOHK@?$HLfor?5@ 0000000140074684     libvcruntime:undname.obj
 0002:0000268c       ??_C@_02MDINNEEG@s?5@      000000014007468c     libvcruntime:undname.obj
 0002:00002698       ??_7DNameNode@@6B@         0000000140074698     libvcruntime:undname.obj
 0002:000026c8       ??_7charNode@@6B@          00000001400746c8     libvcruntime:undname.obj
 0002:000026f8       ??_7pcharNode@@6B@         00000001400746f8     libvcruntime:undname.obj
 0002:00002728       ??_7pDNameNode@@6B@        0000000140074728     libvcruntime:undname.obj
 0002:00002758       ??_7DNameStatusNode@@6B@   0000000140074758     libvcruntime:undname.obj
 0002:00002788       ??_7pairNode@@6B@          0000000140074788     libvcruntime:undname.obj
 0002:000028e4       ??_C@_04OKOHEJBO@?5?$DP?$DP?5@ 00000001400748e4     libvcruntime:undname.obj
 0002:000028f0       ?nodes@?1??make@DNameStatusNode@@SAPEBV2@W4DNameStatus@@@Z@4QBV2@B 00000001400748f0     libvcruntime:undname.obj
 0002:00002960       ??_C@_1DM@KHCHBNEB@?$AAa?$AAp?$AAi?$AA?9?$AAm?$AAs?$AA?9?$AAw?$AAi?$AAn?$AA?9?$AAc?$AAo?$AAr?$AAe@ 0000000140074960     libvcruntime:winapi_downlevel.obj
 0002:000029a8       ??_C@_1DK@LPPGFMPP@?$AAa?$AAp?$AAi?$AA?9?$AAm?$AAs?$AA?9?$AAw?$AAi?$AAn?$AA?9?$AAc?$AAo?$AAr?$AAe@ 00000001400749a8     libvcruntime:winapi_downlevel.obj
 0002:000029f0       ??_C@_1BC@GDMECMAK@?$AAk?$AAe?$AAr?$AAn?$AAe?$AAl?$AA3?$AA2@ 00000001400749f0     libvcruntime:winapi_downlevel.obj
 0002:00002a08       ??_C@_1BA@PFFKHIOG@?$AAa?$AAp?$AAi?$AA?9?$AAm?$AAs?$AA?9@ 0000000140074a08     libvcruntime:winapi_downlevel.obj
 0002:00002a30       ??_C@_08KNHFBNJ@FlsAlloc@  0000000140074a30     libvcruntime:winapi_downlevel.obj
 0002:00002a50       ??_C@_07PEJMOBNF@FlsFree@  0000000140074a50     libvcruntime:winapi_downlevel.obj
 0002:00002a70       ??_C@_0M@GDNOONDI@FlsGetValue@ 0000000140074a70     libvcruntime:winapi_downlevel.obj
 0002:00002a90       ??_C@_0M@JCPCPOEF@FlsSetValue@ 0000000140074a90     libvcruntime:winapi_downlevel.obj
 0002:00002ab0       ??_C@_0BM@HCFOFFN@InitializeCriticalSectionEx@ 0000000140074ab0     libvcruntime:winapi_downlevel.obj
 0002:00002ad8       ?s_negLengthTab@FH4@@3QBCB 0000000140074ad8     libvcruntime:risctrnsctrl.obj
 0002:00002af0       ?s_shiftTab@FH4@@3QBEB     0000000140074af0     libvcruntime:risctrnsctrl.obj
 0002:00002c90       ??_7exception@std@@6B@     0000000140074c90     libvcruntime:frame.obj
 0002:00002ca8       ??_C@_0BC@EOODALEL@Unknown?5exception@ 0000000140074ca8     libvcruntime:frame.obj
 0002:00002cc8       ??_7bad_exception@std@@6B@ 0000000140074cc8     libvcruntime:frame.obj
 0002:00002ce0       ??_C@_0O@DPKOEFFH@bad?5exception@ 0000000140074ce0     libvcruntime:frame.obj
 0002:00002cf0       ?standard_lookup_table_spectre@__crt_stdio_output@@3V?$spectre_mitigated_lookup_table@Ustate_transition_pair@__crt_stdio_output@@$0IA@@1@B 0000000140074cf0     libucrt:output.obj
 0002:000031c0       ?format_validation_lookup_table_spectre@__crt_stdio_output@@3V?$spectre_mitigated_lookup_table@Ustate_transition_pair@__crt_stdio_output@@$0IA@@1@B 00000001400751c0     libucrt:output.obj
 0002:00003690       ??_C@_1O@CEDCILHN@?$AA?$CI?$AAn?$AAu?$AAl?$AAl?$AA?$CJ@ 0000000140075690     libucrt:output.obj
 0002:000036a0       ??_C@_06OJHGLDPL@?$CInull?$CJ@ 00000001400756a0     libucrt:output.obj
 0002:000036a8       RtlNtPathSeperatorString   00000001400756a8     libucrt:exit.obj
 0002:000036bc       ??_C@_13FPGAJAPJ@?$AA?2@   00000001400756bc     libucrt:exit.obj
 0002:000036c0       RtlDosPathSeperatorsString 00000001400756c0     libucrt:exit.obj
 0002:000036d4       ??_C@_15MNCACJLI@?$AA?2?$AA?1@ 00000001400756d4     libucrt:exit.obj
 0002:000036e0       RtlAlternateDosPathSeperatorString 00000001400756e0     libucrt:exit.obj
 0002:000036f4       ??_C@_13CGOKJPIL@?$AA?1@   00000001400756f4     libucrt:exit.obj
 0002:000036f8       ??_C@_1BI@BGOHAHKC@?$AAm?$AAs?$AAc?$AAo?$AAr?$AAe?$AAe?$AA?4?$AAd?$AAl?$AAl@ 00000001400756f8     libucrt:exit.obj
 0002:00003718       ??_C@_0P@MIGLKIOC@CorExitProcess@ 0000000140075718     libucrt:exit.obj
 0002:00003730       __acrt_exception_action_table 0000000140075730     libucrt:exception_filter.obj
 0002:00003818       __acrt_signal_action_table_count 0000000140075818     libucrt:exception_filter.obj
 0002:00003828       __acrt_signal_action_table_size 0000000140075828     libucrt:exception_filter.obj
 0002:00003838       __acrt_signal_action_first_fpe_index 0000000140075838     libucrt:exception_filter.obj
 0002:00003848       __acrt_signal_action_fpe_count 0000000140075848     libucrt:exception_filter.obj
 0002:00003858       ??_C@_1DE@JNGNBFGO@?$AAR?$AAu?$AAn?$AAt?$AAi?$AAm?$AAe?$AA?5?$AAE?$AAr?$AAr?$AAo?$AAr?$AA?$CB?$AA?6@ 0000000140075858     libucrt:report_runtime_error.obj
 0002:00003898       ??_C@_1CO@EAEJAADC@?$AA?$DM?$AAp?$AAr?$AAo?$AAg?$AAr?$AAa?$AAm?$AA?5?$AAn?$AAa?$AAm?$AAe?$AA?5?$AAu@ 0000000140075898     libucrt:report_runtime_error.obj
 0002:000038d0       ??_C@_17LGKOMLJ@?$AA?4?$AA?4?$AA?4@ 00000001400758d0     libucrt:report_runtime_error.obj
 0002:000038dc       ??_C@_15IABLJNFO@?$AA?6?$AA?6@ 00000001400758dc     libucrt:report_runtime_error.obj
 0002:000038f0       ??_C@_1EK@MBDPDCGA@?$AAM?$AAi?$AAc?$AAr?$AAo?$AAs?$AAo?$AAf?$AAt?$AA?5?$AAV?$AAi?$AAs?$AAu?$AAa@ 00000001400758f0     libucrt:report_runtime_error.obj
 0002:000039f0       __lc_category              00000001400759f0     libucrt:wsetlocale.obj
 0002:00003aa0       ??_C@_1O@GIFLHMA@?$AAL?$AAC?$AA_?$AAA?$AAL?$AAL@ 0000000140075aa0     libucrt:wsetlocale.obj
 0002:00003ab0       ??_C@_1BG@PPOMIBNJ@?$AAL?$AAC?$AA_?$AAC?$AAO?$AAL?$AAL?$AAA?$AAT?$AAE@ 0000000140075ab0     libucrt:wsetlocale.obj
 0002:00003ad0       ??_C@_1BC@FFJGAPJM@?$AAL?$AAC?$AA_?$AAC?$AAT?$AAY?$AAP?$AAE@ 0000000140075ad0     libucrt:wsetlocale.obj
 0002:00003ae8       ??_C@_1BI@PCKFNJFB@?$AAL?$AAC?$AA_?$AAM?$AAO?$AAN?$AAE?$AAT?$AAA?$AAR?$AAY@ 0000000140075ae8     libucrt:wsetlocale.obj
 0002:00003b08       ??_C@_1BG@ENIEDKID@?$AAL?$AAC?$AA_?$AAN?$AAU?$AAM?$AAE?$AAR?$AAI?$AAC@ 0000000140075b08     libucrt:wsetlocale.obj
 0002:00003b28       ??_C@_1BA@HAAOMIIG@?$AAL?$AAC?$AA_?$AAT?$AAI?$AAM?$AAE@ 0000000140075b28     libucrt:wsetlocale.obj
 0002:00003b3c       ??_C@_15NBPDDFIP@?$AA?$DN?$AA?$DL@ 0000000140075b3c     libucrt:wsetlocale.obj
 0002:00003b44       ??_C@_13PJJBFPED@?$AA?$DL@ 0000000140075b44     libucrt:wsetlocale.obj
 0002:00003b48       ??_C@_13NMPKAAJP@?$AA?$DN@ 0000000140075b48     libucrt:wsetlocale.obj
 0002:00003b4c       ??_C@_13IMODFHAA@?$AA?9@   0000000140075b4c     libucrt:wsetlocale.obj
 0002:00003b50       ??_C@_17EFJLDFDO@?$AA?9?$AA_?$AA?4@ 0000000140075b50     libucrt:wsetlocale.obj
 0002:00003b5c       ??_C@_13FHBKNHDA@?$AAC@    0000000140075b5c     libucrt:wsetlocale.obj
 0002:00003b60       ??_C@_17MBJJLFDM@?$AA_?$AA?4?$AA?0@ 0000000140075b60     libucrt:wsetlocale.obj
 0002:00003b6c       ??_C@_13ENNFDPBH@?$AA_@    0000000140075b6c     libucrt:wsetlocale.obj
 0002:00003b70       ??_C@_13JOFGPIOO@?$AA?4@   0000000140075b70     libucrt:wsetlocale.obj
 0002:00003cb8       _Fenv1                     0000000140075cb8     libucrt:atox.obj
 0002:00003f40       ??_C@_1EA@JGEFHKEI@?$AAa?$AAp?$AAi?$AA?9?$AAm?$AAs?$AA?9?$AAw?$AAi?$AAn?$AA?9?$AAc?$AAo?$AAr?$AAe@ 0000000140075f40     libucrt:winapi_thunks.obj
 0002:00003f90       ??_C@_1DI@IJCEHOCB@?$AAa?$AAp?$AAi?$AA?9?$AAm?$AAs?$AA?9?$AAw?$AAi?$AAn?$AA?9?$AAc?$AAo?$AAr?$AAe@ 0000000140075f90     libucrt:winapi_thunks.obj
 0002:00003fe0       ??_C@_1EI@MPIAOHOC@?$AAa?$AAp?$AAi?$AA?9?$AAm?$AAs?$AA?9?$AAw?$AAi?$AAn?$AA?9?$AAc?$AAo?$AAr?$AAe@ 0000000140075fe0     libucrt:winapi_thunks.obj
 0002:00004040       ??_C@_1FK@FPHCKFIE@?$AAa?$AAp?$AAi?$AA?9?$AAm?$AAs?$AA?9?$AAw?$AAi?$AAn?$AA?9?$AAc?$AAo?$AAr?$AAe@ 0000000140076040     libucrt:winapi_thunks.obj
 0002:000040b0       ??_C@_1EM@DILCGIIO@?$AAa?$AAp?$AAi?$AA?9?$AAm?$AAs?$AA?9?$AAw?$AAi?$AAn?$AA?9?$AAc?$AAo?$AAr?$AAe@ 00000001400760b0     libucrt:winapi_thunks.obj
 0002:00004110       ??_C@_1DM@LNCGDDPN@?$AAa?$AAp?$AAi?$AA?9?$AAm?$AAs?$AA?9?$AAw?$AAi?$AAn?$AA?9?$AAc?$AAo?$AAr?$AAe@ 0000000140076110     libucrt:winapi_thunks.obj
 0002:00004158       ??_C@_1DO@FPAPJEMD@?$AAa?$AAp?$AAi?$AA?9?$AAm?$AAs?$AA?9?$AAw?$AAi?$AAn?$AA?9?$AAc?$AAo?$AAr?$AAe@ 0000000140076158     libucrt:winapi_thunks.obj
 0002:000041a8       ??_C@_1DK@NDHNAHIO@?$AAa?$AAp?$AAi?$AA?9?$AAm?$AAs?$AA?9?$AAw?$AAi?$AAn?$AA?9?$AAc?$AAo?$AAr?$AAe@ 00000001400761a8     libucrt:winapi_thunks.obj
 0002:000041f0       ??_C@_1DM@KGHDGBCM@?$AAa?$AAp?$AAi?$AA?9?$AAm?$AAs?$AA?9?$AAw?$AAi?$AAn?$AA?9?$AAc?$AAo?$AAr?$AAe@ 00000001400761f0     libucrt:winapi_thunks.obj
 0002:00004240       ??_C@_1EO@IJIOEFOH@?$AAa?$AAp?$AAi?$AA?9?$AAm?$AAs?$AA?9?$AAw?$AAi?$AAn?$AA?9?$AAr?$AAt?$AAc?$AAo@ 0000000140076240     libucrt:winapi_thunks.obj
 0002:000042a0       ??_C@_1FG@HHGEKANL@?$AAa?$AAp?$AAi?$AA?9?$AAm?$AAs?$AA?9?$AAw?$AAi?$AAn?$AA?9?$AAs?$AAe?$AAc?$AAu@ 00000001400762a0     libucrt:winapi_thunks.obj
 0002:00004310       ??_C@_1EG@DBIOJECG@?$AAe?$AAx?$AAt?$AA?9?$AAm?$AAs?$AA?9?$AAw?$AAi?$AAn?$AA?9?$AAn?$AAt?$AAu?$AAs@ 0000000140076310     libucrt:winapi_thunks.obj
 0002:00004370       ??_C@_1EO@FIHMJCLF@?$AAe?$AAx?$AAt?$AA?9?$AAm?$AAs?$AA?9?$AAw?$AAi?$AAn?$AA?9?$AAn?$AAt?$AAu?$AAs@ 0000000140076370     libucrt:winapi_thunks.obj
 0002:000043d0       ??_C@_1BC@DNHGCMLG@?$AAa?$AAd?$AAv?$AAa?$AAp?$AAi?$AA3?$AA2@ 00000001400763d0     libucrt:winapi_thunks.obj
 0002:000043e8       ??_C@_1M@OAIMIKLP@?$AAn?$AAt?$AAd?$AAl?$AAl@ 00000001400763e8     libucrt:winapi_thunks.obj
 0002:00004400       ??_C@_1EG@DPGNFKGC@?$AAa?$AAp?$AAi?$AA?9?$AAm?$AAs?$AA?9?$AAw?$AAi?$AAn?$AA?9?$AAa?$AAp?$AAp?$AAm@ 0000000140076400     libucrt:winapi_thunks.obj
 0002:00004458       ??_C@_1O@BCCLBEOE@?$AAu?$AAs?$AAe?$AAr?$AA3?$AA2@ 0000000140076458     libucrt:winapi_thunks.obj
 0002:00004468       ??_C@_1BA@IAIFMGEF@?$AAe?$AAx?$AAt?$AA?9?$AAm?$AAs?$AA?9@ 0000000140076468     libucrt:winapi_thunks.obj
 0002:00004480       ??_C@_0BA@FHFNEAED@AreFileApisANSI@ 0000000140076480     libucrt:winapi_thunks.obj
 0002:000044a8       ??_C@_0BA@IHGNDAEB@CompareStringEx@ 00000001400764a8     libucrt:winapi_thunks.obj
 0002:000044d0       ??_C@_0BE@LJANKFHF@EnumSystemLocalesEx@ 00000001400764d0     libucrt:winapi_thunks.obj
 0002:00004538       ??_C@_0BA@HNOPNCHB@GetActiveWindow@ 0000000140076538     libucrt:winapi_thunks.obj
 0002:00004560       ??_C@_0BA@EPCJIIPD@GetDateFormatEx@ 0000000140076560     libucrt:winapi_thunks.obj
 0002:00004588       ??_C@_0BJ@DIBIJBHA@GetEnabledXStateFeatures@ 0000000140076588     libucrt:winapi_thunks.obj
 0002:000045b8       ??_C@_0BD@HHGDFDBJ@GetLastActivePopup@ 00000001400765b8     libucrt:winapi_thunks.obj
 0002:000045e0       ??_C@_0BA@ONOKGCMP@GetLocaleInfoEx@ 00000001400765e0     libucrt:winapi_thunks.obj
 0002:00004608       ??_C@_0BI@DFKBFLJE@GetProcessWindowStation@ 0000000140076608     libucrt:winapi_thunks.obj
 0002:00004628       ??_C@_0BP@FPNJPEJC@GetSystemTimePreciseAsFileTime@ 0000000140076628     libucrt:winapi_thunks.obj
 0002:00004660       ??_C@_0BA@CIJJKCJJ@GetTimeFormatEx@ 0000000140076660     libucrt:winapi_thunks.obj
 0002:00004688       ??_C@_0BJ@PBCCBIPI@GetUserDefaultLocaleName@ 0000000140076688     libucrt:winapi_thunks.obj
 0002:000046b8       ??_C@_0BK@DEKFELLI@GetUserObjectInformationW@ 00000001400766b8     libucrt:winapi_thunks.obj
 0002:000046e8       ??_C@_0BG@IKLDMBLM@GetXStateFeaturesMask@ 00000001400766e8     libucrt:winapi_thunks.obj
 0002:00004728       ??_C@_0BC@CELBKLLA@IsValidLocaleName@ 0000000140076728     libucrt:winapi_thunks.obj
 0002:00004750       ??_C@_0O@KKBNKAPF@LCMapStringEx@ 0000000140076750     libucrt:winapi_thunks.obj
 0002:00004770       ??_C@_0BB@CDHDDLLP@LCIDToLocaleName@ 0000000140076770     libucrt:winapi_thunks.obj
 0002:00004798       ??_C@_0BB@HBDEELFH@LocaleNameToLCID@ 0000000140076798     libucrt:winapi_thunks.obj
 0002:000047c0       ??_C@_0BE@KINNKFDA@LocateXStateFeature@ 00000001400767c0     libucrt:winapi_thunks.obj
 0002:000047e8       ??_C@_0M@CHKKJDAI@MessageBoxA@ 00000001400767e8     libucrt:winapi_thunks.obj
 0002:00004808       ??_C@_0M@DLDCCGNP@MessageBoxW@ 0000000140076808     libucrt:winapi_thunks.obj
 0002:00004820       ??_C@_0N@PPOMPGGK@RoInitialize@ 0000000140076820     libucrt:winapi_thunks.obj
 0002:00004838       ??_C@_0P@LLFHBIJD@RoUninitialize@ 0000000140076838     libucrt:winapi_thunks.obj
 0002:00004850       ??_C@_0CF@OJOFEIGO@AppPolicyGetProcessTerminationM@ 0000000140076850     libucrt:winapi_thunks.obj
 0002:00004880       ??_C@_0CF@NNDFDCOC@AppPolicyGetThreadInitializatio@ 0000000140076880     libucrt:winapi_thunks.obj
 0002:000048b0       ??_C@_0CE@OICFMIKE@AppPolicyGetShowDeveloperDiagno@ 00000001400768b0     libucrt:winapi_thunks.obj
 0002:000048e0       ??_C@_0BL@ODDJNEDA@AppPolicyGetWindowingModel@ 00000001400768e0     libucrt:winapi_thunks.obj
 0002:00004910       ??_C@_0BI@BKLFFAPO@SetThreadStackGuarantee@ 0000000140076910     libucrt:winapi_thunks.obj
 0002:00004940       ??_C@_0BC@JEAENNKH@SystemFunction036@ 0000000140076940     libucrt:winapi_thunks.obj
 0002:00004958       ?ccs@?1???$__acrt_stdio_parse_mode@D@@YA?AU__acrt_stdio_stream_mode@@QEBD@Z@4QBDB 0000000140076958     libucrt:openfile.obj
 0002:0000495c       ?utf8_encoding@?1???$__acrt_stdio_parse_mode@D@@YA?AU__acrt_stdio_stream_mode@@QEBD@Z@4QBDB 000000014007695c     libucrt:openfile.obj
 0002:00004968       ?utf16_encoding@?1???$__acrt_stdio_parse_mode@D@@YA?AU__acrt_stdio_stream_mode@@QEBD@Z@4QBDB 0000000140076968     libucrt:openfile.obj
 0002:00004974       ?unicode_encoding@?1???$__acrt_stdio_parse_mode@D@@YA?AU__acrt_stdio_stream_mode@@QEBD@Z@4QBDB 0000000140076974     libucrt:openfile.obj
 0002:0000497c       ?ccs@?1???$__acrt_stdio_parse_mode@_W@@YA?AU__acrt_stdio_stream_mode@@QEB_W@Z@4QB_WB 000000014007697c     libucrt:openfile.obj
 0002:00004988       ?utf8_encoding@?1???$__acrt_stdio_parse_mode@_W@@YA?AU__acrt_stdio_stream_mode@@QEB_W@Z@4QB_WB 0000000140076988     libucrt:openfile.obj
 0002:00004998       ?utf16_encoding@?1???$__acrt_stdio_parse_mode@_W@@YA?AU__acrt_stdio_stream_mode@@QEB_W@Z@4QB_WB 0000000140076998     libucrt:openfile.obj
 0002:000049b0       ?unicode_encoding@?1???$__acrt_stdio_parse_mode@_W@@YA?AU__acrt_stdio_stream_mode@@QEB_W@Z@4QB_WB 00000001400769b0     libucrt:openfile.obj
 0002:00004a5c       ??_C@_03OEIAHPBN@INF@      0000000140076a5c     libucrt:cvt.obj
 0002:00004a60       ??_C@_03OJHLLCGB@inf@      0000000140076a60     libucrt:cvt.obj
 0002:00004a64       ??_C@_03LKNCIKJB@NAN@      0000000140076a64     libucrt:cvt.obj
 0002:00004a68       ??_C@_03LHCJEHON@nan@      0000000140076a68     libucrt:cvt.obj
 0002:00004a70       ??_C@_09OFJJIMPC@NAN?$CISNAN?$CJ@ 0000000140076a70     libucrt:cvt.obj
 0002:00004a80       ??_C@_09IPFBKMDL@nan?$CIsnan?$CJ@ 0000000140076a80     libucrt:cvt.obj
 0002:00004a90       ??_C@_08IKHNHAJ@NAN?$CIIND?$CJ@ 0000000140076a90     libucrt:cvt.obj
 0002:00004aa0       ??_C@_08OFCDMILK@nan?$CIind?$CJ@ 0000000140076aa0     libucrt:cvt.obj
 0002:00004aac       ??_C@_05KLBDPFGC@e?$CL000@ 0000000140076aac     libucrt:cvt.obj
 0002:00004ac0       __lc_time_c                0000000140076ac0     libucrt:nlsdata.obj
 0002:00004e0c       ??_C@_03KOEHGMDN@Sun@      0000000140076e0c     libucrt:nlsdata.obj
 0002:00004e10       ??_C@_03PDAGKDH@Mon@       0000000140076e10     libucrt:nlsdata.obj
 0002:00004e14       ??_C@_03NAGEINEP@Tue@      0000000140076e14     libucrt:nlsdata.obj
 0002:00004e18       ??_C@_03MHOMLAJA@Wed@      0000000140076e18     libucrt:nlsdata.obj
 0002:00004e1c       ??_C@_03IOFIKPDN@Thu@      0000000140076e1c     libucrt:nlsdata.obj
 0002:00004e20       ??_C@_03IDIOELNC@Fri@      0000000140076e20     libucrt:nlsdata.obj
 0002:00004e24       ??_C@_03FEFJNEK@Sat@       0000000140076e24     libucrt:nlsdata.obj
 0002:00004e28       ??_C@_06OOPIFAJ@Sunday@    0000000140076e28     libucrt:nlsdata.obj
 0002:00004e30       ??_C@_06JLEDEDGH@Monday@   0000000140076e30     libucrt:nlsdata.obj
 0002:00004e38       ??_C@_07BAAGCFCM@Tuesday@  0000000140076e38     libucrt:nlsdata.obj
 0002:00004e48       ??_C@_09DLIGFAKA@Wednesday@ 0000000140076e48     libucrt:nlsdata.obj
 0002:00004e58       ??_C@_08HACCIKIA@Thursday@ 0000000140076e58     libucrt:nlsdata.obj
 0002:00004e64       ??_C@_06JECMNKMI@Friday@   0000000140076e64     libucrt:nlsdata.obj
 0002:00004e70       ??_C@_08INBOOONO@Saturday@ 0000000140076e70     libucrt:nlsdata.obj
 0002:00004e7c       ??_C@_03JIHJHPIE@Jan@      0000000140076e7c     libucrt:nlsdata.obj
 0002:00004e80       ??_C@_03HJBDCHOM@Feb@      0000000140076e80     libucrt:nlsdata.obj
 0002:00004e84       ??_C@_03ODNJBKGA@Mar@      0000000140076e84     libucrt:nlsdata.obj
 0002:00004e88       ??_C@_03LEOLGMJP@Apr@      0000000140076e88     libucrt:nlsdata.obj
 0002:00004e8c       ??_C@_03CNMDKL@May@        0000000140076e8c     libucrt:nlsdata.obj
 0002:00004e90       ??_C@_03IDFGHECI@Jun@      0000000140076e90     libucrt:nlsdata.obj
 0002:00004e94       ??_C@_03LBGABGKK@Jul@      0000000140076e94     libucrt:nlsdata.obj
 0002:00004e98       ??_C@_03IFJFEIGA@Aug@      0000000140076e98     libucrt:nlsdata.obj
 0002:00004e9c       ??_C@_03GGCAPAJC@Sep@      0000000140076e9c     libucrt:nlsdata.obj
 0002:00004ea0       ??_C@_03BMAOKBAD@Oct@      0000000140076ea0     libucrt:nlsdata.obj
 0002:00004ea4       ??_C@_03JPJOFNIA@Nov@      0000000140076ea4     libucrt:nlsdata.obj
 0002:00004ea8       ??_C@_03MKABNOCG@Dec@      0000000140076ea8     libucrt:nlsdata.obj
 0002:00004eb0       ??_C@_07CGJPFGJA@January@  0000000140076eb0     libucrt:nlsdata.obj
 0002:00004ec0       ??_C@_08GNJGEPFN@February@ 0000000140076ec0     libucrt:nlsdata.obj
 0002:00004ecc       ??_C@_05HPCKOFNC@March@    0000000140076ecc     libucrt:nlsdata.obj
 0002:00004ed4       ??_C@_05DMJDNLEJ@April@    0000000140076ed4     libucrt:nlsdata.obj
 0002:00004edc       ??_C@_04CNLMGBGM@June@     0000000140076edc     libucrt:nlsdata.obj
 0002:00004ee4       ??_C@_04MIEPOIFP@July@     0000000140076ee4     libucrt:nlsdata.obj
 0002:00004eec       ??_C@_06LBBHFDDG@August@   0000000140076eec     libucrt:nlsdata.obj
 0002:00004ef8       ??_C@_09BHHEALKD@September@ 0000000140076ef8     libucrt:nlsdata.obj
 0002:00004f08       ??_C@_07JJNFCEND@October@  0000000140076f08     libucrt:nlsdata.obj
 0002:00004f18       ??_C@_08HCHEGEOA@November@ 0000000140076f18     libucrt:nlsdata.obj
 0002:00004f28       ??_C@_08EDHMEBNP@December@ 0000000140076f28     libucrt:nlsdata.obj
 0002:00004f34       ??_C@_02DEDBPAFC@AM@       0000000140076f34     libucrt:nlsdata.obj
 0002:00004f38       ??_C@_02CJNFDJBF@PM@       0000000140076f38     libucrt:nlsdata.obj
 0002:00004f40       ??_C@_08BPBNCDIB@MM?1dd?1yy@ 0000000140076f40     libucrt:nlsdata.obj
 0002:00004f50       ??_C@_0BE@CKGJFCPC@dddd?0?5MMMM?5dd?0?5yyyy@ 0000000140076f50     libucrt:nlsdata.obj
 0002:00004f68       ??_C@_08JCCMCCIL@HH?3mm?3ss@ 0000000140076f68     libucrt:nlsdata.obj
 0002:00004f78       ??_C@_17MBGCMIPB@?$AAS?$AAu?$AAn@ 0000000140076f78     libucrt:nlsdata.obj
 0002:00004f88       ??_C@_17KBOMKBF@?$AAM?$AAo?$AAn@ 0000000140076f88     libucrt:nlsdata.obj
 0002:00004f98       ??_C@_17BMKGEGOJ@?$AAT?$AAu?$AAe@ 0000000140076f98     libucrt:nlsdata.obj
 0002:00004fa8       ??_C@_17CJEDCEPE@?$AAW?$AAe?$AAd@ 0000000140076fa8     libucrt:nlsdata.obj
 0002:00004fb8       ??_C@_17PDPHAADD@?$AAT?$AAh?$AAu@ 0000000140076fb8     libucrt:nlsdata.obj
 0002:00004fc8       ??_C@_17HFOLPPLP@?$AAF?$AAr?$AAi@ 0000000140076fc8     libucrt:nlsdata.obj
 0002:00004fd8       ??_C@_17GGIBDPIH@?$AAS?$AAa?$AAt@ 0000000140076fd8     libucrt:nlsdata.obj
 0002:00004fe8       ??_C@_1O@IHNHDHPB@?$AAS?$AAu?$AAn?$AAd?$AAa?$AAy@ 0000000140076fe8     libucrt:nlsdata.obj
 0002:00004ff8       ??_C@_1O@MMNBFLIA@?$AAM?$AAo?$AAn?$AAd?$AAa?$AAy@ 0000000140076ff8     libucrt:nlsdata.obj
 0002:00005008       ??_C@_1BA@ENFBFFEK@?$AAT?$AAu?$AAe?$AAs?$AAd?$AAa?$AAy@ 0000000140077008     libucrt:nlsdata.obj
 0002:00005020       ??_C@_1BE@EBOGMDOH@?$AAW?$AAe?$AAd?$AAn?$AAe?$AAs?$AAd?$AAa?$AAy@ 0000000140077020     libucrt:nlsdata.obj
 0002:00005038       ??_C@_1BC@HHMNLIHE@?$AAT?$AAh?$AAu?$AAr?$AAs?$AAd?$AAa?$AAy@ 0000000140077038     libucrt:nlsdata.obj
 0002:00005050       ??_C@_1O@PDICJHAG@?$AAF?$AAr?$AAi?$AAd?$AAa?$AAy@ 0000000140077050     libucrt:nlsdata.obj
 0002:00005060       ??_C@_1BC@ENMNNPAJ@?$AAS?$AAa?$AAt?$AAu?$AAr?$AAd?$AAa?$AAy@ 0000000140077060     libucrt:nlsdata.obj
 0002:00005078       ??_C@_17DKNBKCHM@?$AAJ?$AAa?$AAn@ 0000000140077078     libucrt:nlsdata.obj
 0002:00005088       ??_C@_17LMDJEKJN@?$AAF?$AAe?$AAb@ 0000000140077088     libucrt:nlsdata.obj
 0002:00005098       ??_C@_17CKNLEDEC@?$AAM?$AAa?$AAr@ 0000000140077098     libucrt:nlsdata.obj
 0002:000050a8       ??_C@_17LFPOIHDD@?$AAA?$AAp?$AAr@ 00000001400770a8     libucrt:nlsdata.obj
 0002:000050b8       ??_C@_17PNNKMEED@?$AAM?$AAa?$AAy@ 00000001400770b8     libucrt:nlsdata.obj
 0002:000050c8       ??_C@_17KCJGOCPB@?$AAJ?$AAu?$AAn@ 00000001400770c8     libucrt:nlsdata.obj
 0002:000050d8       ??_C@_17IJPCKHK@?$AAJ?$AAu?$AAl@ 00000001400770d8     libucrt:nlsdata.obj
 0002:000050e8       ??_C@_17ICPELBCN@?$AAA?$AAu?$AAg@ 00000001400770e8     libucrt:nlsdata.obj
 0002:000050f8       ??_C@_17HCHCOKMG@?$AAS?$AAe?$AAp@ 00000001400770f8     libucrt:nlsdata.obj
 0002:00005108       ??_C@_17FNLKOI@?$AAO?$AAc?$AAt@ 0000000140077108     libucrt:nlsdata.obj
 0002:00005118       ??_C@_17BBDMLCIG@?$AAN?$AAo?$AAv@ 0000000140077118     libucrt:nlsdata.obj
 0002:00005128       ??_C@_17EGKACKIF@?$AAD?$AAe?$AAc@ 0000000140077128     libucrt:nlsdata.obj
 0002:00005138       ??_C@_1BA@EFMEIEBA@?$AAJ?$AAa?$AAn?$AAu?$AAa?$AAr?$AAy@ 0000000140077138     libucrt:nlsdata.obj
 0002:00005150       ??_C@_1BC@JGDDFFAM@?$AAF?$AAe?$AAb?$AAr?$AAu?$AAa?$AAr?$AAy@ 0000000140077150     libucrt:nlsdata.obj
 0002:00005168       ??_C@_1M@IKEENEDF@?$AAM?$AAa?$AAr?$AAc?$AAh@ 0000000140077168     libucrt:nlsdata.obj
 0002:00005178       ??_C@_1M@GJNLMHFD@?$AAA?$AAp?$AAr?$AAi?$AAl@ 0000000140077178     libucrt:nlsdata.obj
 0002:00005188       ??_C@_19EPFLPGAP@?$AAJ?$AAu?$AAn?$AAe@ 0000000140077188     libucrt:nlsdata.obj
 0002:00005198       ??_C@_19BIFMLPCD@?$AAJ?$AAu?$AAl?$AAy@ 0000000140077198     libucrt:nlsdata.obj
 0002:000051a8       ??_C@_1O@PAHLKOAC@?$AAA?$AAu?$AAg?$AAu?$AAs?$AAt@ 00000001400771a8     libucrt:nlsdata.obj
 0002:000051b8       ??_C@_1BE@DKAAMBJL@?$AAS?$AAe?$AAp?$AAt?$AAe?$AAm?$AAb?$AAe?$AAr@ 00000001400771b8     libucrt:nlsdata.obj
 0002:000051d0       ??_C@_1BA@EPANDLNG@?$AAO?$AAc?$AAt?$AAo?$AAb?$AAe?$AAr@ 00000001400771d0     libucrt:nlsdata.obj
 0002:000051e8       ??_C@_1BC@BGLIFPF@?$AAN?$AAo?$AAv?$AAe?$AAm?$AAb?$AAe?$AAr@ 00000001400771e8     libucrt:nlsdata.obj
 0002:00005200       ??_C@_1BC@FEMKIFH@?$AAD?$AAe?$AAc?$AAe?$AAm?$AAb?$AAe?$AAr@ 0000000140077200     libucrt:nlsdata.obj
 0002:00005218       ??_C@_15ODEHAHHF@?$AAA?$AAM@ 0000000140077218     libucrt:nlsdata.obj
 0002:00005220       ??_C@_15CLMNNGEL@?$AAP?$AAM@ 0000000140077220     libucrt:nlsdata.obj
 0002:00005228       ??_C@_1BC@IEBCMHCM@?$AAM?$AAM?$AA?1?$AAd?$AAd?$AA?1?$AAy?$AAy@ 0000000140077228     libucrt:nlsdata.obj
 0002:00005240       ??_C@_1CI@KNAKOEBC@?$AAd?$AAd?$AAd?$AAd?$AA?0?$AA?5?$AAM?$AAM?$AAM?$AAM?$AA?5?$AAd?$AAd?$AA?0?$AA?5@ 0000000140077240     libucrt:nlsdata.obj
 0002:00005270       ??_C@_1BC@GDGBMEMK@?$AAH?$AAH?$AA?3?$AAm?$AAm?$AA?3?$AAs?$AAs@ 0000000140077270     libucrt:nlsdata.obj
 0002:00005288       ??_C@_1M@BMHNFIME@?$AAe?$AAn?$AA?9?$AAU?$AAS@ 0000000140077288     libucrt:nlsdata.obj
 0002:000052c0       ??_C@_1M@HPNHIDJI@?$AAj?$AAa?$AA?9?$AAJ?$AAP@ 00000001400772c0     libucrt:mbctype.obj
 0002:000052d0       ??_C@_1M@BIBDDEMK@?$AAz?$AAh?$AA?9?$AAC?$AAN@ 00000001400772d0     libucrt:mbctype.obj
 0002:000052e0       ??_C@_1M@JLOOOEGK@?$AAk?$AAo?$AA?9?$AAK?$AAR@ 00000001400772e0     libucrt:mbctype.obj
 0002:000052f0       ??_C@_1M@CLNBBOPM@?$AAz?$AAh?$AA?9?$AAT?$AAW@ 00000001400772f0     libucrt:mbctype.obj
 0002:00005300       __newctype                 0000000140077300     libucrt:ctype.obj
 0002:000056a0       __newclmap                 00000001400776a0     libucrt:ctype.obj
 0002:00005870       __newcumap                 0000000140077870     libucrt:ctype.obj
 0002:00005a40       _wctype                    0000000140077a40     libucrt:ctype.obj
 0002:00005cb0       __acrt_rg_language         0000000140077cb0     libucrt:get_qualified_locale.obj
 0002:00006190       __acrt_rg_language_count   0000000140078190     libucrt:get_qualified_locale.obj
 0002:000061a0       __acrt_rg_country          00000001400781a0     libucrt:get_qualified_locale.obj
 0002:00006360       __acrt_rg_country_count    0000000140078360     libucrt:get_qualified_locale.obj
 0002:00006370       ??_C@_1BC@LLOKLNP@?$AAa?$AAm?$AAe?$AAr?$AAi?$AAc?$AAa?$AAn@ 0000000140078370     libucrt:get_qualified_locale.obj
 0002:00006388       ??_C@_1CC@HEIGCDGG@?$AAa?$AAm?$AAe?$AAr?$AAi?$AAc?$AAa?$AAn?$AA?5?$AAe?$AAn?$AAg?$AAl?$AAi?$AAs@ 0000000140078388     libucrt:get_qualified_locale.obj
 0002:000063b0       ??_C@_1CC@IHCNOMIN@?$AAa?$AAm?$AAe?$AAr?$AAi?$AAc?$AAa?$AAn?$AA?9?$AAe?$AAn?$AAg?$AAl?$AAi?$AAs@ 00000001400783b0     libucrt:get_qualified_locale.obj
 0002:000063d8       ??_C@_1BG@GKAGPCGG@?$AAa?$AAu?$AAs?$AAt?$AAr?$AAa?$AAl?$AAi?$AAa?$AAn@ 00000001400783d8     libucrt:get_qualified_locale.obj
 0002:000063f8       ??_C@_1BA@GMENCENF@?$AAb?$AAe?$AAl?$AAg?$AAi?$AAa?$AAn@ 00000001400783f8     libucrt:get_qualified_locale.obj
 0002:00006410       ??_C@_1BC@PJMIIAAN@?$AAc?$AAa?$AAn?$AAa?$AAd?$AAi?$AAa?$AAn@ 0000000140078410     libucrt:get_qualified_locale.obj
 0002:00006428       ??_C@_17NOIMNFBF@?$AAc?$AAh?$AAh@ 0000000140078428     libucrt:get_qualified_locale.obj
 0002:00006438       ??_C@_17GGDALCHA@?$AAc?$AAh?$AAi@ 0000000140078438     libucrt:get_qualified_locale.obj
 0002:00006448       ??_C@_1BA@NPNJKIBL@?$AAc?$AAh?$AAi?$AAn?$AAe?$AAs?$AAe@ 0000000140078448     libucrt:get_qualified_locale.obj
 0002:00006460       ??_C@_1CC@DINBAMMJ@?$AAc?$AAh?$AAi?$AAn?$AAe?$AAs?$AAe?$AA?9?$AAh?$AAo?$AAn?$AAg?$AAk?$AAo?$AAn@ 0000000140078460     libucrt:get_qualified_locale.obj
 0002:00006488       ??_C@_1CG@IOBJPACO@?$AAc?$AAh?$AAi?$AAn?$AAe?$AAs?$AAe?$AA?9?$AAs?$AAi?$AAm?$AAp?$AAl?$AAi?$AAf@ 0000000140078488     libucrt:get_qualified_locale.obj
 0002:000064b8       ??_C@_1CE@GAJNDCKG@?$AAc?$AAh?$AAi?$AAn?$AAe?$AAs?$AAe?$AA?9?$AAs?$AAi?$AAn?$AAg?$AAa?$AAp?$AAo@ 00000001400784b8     libucrt:get_qualified_locale.obj
 0002:000064e8       ??_C@_1CI@PAJPIOOD@?$AAc?$AAh?$AAi?$AAn?$AAe?$AAs?$AAe?$AA?9?$AAt?$AAr?$AAa?$AAd?$AAi?$AAt?$AAi@ 00000001400784e8     libucrt:get_qualified_locale.obj
 0002:00006518       ??_C@_1BM@NILJBMMD@?$AAd?$AAu?$AAt?$AAc?$AAh?$AA?9?$AAb?$AAe?$AAl?$AAg?$AAi?$AAa?$AAn@ 0000000140078518     libucrt:get_qualified_locale.obj
 0002:00006540       ??_C@_1CC@OOJPJNEJ@?$AAe?$AAn?$AAg?$AAl?$AAi?$AAs?$AAh?$AA?9?$AAa?$AAm?$AAe?$AAr?$AAi?$AAc?$AAa@ 0000000140078540     libucrt:get_qualified_locale.obj
 0002:00006568       ??_C@_1BI@IOLFEEM@?$AAe?$AAn?$AAg?$AAl?$AAi?$AAs?$AAh?$AA?9?$AAa?$AAu?$AAs@ 0000000140078568     libucrt:get_qualified_locale.obj
 0002:00006588       ??_C@_1BO@HFFNLENJ@?$AAe?$AAn?$AAg?$AAl?$AAi?$AAs?$AAh?$AA?9?$AAb?$AAe?$AAl?$AAi?$AAz?$AAe@ 0000000140078588     libucrt:get_qualified_locale.obj
 0002:000065b0       ??_C@_1BI@HAPKJMPO@?$AAe?$AAn?$AAg?$AAl?$AAi?$AAs?$AAh?$AA?9?$AAc?$AAa?$AAn@ 00000001400785b0     libucrt:get_qualified_locale.obj
 0002:000065d0       ??_C@_1CE@HLNDMIOJ@?$AAe?$AAn?$AAg?$AAl?$AAi?$AAs?$AAh?$AA?9?$AAc?$AAa?$AAr?$AAi?$AAb?$AAb?$AAe@ 00000001400785d0     libucrt:get_qualified_locale.obj
 0002:00006600       ??_C@_1BI@LDHJHHAC@?$AAe?$AAn?$AAg?$AAl?$AAi?$AAs?$AAh?$AA?9?$AAi?$AAr?$AAe@ 0000000140078600     libucrt:get_qualified_locale.obj
 0002:00006620       ??_C@_1CA@NJMMCFOC@?$AAe?$AAn?$AAg?$AAl?$AAi?$AAs?$AAh?$AA?9?$AAj?$AAa?$AAm?$AAa?$AAi?$AAc?$AAa@ 0000000140078620     libucrt:get_qualified_locale.obj
 0002:00006648       ??_C@_1BG@BHJEBBGG@?$AAe?$AAn?$AAg?$AAl?$AAi?$AAs?$AAh?$AA?9?$AAn?$AAz@ 0000000140078648     libucrt:get_qualified_locale.obj
 0002:00006668       ??_C@_1CK@FGOEJJCO@?$AAe?$AAn?$AAg?$AAl?$AAi?$AAs?$AAh?$AA?9?$AAs?$AAo?$AAu?$AAt?$AAh?$AA?5?$AAa@ 0000000140078668     libucrt:get_qualified_locale.obj
 0002:000066a0       ??_C@_1DE@PDBJPCJ@?$AAe?$AAn?$AAg?$AAl?$AAi?$AAs?$AAh?$AA?9?$AAt?$AAr?$AAi?$AAn?$AAi?$AAd?$AAa@ 00000001400786a0     libucrt:get_qualified_locale.obj
 0002:000066e0       ??_C@_1BG@JGCANDME@?$AAe?$AAn?$AAg?$AAl?$AAi?$AAs?$AAh?$AA?9?$AAu?$AAk@ 00000001400786e0     libucrt:get_qualified_locale.obj
 0002:00006700       ??_C@_1BG@DINKMLE@?$AAe?$AAn?$AAg?$AAl?$AAi?$AAs?$AAh?$AA?9?$AAu?$AAs@ 0000000140078700     libucrt:get_qualified_locale.obj
 0002:00006720       ??_C@_1BI@NMFDBHJE@?$AAe?$AAn?$AAg?$AAl?$AAi?$AAs?$AAh?$AA?9?$AAu?$AAs?$AAa@ 0000000140078720     libucrt:get_qualified_locale.obj
 0002:00006740       ??_C@_1BO@OIHKJKII@?$AAf?$AAr?$AAe?$AAn?$AAc?$AAh?$AA?9?$AAb?$AAe?$AAl?$AAg?$AAi?$AAa?$AAn@ 0000000140078740     libucrt:get_qualified_locale.obj
 0002:00006768       ??_C@_1CA@NKAELJKI@?$AAf?$AAr?$AAe?$AAn?$AAc?$AAh?$AA?9?$AAc?$AAa?$AAn?$AAa?$AAd?$AAi?$AAa?$AAn@ 0000000140078768     libucrt:get_qualified_locale.obj
 0002:00006790       ??_C@_1CE@MGKCNLGN@?$AAf?$AAr?$AAe?$AAn?$AAc?$AAh?$AA?9?$AAl?$AAu?$AAx?$AAe?$AAm?$AAb?$AAo?$AAu@ 0000000140078790     libucrt:get_qualified_locale.obj
 0002:000067c0       ??_C@_1BK@CEGEAILM@?$AAf?$AAr?$AAe?$AAn?$AAc?$AAh?$AA?9?$AAs?$AAw?$AAi?$AAs?$AAs@ 00000001400787c0     libucrt:get_qualified_locale.obj
 0002:000067e0       ??_C@_1CA@PAFKEOCC@?$AAg?$AAe?$AAr?$AAm?$AAa?$AAn?$AA?9?$AAa?$AAu?$AAs?$AAt?$AAr?$AAi?$AAa?$AAn@ 00000001400787e0     libucrt:get_qualified_locale.obj
 0002:00006808       ??_C@_1CI@HCFHGOFD@?$AAg?$AAe?$AAr?$AAm?$AAa?$AAn?$AA?9?$AAl?$AAi?$AAc?$AAh?$AAt?$AAe?$AAn?$AAs@ 0000000140078808     libucrt:get_qualified_locale.obj
 0002:00006838       ??_C@_1CE@FEDDNPDG@?$AAg?$AAe?$AAr?$AAm?$AAa?$AAn?$AA?9?$AAl?$AAu?$AAx?$AAe?$AAm?$AAb?$AAo?$AAu@ 0000000140078838     libucrt:get_qualified_locale.obj
 0002:00006868       ??_C@_1BK@LIMINNMN@?$AAg?$AAe?$AAr?$AAm?$AAa?$AAn?$AA?9?$AAs?$AAw?$AAi?$AAs?$AAs@ 0000000140078868     libucrt:get_qualified_locale.obj
 0002:00006888       ??_C@_1BM@LGMDBEPD@?$AAi?$AAr?$AAi?$AAs?$AAh?$AA?9?$AAe?$AAn?$AAg?$AAl?$AAi?$AAs?$AAh@ 0000000140078888     libucrt:get_qualified_locale.obj
 0002:000068b0       ??_C@_1BM@NNCFBAEE@?$AAi?$AAt?$AAa?$AAl?$AAi?$AAa?$AAn?$AA?9?$AAs?$AAw?$AAi?$AAs?$AAs@ 00000001400788b0     libucrt:get_qualified_locale.obj
 0002:000068d8       ??_C@_1BE@FEDJNPIB@?$AAn?$AAo?$AAr?$AAw?$AAe?$AAg?$AAi?$AAa?$AAn@ 00000001400788d8     libucrt:get_qualified_locale.obj
 0002:000068f0       ??_C@_1CC@CILKDEIE@?$AAn?$AAo?$AAr?$AAw?$AAe?$AAg?$AAi?$AAa?$AAn?$AA?9?$AAb?$AAo?$AAk?$AAm?$AAa@ 00000001400788f0     libucrt:get_qualified_locale.obj
 0002:00006918       ??_C@_1CE@DHMMHEPL@?$AAn?$AAo?$AAr?$AAw?$AAe?$AAg?$AAi?$AAa?$AAn?$AA?9?$AAn?$AAy?$AAn?$AAo?$AAr@ 0000000140078918     libucrt:get_qualified_locale.obj
 0002:00006948       ??_C@_1CK@OPNMHECD@?$AAp?$AAo?$AAr?$AAt?$AAu?$AAg?$AAu?$AAe?$AAs?$AAe?$AA?9?$AAb?$AAr?$AAa?$AAz@ 0000000140078948     libucrt:get_qualified_locale.obj
 0002:00006980       ??_C@_1CE@KEEHCDB@?$AAs?$AAp?$AAa?$AAn?$AAi?$AAs?$AAh?$AA?9?$AAa?$AAr?$AAg?$AAe?$AAn?$AAt?$AAi@ 0000000140078980     libucrt:get_qualified_locale.obj
 0002:000069b0       ??_C@_1CA@GIAOLHJD@?$AAs?$AAp?$AAa?$AAn?$AAi?$AAs?$AAh?$AA?9?$AAb?$AAo?$AAl?$AAi?$AAv?$AAi?$AAa@ 00000001400789b0     libucrt:get_qualified_locale.obj
 0002:000069d8       ??_C@_1BM@OJNDFNPD@?$AAs?$AAp?$AAa?$AAn?$AAi?$AAs?$AAh?$AA?9?$AAc?$AAh?$AAi?$AAl?$AAe@ 00000001400789d8     libucrt:get_qualified_locale.obj
 0002:00006a00       ??_C@_1CC@OCOLPALL@?$AAs?$AAp?$AAa?$AAn?$AAi?$AAs?$AAh?$AA?9?$AAc?$AAo?$AAl?$AAo?$AAm?$AAb?$AAi@ 0000000140078a00     libucrt:get_qualified_locale.obj
 0002:00006a28       ??_C@_1CG@BPOFMKBB@?$AAs?$AAp?$AAa?$AAn?$AAi?$AAs?$AAh?$AA?9?$AAc?$AAo?$AAs?$AAt?$AAa?$AA?5?$AAr@ 0000000140078a28     libucrt:get_qualified_locale.obj
 0002:00006a58       ??_C@_1DG@IGOBAPBB@?$AAs?$AAp?$AAa?$AAn?$AAi?$AAs?$AAh?$AA?9?$AAd?$AAo?$AAm?$AAi?$AAn?$AAi?$AAc@ 0000000140078a58     libucrt:get_qualified_locale.obj
 0002:00006a98       ??_C@_1CA@JHAPGEGI@?$AAs?$AAp?$AAa?$AAn?$AAi?$AAs?$AAh?$AA?9?$AAe?$AAc?$AAu?$AAa?$AAd?$AAo?$AAr@ 0000000140078a98     libucrt:get_qualified_locale.obj
 0002:00006ac0       ??_C@_1CI@LAPALJPP@?$AAs?$AAp?$AAa?$AAn?$AAi?$AAs?$AAh?$AA?9?$AAe?$AAl?$AA?5?$AAs?$AAa?$AAl?$AAv@ 0000000140078ac0     libucrt:get_qualified_locale.obj
 0002:00006af0       ??_C@_1CE@PDGBOFOM@?$AAs?$AAp?$AAa?$AAn?$AAi?$AAs?$AAh?$AA?9?$AAg?$AAu?$AAa?$AAt?$AAe?$AAm?$AAa@ 0000000140078af0     libucrt:get_qualified_locale.obj
 0002:00006b20       ??_C@_1CC@NBEBAODI@?$AAs?$AAp?$AAa?$AAn?$AAi?$AAs?$AAh?$AA?9?$AAh?$AAo?$AAn?$AAd?$AAu?$AAr?$AAa@ 0000000140078b20     libucrt:get_qualified_locale.obj
 0002:00006b48       ??_C@_1CA@LLKGHBMF@?$AAs?$AAp?$AAa?$AAn?$AAi?$AAs?$AAh?$AA?9?$AAm?$AAe?$AAx?$AAi?$AAc?$AAa?$AAn@ 0000000140078b48     libucrt:get_qualified_locale.obj
 0002:00006b70       ??_C@_1BO@LKNDOIGD@?$AAs?$AAp?$AAa?$AAn?$AAi?$AAs?$AAh?$AA?9?$AAm?$AAo?$AAd?$AAe?$AAr?$AAn@ 0000000140078b70     libucrt:get_qualified_locale.obj
 0002:00006b98       ??_C@_1CE@NMDMOEEB@?$AAs?$AAp?$AAa?$AAn?$AAi?$AAs?$AAh?$AA?9?$AAn?$AAi?$AAc?$AAa?$AAr?$AAa?$AAg@ 0000000140078b98     libucrt:get_qualified_locale.obj
 0002:00006bc8       ??_C@_1BO@LLCBEJGB@?$AAs?$AAp?$AAa?$AAn?$AAi?$AAs?$AAh?$AA?9?$AAp?$AAa?$AAn?$AAa?$AAm?$AAa@ 0000000140078bc8     libucrt:get_qualified_locale.obj
 0002:00006bf0       ??_C@_1CC@FKPGGIHO@?$AAs?$AAp?$AAa?$AAn?$AAi?$AAs?$AAh?$AA?9?$AAp?$AAa?$AAr?$AAa?$AAg?$AAu?$AAa@ 0000000140078bf0     libucrt:get_qualified_locale.obj
 0002:00006c18       ??_C@_1BK@CDEIHOOP@?$AAs?$AAp?$AAa?$AAn?$AAi?$AAs?$AAh?$AA?9?$AAp?$AAe?$AAr?$AAu@ 0000000140078c18     libucrt:get_qualified_locale.obj
 0002:00006c38       ??_C@_1CI@GAHAKKGP@?$AAs?$AAp?$AAa?$AAn?$AAi?$AAs?$AAh?$AA?9?$AAp?$AAu?$AAe?$AAr?$AAt?$AAo?$AA?5@ 0000000140078c38     libucrt:get_qualified_locale.obj
 0002:00006c68       ??_C@_1CA@NKJBCAGP@?$AAs?$AAp?$AAa?$AAn?$AAi?$AAs?$AAh?$AA?9?$AAu?$AAr?$AAu?$AAg?$AAu?$AAa?$AAy@ 0000000140078c68     libucrt:get_qualified_locale.obj
 0002:00006c90       ??_C@_1CE@ODILCONM@?$AAs?$AAp?$AAa?$AAn?$AAi?$AAs?$AAh?$AA?9?$AAv?$AAe?$AAn?$AAe?$AAz?$AAu?$AAe@ 0000000140078c90     libucrt:get_qualified_locale.obj
 0002:00006cc0       ??_C@_1CA@OBNMCGFO@?$AAs?$AAw?$AAe?$AAd?$AAi?$AAs?$AAh?$AA?9?$AAf?$AAi?$AAn?$AAl?$AAa?$AAn?$AAd@ 0000000140078cc0     libucrt:get_qualified_locale.obj
 0002:00006ce8       ??_C@_1M@PIPDDPPI@?$AAs?$AAw?$AAi?$AAs?$AAs@ 0000000140078ce8     libucrt:get_qualified_locale.obj
 0002:00006cf8       ??_C@_15PJPFLCCM@?$AAu?$AAk@ 0000000140078cf8     libucrt:get_qualified_locale.obj
 0002:00006d00       ??_C@_15GMFIMNFM@?$AAu?$AAs@ 0000000140078d00     libucrt:get_qualified_locale.obj
 0002:00006d08       ??_C@_17HAEBFAGL@?$AAu?$AAs?$AAa@ 0000000140078d08     libucrt:get_qualified_locale.obj
 0002:00006d18       ??_C@_1BA@DPFJEPHB@?$AAa?$AAm?$AAe?$AAr?$AAi?$AAc?$AAa@ 0000000140078d18     libucrt:get_qualified_locale.obj
 0002:00006d30       ??_C@_1BA@ELOGGFK@?$AAb?$AAr?$AAi?$AAt?$AAa?$AAi?$AAn@ 0000000140078d30     libucrt:get_qualified_locale.obj
 0002:00006d48       ??_C@_1M@GHBGIGDA@?$AAc?$AAh?$AAi?$AAn?$AAa@ 0000000140078d48     libucrt:get_qualified_locale.obj
 0002:00006d58       ??_C@_1M@NCHEJOPO@?$AAc?$AAz?$AAe?$AAc?$AAh@ 0000000140078d58     libucrt:get_qualified_locale.obj
 0002:00006d68       ??_C@_1BA@BKPAPBLA@?$AAe?$AAn?$AAg?$AAl?$AAa?$AAn?$AAd@ 0000000140078d68     libucrt:get_qualified_locale.obj
 0002:00006d80       ??_C@_1BM@HKBCKIPC@?$AAg?$AAr?$AAe?$AAa?$AAt?$AA?5?$AAb?$AAr?$AAi?$AAt?$AAa?$AAi?$AAn@ 0000000140078d80     libucrt:get_qualified_locale.obj
 0002:00006da8       ??_C@_1BA@PPCHPGJB@?$AAh?$AAo?$AAl?$AAl?$AAa?$AAn?$AAd@ 0000000140078da8     libucrt:get_qualified_locale.obj
 0002:00006dc0       ??_C@_1BE@JBMPEGDG@?$AAh?$AAo?$AAn?$AAg?$AA?9?$AAk?$AAo?$AAn?$AAg@ 0000000140078dc0     libucrt:get_qualified_locale.obj
 0002:00006dd8       ??_C@_1BI@KOELBBPJ@?$AAn?$AAe?$AAw?$AA?9?$AAz?$AAe?$AAa?$AAl?$AAa?$AAn?$AAd@ 0000000140078dd8     libucrt:get_qualified_locale.obj
 0002:00006df4       ??_C@_15HIEBHAIO@?$AAn?$AAz@ 0000000140078df4     libucrt:get_qualified_locale.obj
 0002:00006e00       ??_C@_1BC@CHBCPFPI@?$AAp?$AAr?$AA?5?$AAc?$AAh?$AAi?$AAn?$AAa@ 0000000140078e00     libucrt:get_qualified_locale.obj
 0002:00006e18       ??_C@_1BC@JAOIIFKD@?$AAp?$AAr?$AA?9?$AAc?$AAh?$AAi?$AAn?$AAa@ 0000000140078e18     libucrt:get_qualified_locale.obj
 0002:00006e30       ??_C@_1BI@BEHPPHKC@?$AAp?$AAu?$AAe?$AAr?$AAt?$AAo?$AA?9?$AAr?$AAi?$AAc?$AAo@ 0000000140078e30     libucrt:get_qualified_locale.obj
 0002:00006e50       ??_C@_1O@PAEOFKDI@?$AAs?$AAl?$AAo?$AAv?$AAa?$AAk@ 0000000140078e50     libucrt:get_qualified_locale.obj
 0002:00006e60       ??_C@_1BK@FIHMCKAM@?$AAs?$AAo?$AAu?$AAt?$AAh?$AA?5?$AAa?$AAf?$AAr?$AAi?$AAc?$AAa@ 0000000140078e60     libucrt:get_qualified_locale.obj
 0002:00006e80       ??_C@_1BI@NAEOODKB@?$AAs?$AAo?$AAu?$AAt?$AAh?$AA?5?$AAk?$AAo?$AAr?$AAe?$AAa@ 0000000140078e80     libucrt:get_qualified_locale.obj
 0002:00006ea0       ??_C@_1BK@FBDGGIFF@?$AAs?$AAo?$AAu?$AAt?$AAh?$AA?9?$AAa?$AAf?$AAr?$AAi?$AAc?$AAa@ 0000000140078ea0     libucrt:get_qualified_locale.obj
 0002:00006ec0       ??_C@_1BI@GHLEJDPK@?$AAs?$AAo?$AAu?$AAt?$AAh?$AA?9?$AAk?$AAo?$AAr?$AAe?$AAa@ 0000000140078ec0     libucrt:get_qualified_locale.obj
 0002:00006ee0       ??_C@_1CE@PLHLOMJF@?$AAt?$AAr?$AAi?$AAn?$AAi?$AAd?$AAa?$AAd?$AA?5?$AA?$CG?$AA?5?$AAt?$AAo?$AAb?$AAa@ 0000000140078ee0     libucrt:get_qualified_locale.obj
 0002:00006f10       ??_C@_1BO@MODIMHHI@?$AAu?$AAn?$AAi?$AAt?$AAe?$AAd?$AA?9?$AAk?$AAi?$AAn?$AAg?$AAd?$AAo?$AAm@ 0000000140078f10     libucrt:get_qualified_locale.obj
 0002:00006f38       ??_C@_1BM@FFHJONBJ@?$AAu?$AAn?$AAi?$AAt?$AAe?$AAd?$AA?9?$AAs?$AAt?$AAa?$AAt?$AAe?$AAs@ 0000000140078f38     libucrt:get_qualified_locale.obj
 0002:00006f60       ??_C@_19MPDNHKDG@?$AAu?$AAt?$AAf?$AA8@ 0000000140078f60     libucrt:get_qualified_locale.obj
 0002:00006f70       ??_C@_17DNCLJFIF@?$AAA?$AAC?$AAP@ 0000000140078f70     libucrt:get_qualified_locale.obj
 0002:00006f80       ??_C@_1M@FPEIIFAM@?$AAu?$AAt?$AAf?$AA?9?$AA8@ 0000000140078f80     libucrt:get_qualified_locale.obj
 0002:00006f90       ??_C@_17CIKBIHLH@?$AAO?$AAC?$AAP@ 0000000140078f90     libucrt:get_qualified_locale.obj
 0002:00006fa0       __rglangidNotDefault       0000000140078fa0     libucrt:getqloc_downlevel.obj
 0002:000080dc       ??_C@_15EMKDOKLE@?$AAa?$AAr@ 000000014007a0dc     libucrt:lcidtoname_downlevel.obj
 0002:000080e4       ??_C@_15KNPADPLH@?$AAb?$AAg@ 000000014007a0e4     libucrt:lcidtoname_downlevel.obj
 0002:000080ec       ??_C@_15EDMHLDMO@?$AAc?$AAa@ 000000014007a0ec     libucrt:lcidtoname_downlevel.obj
 0002:000080f8       ??_C@_1O@BPEAJADD@?$AAz?$AAh?$AA?9?$AAC?$AAH?$AAS@ 000000014007a0f8     libucrt:lcidtoname_downlevel.obj
 0002:00008108       ??_C@_15LJNHCMNK@?$AAc?$AAs@ 000000014007a108     libucrt:lcidtoname_downlevel.obj
 0002:00008110       ??_C@_15FOMCIDHG@?$AAd?$AAa@ 000000014007a110     libucrt:lcidtoname_downlevel.obj
 0002:00008118       ??_C@_15NBKABECB@?$AAd?$AAe@ 000000014007a118     libucrt:lcidtoname_downlevel.obj
 0002:00008120       ??_C@_15GHPEIIAO@?$AAe?$AAl@ 000000014007a120     libucrt:lcidtoname_downlevel.obj
 0002:00008128       ??_C@_15MNPNEAIF@?$AAe?$AAn@ 000000014007a128     libucrt:lcidtoname_downlevel.obj
 0002:00008130       ??_C@_15GPIOMPMH@?$AAe?$AAs@ 000000014007a130     libucrt:lcidtoname_downlevel.obj
 0002:00008138       ??_C@_15NGLOAKJC@?$AAf?$AAi@ 000000014007a138     libucrt:lcidtoname_downlevel.obj
 0002:00008140       ??_C@_15FBKGNKAM@?$AAf?$AAr@ 000000014007a140     libucrt:lcidtoname_downlevel.obj
 0002:00008148       ??_C@_15KGGCNEFK@?$AAh?$AAe@ 000000014007a148     libucrt:lcidtoname_downlevel.obj
 0002:00008150       ??_C@_15PGHLIDMF@?$AAh?$AAu@ 000000014007a150     libucrt:lcidtoname_downlevel.obj
 0002:00008158       ??_C@_15BIEMAPLM@?$AAi?$AAs@ 000000014007a158     libucrt:lcidtoname_downlevel.obj
 0002:00008160       ??_C@_15IFJLDHAF@?$AAi?$AAt@ 000000014007a160     libucrt:lcidtoname_downlevel.obj
 0002:00008168       ??_C@_15GEMIOCAG@?$AAj?$AAa@ 000000014007a168     libucrt:lcidtoname_downlevel.obj
 0002:00008170       ??_C@_15EPELEGJA@?$AAk?$AAo@ 000000014007a170     libucrt:lcidtoname_downlevel.obj
 0002:00008178       ??_C@_15NDDHIMN@?$AAn?$AAl@ 000000014007a178     libucrt:lcidtoname_downlevel.obj
 0002:00008180       ??_C@_15BPIGNHCD@?$AAn?$AAo@ 000000014007a180     libucrt:lcidtoname_downlevel.obj
 0002:00008188       ??_C@_15DEOPBLCG@?$AAp?$AAl@ 000000014007a188     libucrt:lcidtoname_downlevel.obj
 0002:00008190       ??_C@_15KBECGEFG@?$AAp?$AAt@ 000000014007a190     libucrt:lcidtoname_downlevel.obj
 0002:00008198       ??_C@_15GLJCBFMD@?$AAr?$AAo@ 000000014007a198     libucrt:lcidtoname_downlevel.obj
 0002:000081a0       ??_C@_15FEDGKCDI@?$AAr?$AAu@ 000000014007a1a0     libucrt:lcidtoname_downlevel.obj
 0002:000081a8       ??_C@_15GLKMLLHM@?$AAh?$AAr@ 000000014007a1a8     libucrt:lcidtoname_downlevel.obj
 0002:000081b0       ??_C@_15CPKMFBDB@?$AAs?$AAk@ 000000014007a1b0     libucrt:lcidtoname_downlevel.obj
 0002:000081b8       ??_C@_15BAAIOGMK@?$AAs?$AAq@ 000000014007a1b8     libucrt:lcidtoname_downlevel.obj
 0002:000081c0       ??_C@_15INNPNOHD@?$AAs?$AAv@ 000000014007a1c0     libucrt:lcidtoname_downlevel.obj
 0002:000081c8       ??_C@_15CABMMOGH@?$AAt?$AAh@ 000000014007a1c8     libucrt:lcidtoname_downlevel.obj
 0002:000081d0       ??_C@_15BPLIHJJM@?$AAt?$AAr@ 000000014007a1d0     libucrt:lcidtoname_downlevel.obj
 0002:000081d8       ??_C@_15NEOEKKDJ@?$AAu?$AAr@ 000000014007a1d8     libucrt:lcidtoname_downlevel.obj
 0002:000081e0       ??_C@_15NFICGAJK@?$AAi?$AAd@ 000000014007a1e0     libucrt:lcidtoname_downlevel.obj
 0002:000081e8       ??_C@_15HPJPHDM@?$AAb?$AAe@ 000000014007a1e8     libucrt:lcidtoname_downlevel.obj
 0002:000081f0       ??_C@_15LCHLGJII@?$AAs?$AAl@ 000000014007a1f0     libucrt:lcidtoname_downlevel.obj
 0002:000081f8       ??_C@_15PCFJPHHO@?$AAe?$AAt@ 000000014007a1f8     libucrt:lcidtoname_downlevel.obj
 0002:00008200       ??_C@_15HPFPGODN@?$AAl?$AAv@ 000000014007a200     libucrt:lcidtoname_downlevel.obj
 0002:00008208       ??_C@_15NFFGKGLG@?$AAl?$AAt@ 000000014007a208     libucrt:lcidtoname_downlevel.obj
 0002:00008210       ??_C@_15BDAKCCHN@?$AAf?$AAa@ 000000014007a210     libucrt:lcidtoname_downlevel.obj
 0002:00008218       ??_C@_15NFGIAIAJ@?$AAv?$AAi@ 000000014007a218     libucrt:lcidtoname_downlevel.obj
 0002:00008220       ??_C@_15LMKNDMHN@?$AAh?$AAy@ 000000014007a220     libucrt:lcidtoname_downlevel.obj
 0002:00008228       ??_C@_15IJBHMCFL@?$AAa?$AAz@ 000000014007a228     libucrt:lcidtoname_downlevel.obj
 0002:00008230       ??_C@_15EKOFJABL@?$AAe?$AAu@ 000000014007a230     libucrt:lcidtoname_downlevel.obj
 0002:00008238       ??_C@_15BGHADCNK@?$AAm?$AAk@ 000000014007a238     libucrt:lcidtoname_downlevel.obj
 0002:00008240       ??_C@_15JDNICKHM@?$AAa?$AAf@ 000000014007a240     libucrt:lcidtoname_downlevel.obj
 0002:00008248       ??_C@_15KPJEDBKD@?$AAk?$AAa@ 000000014007a248     libucrt:lcidtoname_downlevel.obj
 0002:00008250       ??_C@_15PDNFFFEO@?$AAf?$AAo@ 000000014007a250     libucrt:lcidtoname_downlevel.obj
 0002:00008258       ??_C@_15OMLEGLOC@?$AAh?$AAi@ 000000014007a258     libucrt:lcidtoname_downlevel.obj
 0002:00008260       ??_C@_15IDNNENKK@?$AAm?$AAs@ 000000014007a260     libucrt:lcidtoname_downlevel.obj
 0002:00008268       ??_C@_15MACJNBMH@?$AAk?$AAk@ 000000014007a268     libucrt:lcidtoname_downlevel.obj
 0002:00008270       ??_C@_15DKDJEOND@?$AAk?$AAy@ 000000014007a270     libucrt:lcidtoname_downlevel.obj
 0002:00008278       ??_C@_15DFGDLJBG@?$AAs?$AAw@ 000000014007a278     libucrt:lcidtoname_downlevel.obj
 0002:00008280       ??_C@_15BBFAICNG@?$AAu?$AAz@ 000000014007a280     libucrt:lcidtoname_downlevel.obj
 0002:00008288       ??_C@_15DKNDCGEA@?$AAt?$AAt@ 000000014007a288     libucrt:lcidtoname_downlevel.obj
 0002:00008290       ??_C@_15MGIFMDPL@?$AAp?$AAa@ 000000014007a290     libucrt:lcidtoname_downlevel.obj
 0002:00008298       ??_C@_15HCNDBBA@?$AAg?$AAu@ 000000014007a298     libucrt:lcidtoname_downlevel.obj
 0002:000082a0       ??_C@_15FNBEIBON@?$AAt?$AAa@ 000000014007a2a0     libucrt:lcidtoname_downlevel.obj
 0002:000082a8       ??_C@_15NCHGBGLK@?$AAt?$AAe@ 000000014007a2a8     libucrt:lcidtoname_downlevel.obj
 0002:000082b0       ??_C@_15PHPHCBPF@?$AAk?$AAn@ 000000014007a2b0     libucrt:lcidtoname_downlevel.obj
 0002:000082b8       ??_C@_15DLGBCKMP@?$AAm?$AAr@ 000000014007a2b8     libucrt:lcidtoname_downlevel.obj
 0002:000082c0       ??_C@_15EABBLBFF@?$AAs?$AAa@ 000000014007a2c0     libucrt:lcidtoname_downlevel.obj
 0002:000082c8       ??_C@_15CBKOMCOI@?$AAm?$AAn@ 000000014007a2c8     libucrt:lcidtoname_downlevel.obj
 0002:000082d0       ??_C@_15CKDMCJAF@?$AAg?$AAl@ 000000014007a2d0     libucrt:lcidtoname_downlevel.obj
 0002:000082d8       ??_C@_17CNJFBPG@?$AAk?$AAo?$AAk@ 000000014007a2d8     libucrt:lcidtoname_downlevel.obj
 0002:000082e8       ??_C@_17FFBJICPL@?$AAs?$AAy?$AAr@ 000000014007a2e8     libucrt:lcidtoname_downlevel.obj
 0002:000082f8       ??_C@_17KPNDCPAF@?$AAd?$AAi?$AAv@ 000000014007a2f8     libucrt:lcidtoname_downlevel.obj
 0002:00008304       ??_C@_11LOCGONAA@@         000000014007a304     libucrt:lcidtoname_downlevel.obj
 0002:00008308       ??_C@_1M@OKAHONE@?$AAa?$AAr?$AA?9?$AAS?$AAA@ 000000014007a308     libucrt:lcidtoname_downlevel.obj
 0002:00008318       ??_C@_1M@FFFIGIGK@?$AAb?$AAg?$AA?9?$AAB?$AAG@ 000000014007a318     libucrt:lcidtoname_downlevel.obj
 0002:00008328       ??_C@_1M@BJNKEDC@?$AAc?$AAa?$AA?9?$AAE?$AAS@ 000000014007a328     libucrt:lcidtoname_downlevel.obj
 0002:00008338       ??_C@_1M@IJJHFJHA@?$AAc?$AAs?$AA?9?$AAC?$AAZ@ 000000014007a338     libucrt:lcidtoname_downlevel.obj
 0002:00008348       ??_C@_1M@CLPEOBGI@?$AAd?$AAa?$AA?9?$AAD?$AAK@ 000000014007a348     libucrt:lcidtoname_downlevel.obj
 0002:00008358       ??_C@_1M@MCMADGCB@?$AAd?$AAe?$AA?9?$AAD?$AAE@ 000000014007a358     libucrt:lcidtoname_downlevel.obj
 0002:00008368       ??_C@_1M@OOCKEMAM@?$AAe?$AAl?$AA?9?$AAG?$AAR@ 000000014007a368     libucrt:lcidtoname_downlevel.obj
 0002:00008378       ??_C@_1M@DDNJFGID@?$AAf?$AAi?$AA?9?$AAF?$AAI@ 000000014007a378     libucrt:lcidtoname_downlevel.obj
 0002:00008388       ??_C@_1M@GLIPPMAC@?$AAf?$AAr?$AA?9?$AAF?$AAR@ 000000014007a388     libucrt:lcidtoname_downlevel.obj
 0002:00008398       ??_C@_1M@GFMCHPE@?$AAh?$AAe?$AA?9?$AAI?$AAL@ 000000014007a398     libucrt:lcidtoname_downlevel.obj
 0002:000083a8       ??_C@_1M@MHLPGNKM@?$AAh?$AAu?$AA?9?$AAH?$AAU@ 000000014007a3a8     libucrt:lcidtoname_downlevel.obj
 0002:000083b8       ??_C@_1M@LPDDNNPN@?$AAi?$AAs?$AA?9?$AAI?$AAS@ 000000014007a3b8     libucrt:lcidtoname_downlevel.obj
 0002:000083c8       ??_C@_1M@MADIPODN@?$AAi?$AAt?$AA?9?$AAI?$AAT@ 000000014007a3c8     libucrt:lcidtoname_downlevel.obj
 0002:000083d8       ??_C@_1M@IHBJJGG@?$AAn?$AAl?$AA?9?$AAN?$AAL@ 000000014007a3d8     libucrt:lcidtoname_downlevel.obj
 0002:000083e8       ??_C@_1M@EANAGDL@?$AAn?$AAb?$AA?9?$AAN?$AAO@ 000000014007a3e8     libucrt:lcidtoname_downlevel.obj
 0002:000083f8       ??_C@_1M@NEIEMEGP@?$AAp?$AAl?$AA?9?$AAP?$AAL@ 000000014007a3f8     libucrt:lcidtoname_downlevel.obj
 0002:00008408       ??_C@_1M@BOCFIGEP@?$AAp?$AAt?$AA?9?$AAB?$AAR@ 000000014007a408     libucrt:lcidtoname_downlevel.obj
 0002:00008418       ??_C@_1M@IMPFOPBG@?$AAr?$AAo?$AA?9?$AAR?$AAO@ 000000014007a418     libucrt:lcidtoname_downlevel.obj
 0002:00008428       ??_C@_1M@IDNNEJMM@?$AAr?$AAu?$AA?9?$AAR?$AAU@ 000000014007a428     libucrt:lcidtoname_downlevel.obj
 0002:00008438       ??_C@_1M@LILEEOGM@?$AAh?$AAr?$AA?9?$AAH?$AAR@ 000000014007a438     libucrt:lcidtoname_downlevel.obj
 0002:00008448       ??_C@_1M@FKIFEHPB@?$AAs?$AAk?$AA?9?$AAS?$AAK@ 000000014007a448     libucrt:lcidtoname_downlevel.obj
 0002:00008458       ??_C@_1M@LJMAMNPJ@?$AAs?$AAq?$AA?9?$AAA?$AAL@ 000000014007a458     libucrt:lcidtoname_downlevel.obj
 0002:00008468       ??_C@_1M@GIAKDKJK@?$AAs?$AAv?$AA?9?$AAS?$AAE@ 000000014007a468     libucrt:lcidtoname_downlevel.obj
 0002:00008478       ??_C@_1M@MKJKIKCL@?$AAt?$AAh?$AA?9?$AAT?$AAH@ 000000014007a478     libucrt:lcidtoname_downlevel.obj
 0002:00008488       ??_C@_1M@MFLCCMPB@?$AAt?$AAr?$AA?9?$AAT?$AAR@ 000000014007a488     libucrt:lcidtoname_downlevel.obj
 0002:00008498       ??_C@_1M@OIJHDKJN@?$AAu?$AAr?$AA?9?$AAP?$AAK@ 000000014007a498     libucrt:lcidtoname_downlevel.obj
 0002:000084a8       ??_C@_1M@LHIPCIEK@?$AAi?$AAd?$AA?9?$AAI?$AAD@ 000000014007a4a8     libucrt:lcidtoname_downlevel.obj
 0002:000084b8       ??_C@_1M@MFMOBGI@?$AAu?$AAk?$AA?9?$AAU?$AAA@ 000000014007a4b8     libucrt:lcidtoname_downlevel.obj
 0002:000084c8       ??_C@_1M@OBGLJIPL@?$AAb?$AAe?$AA?9?$AAB?$AAY@ 000000014007a4c8     libucrt:lcidtoname_downlevel.obj
 0002:000084d8       ??_C@_1M@BCFAJEAD@?$AAs?$AAl?$AA?9?$AAS?$AAI@ 000000014007a4d8     libucrt:lcidtoname_downlevel.obj
 0002:000084e8       ??_C@_1M@FKFFEDDN@?$AAe?$AAt?$AA?9?$AAE?$AAE@ 000000014007a4e8     libucrt:lcidtoname_downlevel.obj
 0002:000084f8       ??_C@_1M@KGKKAACI@?$AAl?$AAv?$AA?9?$AAL?$AAV@ 000000014007a4f8     libucrt:lcidtoname_downlevel.obj
 0002:00008508       ??_C@_1M@IFGBIJO@?$AAl?$AAt?$AA?9?$AAL?$AAT@ 000000014007a508     libucrt:lcidtoname_downlevel.obj
 0002:00008518       ??_C@_1M@FGEAHEDM@?$AAf?$AAa?$AA?9?$AAI?$AAR@ 000000014007a518     libucrt:lcidtoname_downlevel.obj
 0002:00008528       ??_C@_1M@KBMAIBFN@?$AAv?$AAi?$AA?9?$AAV?$AAN@ 000000014007a528     libucrt:lcidtoname_downlevel.obj
 0002:00008538       ??_C@_1M@GPCBKDJK@?$AAh?$AAy?$AA?9?$AAA?$AAM@ 000000014007a538     libucrt:lcidtoname_downlevel.obj
 0002:00008548       ??_C@_1BG@BECMDDJB@?$AAa?$AAz?$AA?9?$AAA?$AAZ?$AA?9?$AAL?$AAa?$AAt?$AAn@ 000000014007a548     libucrt:lcidtoname_downlevel.obj
 0002:00008568       ??_C@_1M@MAOFCAEA@?$AAe?$AAu?$AA?9?$AAE?$AAS@ 000000014007a568     libucrt:lcidtoname_downlevel.obj
 0002:00008578       ??_C@_1M@IGHABKPI@?$AAm?$AAk?$AA?9?$AAM?$AAK@ 000000014007a578     libucrt:lcidtoname_downlevel.obj
 0002:00008588       ??_C@_1M@IAIGNEJG@?$AAt?$AAn?$AA?9?$AAZ?$AAA@ 000000014007a588     libucrt:lcidtoname_downlevel.obj
 0002:00008598       ??_C@_1M@IIJCOJFA@?$AAx?$AAh?$AA?9?$AAZ?$AAA@ 000000014007a598     libucrt:lcidtoname_downlevel.obj
 0002:000085a8       ??_C@_1M@LGPJHNJH@?$AAz?$AAu?$AA?9?$AAZ?$AAA@ 000000014007a5a8     libucrt:lcidtoname_downlevel.obj
 0002:000085b8       ??_C@_1M@HOKAOIO@?$AAa?$AAf?$AA?9?$AAZ?$AAA@ 000000014007a5b8     libucrt:lcidtoname_downlevel.obj
 0002:000085c8       ??_C@_1M@DPCLHLIE@?$AAk?$AAa?$AA?9?$AAG?$AAE@ 000000014007a5c8     libucrt:lcidtoname_downlevel.obj
 0002:000085d8       ??_C@_1M@BLKMHJBI@?$AAf?$AAo?$AA?9?$AAF?$AAO@ 000000014007a5d8     libucrt:lcidtoname_downlevel.obj
 0002:000085e8       ??_C@_1M@LGGJAPPB@?$AAh?$AAi?$AA?9?$AAI?$AAN@ 000000014007a5e8     libucrt:lcidtoname_downlevel.obj
 0002:000085f8       ??_C@_1M@FIKPIHFE@?$AAm?$AAt?$AA?9?$AAM?$AAT@ 000000014007a5f8     libucrt:lcidtoname_downlevel.obj
 0002:00008608       ??_C@_1M@HEGGPBFA@?$AAs?$AAe?$AA?9?$AAN?$AAO@ 000000014007a608     libucrt:lcidtoname_downlevel.obj
 0002:00008618       ??_C@_1M@EIBJEEPA@?$AAm?$AAs?$AA?9?$AAM?$AAY@ 000000014007a618     libucrt:lcidtoname_downlevel.obj
 0002:00008628       ??_C@_1M@FHLBGMPP@?$AAk?$AAk?$AA?9?$AAK?$AAZ@ 000000014007a628     libucrt:lcidtoname_downlevel.obj
 0002:00008638       ??_C@_1M@NGJJLCGI@?$AAk?$AAy?$AA?9?$AAK?$AAG@ 000000014007a638     libucrt:lcidtoname_downlevel.obj
 0002:00008648       ??_C@_1M@GIENNBFC@?$AAs?$AAw?$AA?9?$AAK?$AAE@ 000000014007a648     libucrt:lcidtoname_downlevel.obj
 0002:00008658       ??_C@_1BG@NDGMJIMJ@?$AAu?$AAz?$AA?9?$AAU?$AAZ?$AA?9?$AAL?$AAa?$AAt?$AAn@ 000000014007a658     libucrt:lcidtoname_downlevel.obj
 0002:00008678       ??_C@_1M@IDCCIHBC@?$AAt?$AAt?$AA?9?$AAR?$AAU@ 000000014007a678     libucrt:lcidtoname_downlevel.obj
 0002:00008688       ??_C@_1M@LOICPMOJ@?$AAb?$AAn?$AA?9?$AAI?$AAN@ 000000014007a688     libucrt:lcidtoname_downlevel.obj
 0002:00008698       ??_C@_1M@KPKKNEAH@?$AAp?$AAa?$AA?9?$AAI?$AAN@ 000000014007a698     libucrt:lcidtoname_downlevel.obj
 0002:000086a8       ??_C@_1M@PJGPPBOG@?$AAg?$AAu?$AA?9?$AAI?$AAN@ 000000014007a6a8     libucrt:lcidtoname_downlevel.obj
 0002:000086b8       ??_C@_1M@KMKMOPHI@?$AAt?$AAa?$AA?9?$AAI?$AAN@ 000000014007a6b8     libucrt:lcidtoname_downlevel.obj
 0002:000086c8       ??_C@_1M@KFEHEPAC@?$AAt?$AAe?$AA?9?$AAI?$AAN@ 000000014007a6c8     libucrt:lcidtoname_downlevel.obj
 0002:000086d8       ??_C@_1M@CDCLMGHI@?$AAk?$AAn?$AA?9?$AAI?$AAN@ 000000014007a6d8     libucrt:lcidtoname_downlevel.obj
 0002:000086e8       ??_C@_1M@MIODLDKF@?$AAm?$AAl?$AA?9?$AAI?$AAN@ 000000014007a6e8     libucrt:lcidtoname_downlevel.obj
 0002:000086f8       ??_C@_1M@PBIEACPO@?$AAm?$AAr?$AA?9?$AAI?$AAN@ 000000014007a6f8     libucrt:lcidtoname_downlevel.obj
 0002:00008708       ??_C@_1M@NIDEAGPH@?$AAs?$AAa?$AA?9?$AAI?$AAN@ 000000014007a708     libucrt:lcidtoname_downlevel.obj
 0002:00008718       ??_C@_1M@FHIHCBIO@?$AAm?$AAn?$AA?9?$AAM?$AAN@ 000000014007a718     libucrt:lcidtoname_downlevel.obj
 0002:00008728       ??_C@_1M@JAIJPENP@?$AAc?$AAy?$AA?9?$AAG?$AAB@ 000000014007a728     libucrt:lcidtoname_downlevel.obj
 0002:00008738       ??_C@_1M@PHGFBEPN@?$AAg?$AAl?$AA?9?$AAE?$AAS@ 000000014007a738     libucrt:lcidtoname_downlevel.obj
 0002:00008748       ??_C@_1O@KPIPDNCP@?$AAk?$AAo?$AAk?$AA?9?$AAI?$AAN@ 000000014007a748     libucrt:lcidtoname_downlevel.obj
 0002:00008758       ??_C@_1O@KNHJLDJA@?$AAs?$AAy?$AAr?$AA?9?$AAS?$AAY@ 000000014007a758     libucrt:lcidtoname_downlevel.obj
 0002:00008768       ??_C@_1O@MKEKBLAH@?$AAd?$AAi?$AAv?$AA?9?$AAM?$AAV@ 000000014007a768     libucrt:lcidtoname_downlevel.obj
 0002:00008778       ??_C@_1O@OHDCKDDF@?$AAq?$AAu?$AAz?$AA?9?$AAB?$AAO@ 000000014007a778     libucrt:lcidtoname_downlevel.obj
 0002:00008788       ??_C@_1M@LEPJNLFD@?$AAn?$AAs?$AA?9?$AAZ?$AAA@ 000000014007a788     libucrt:lcidtoname_downlevel.obj
 0002:00008798       ??_C@_1M@OMLEIIJB@?$AAm?$AAi?$AA?9?$AAN?$AAZ@ 000000014007a798     libucrt:lcidtoname_downlevel.obj
 0002:000087a8       ??_C@_1M@PMPEAILG@?$AAa?$AAr?$AA?9?$AAI?$AAQ@ 000000014007a7a8     libucrt:lcidtoname_downlevel.obj
 0002:000087b8       ??_C@_1M@CNKPNOEE@?$AAd?$AAe?$AA?9?$AAC?$AAH@ 000000014007a7b8     libucrt:lcidtoname_downlevel.obj
 0002:000087c8       ??_C@_1M@LKMGMLKO@?$AAe?$AAn?$AA?9?$AAG?$AAB@ 000000014007a7c8     libucrt:lcidtoname_downlevel.obj
 0002:000087d8       ??_C@_1M@PGKJFFGL@?$AAe?$AAs?$AA?9?$AAM?$AAX@ 000000014007a7d8     libucrt:lcidtoname_downlevel.obj
 0002:000087e8       ??_C@_1M@DNNANBDC@?$AAf?$AAr?$AA?9?$AAB?$AAE@ 000000014007a7e8     libucrt:lcidtoname_downlevel.obj
 0002:000087f8       ??_C@_1M@HLGMDFHM@?$AAi?$AAt?$AA?9?$AAC?$AAH@ 000000014007a7f8     libucrt:lcidtoname_downlevel.obj
 0002:00008808       ??_C@_1M@CLLBGJH@?$AAn?$AAl?$AA?9?$AAB?$AAE@ 000000014007a808     libucrt:lcidtoname_downlevel.obj
 0002:00008818       ??_C@_1M@BODBOGLF@?$AAn?$AAn?$AA?9?$AAN?$AAO@ 000000014007a818     libucrt:lcidtoname_downlevel.obj
 0002:00008828       ??_C@_1M@HFFAHKAD@?$AAp?$AAt?$AA?9?$AAP?$AAT@ 000000014007a828     libucrt:lcidtoname_downlevel.obj
 0002:00008838       ??_C@_1BG@LNOAKHIE@?$AAs?$AAr?$AA?9?$AAS?$AAP?$AA?9?$AAL?$AAa?$AAt?$AAn@ 000000014007a838     libucrt:lcidtoname_downlevel.obj
 0002:00008858       ??_C@_1M@HBMHBGAK@?$AAs?$AAv?$AA?9?$AAF?$AAI@ 000000014007a858     libucrt:lcidtoname_downlevel.obj
 0002:00008868       ??_C@_1BG@DGCJGJBE@?$AAa?$AAz?$AA?9?$AAA?$AAZ?$AA?9?$AAC?$AAy?$AAr?$AAl@ 000000014007a868     libucrt:lcidtoname_downlevel.obj
 0002:00008888       ??_C@_1M@KEJDAAHB@?$AAs?$AAe?$AA?9?$AAS?$AAE@ 000000014007a888     libucrt:lcidtoname_downlevel.obj
 0002:00008898       ??_C@_1M@HEIBJJAD@?$AAm?$AAs?$AA?9?$AAB?$AAN@ 000000014007a898     libucrt:lcidtoname_downlevel.obj
 0002:000088a8       ??_C@_1BG@PBGJMCEM@?$AAu?$AAz?$AA?9?$AAU?$AAZ?$AA?9?$AAC?$AAy?$AAr?$AAl@ 000000014007a8a8     libucrt:lcidtoname_downlevel.obj
 0002:000088c8       ??_C@_1O@LAOBCMDF@?$AAq?$AAu?$AAz?$AA?9?$AAE?$AAC@ 000000014007a8c8     libucrt:lcidtoname_downlevel.obj
 0002:000088d8       ??_C@_1M@POEEMAIO@?$AAa?$AAr?$AA?9?$AAE?$AAG@ 000000014007a8d8     libucrt:lcidtoname_downlevel.obj
 0002:000088e8       ??_C@_1M@EFAKDEDL@?$AAz?$AAh?$AA?9?$AAH?$AAK@ 000000014007a8e8     libucrt:lcidtoname_downlevel.obj
 0002:000088f8       ??_C@_1M@HKKIJHGI@?$AAd?$AAe?$AA?9?$AAA?$AAT@ 000000014007a8f8     libucrt:lcidtoname_downlevel.obj
 0002:00008908       ??_C@_1M@KBFBEHJF@?$AAe?$AAn?$AA?9?$AAA?$AAU@ 000000014007a908     libucrt:lcidtoname_downlevel.obj
 0002:00008918       ??_C@_1M@MNPLFAAH@?$AAe?$AAs?$AA?9?$AAE?$AAS@ 000000014007a918     libucrt:lcidtoname_downlevel.obj
 0002:00008928       ??_C@_1M@HJOOJFMA@?$AAf?$AAr?$AA?9?$AAC?$AAA@ 000000014007a928     libucrt:lcidtoname_downlevel.obj
 0002:00008938       ??_C@_1BG@JPOFPNAB@?$AAs?$AAr?$AA?9?$AAS?$AAP?$AA?9?$AAC?$AAy?$AAr?$AAl@ 000000014007a938     libucrt:lcidtoname_downlevel.obj
 0002:00008958       ??_C@_1M@LNFOCMOB@?$AAs?$AAe?$AA?9?$AAF?$AAI@ 000000014007a958     libucrt:lcidtoname_downlevel.obj
 0002:00008968       ??_C@_1O@MGJBOAMB@?$AAq?$AAu?$AAz?$AA?9?$AAP?$AAE@ 000000014007a968     libucrt:lcidtoname_downlevel.obj
 0002:00008978       ??_C@_1M@GJINLBOK@?$AAa?$AAr?$AA?9?$AAL?$AAY@ 000000014007a978     libucrt:lcidtoname_downlevel.obj
 0002:00008988       ??_C@_1M@GGMNHJNL@?$AAz?$AAh?$AA?9?$AAS?$AAG@ 000000014007a988     libucrt:lcidtoname_downlevel.obj
 0002:00008998       ??_C@_1M@HOIKODND@?$AAd?$AAe?$AA?9?$AAL?$AAU@ 000000014007a998     libucrt:lcidtoname_downlevel.obj
 0002:000089a8       ??_C@_1M@DDOCCGFG@?$AAe?$AAn?$AA?9?$AAC?$AAA@ 000000014007a9a8     libucrt:lcidtoname_downlevel.obj
 0002:000089b8       ??_C@_1M@BNOEMJLF@?$AAe?$AAs?$AA?9?$AAG?$AAT@ 000000014007a9b8     libucrt:lcidtoname_downlevel.obj
 0002:000089c8       ??_C@_1M@EOGNKEK@?$AAf?$AAr?$AA?9?$AAC?$AAH@ 000000014007a9c8     libucrt:lcidtoname_downlevel.obj
 0002:000089d8       ??_C@_1M@FLIDJFHL@?$AAh?$AAr?$AA?9?$AAB?$AAA@ 000000014007a9d8     libucrt:lcidtoname_downlevel.obj
 0002:000089e8       ??_C@_1O@FMCELNAJ@?$AAs?$AAm?$AAj?$AA?9?$AAN?$AAO@ 000000014007a9e8     libucrt:lcidtoname_downlevel.obj
 0002:000089f8       ??_C@_1M@JHGLJMGJ@?$AAa?$AAr?$AA?9?$AAD?$AAZ@ 000000014007a9f8     libucrt:lcidtoname_downlevel.obj
 0002:00008a08       ??_C@_1M@JKKFDCNP@?$AAz?$AAh?$AA?9?$AAM?$AAO@ 000000014007aa08     libucrt:lcidtoname_downlevel.obj
 0002:00008a18       ??_C@_1M@GEEFALPE@?$AAd?$AAe?$AA?9?$AAL?$AAI@ 000000014007aa18     libucrt:lcidtoname_downlevel.obj
 0002:00008a28       ??_C@_1M@IGEOFBG@?$AAe?$AAn?$AA?9?$AAN?$AAZ@ 000000014007aa28     libucrt:lcidtoname_downlevel.obj
 0002:00008a38       ??_C@_1M@KDBONEHP@?$AAe?$AAs?$AA?9?$AAC?$AAR@ 000000014007aa38     libucrt:lcidtoname_downlevel.obj
 0002:00008a48       ??_C@_1M@FHMDOHNN@?$AAf?$AAr?$AA?9?$AAL?$AAU@ 000000014007aa48     libucrt:lcidtoname_downlevel.obj
 0002:00008a58       ??_C@_1BG@NFKKMAFG@?$AAb?$AAs?$AA?9?$AAB?$AAA?$AA?9?$AAL?$AAa?$AAt?$AAn@ 000000014007aa58     libucrt:lcidtoname_downlevel.obj
 0002:00008a78       ??_C@_1O@IMNBEMCI@?$AAs?$AAm?$AAj?$AA?9?$AAS?$AAE@ 000000014007aa78     libucrt:lcidtoname_downlevel.obj
 0002:00008a88       ??_C@_1M@DHHMBNDP@?$AAa?$AAr?$AA?9?$AAM?$AAA@ 000000014007aa88     libucrt:lcidtoname_downlevel.obj
 0002:00008a98       ??_C@_1M@BNBLJCGH@?$AAe?$AAn?$AA?9?$AAI?$AAE@ 000000014007aa98     libucrt:lcidtoname_downlevel.obj
 0002:00008aa8       ??_C@_1M@GEPAFMDL@?$AAe?$AAs?$AA?9?$AAP?$AAA@ 000000014007aaa8     libucrt:lcidtoname_downlevel.obj
 0002:00008ab8       ??_C@_1M@OJONDMDL@?$AAf?$AAr?$AA?9?$AAM?$AAC@ 000000014007aab8     libucrt:lcidtoname_downlevel.obj
 0002:00008ac8       ??_C@_1BG@OBCNFJB@?$AAs?$AAr?$AA?9?$AAB?$AAA?$AA?9?$AAL?$AAa?$AAt?$AAn@ 000000014007aac8     libucrt:lcidtoname_downlevel.obj
 0002:00008ae8       ??_C@_1O@KEMEEGPO@?$AAs?$AAm?$AAa?$AA?9?$AAN?$AAO@ 000000014007aae8     libucrt:lcidtoname_downlevel.obj
 0002:00008af8       ??_C@_1M@ELMGFODK@?$AAa?$AAr?$AA?9?$AAT?$AAN@ 000000014007aaf8     libucrt:lcidtoname_downlevel.obj
 0002:00008b08       ??_C@_1M@BHDLHFAF@?$AAe?$AAn?$AA?9?$AAZ?$AAA@ 000000014007ab08     libucrt:lcidtoname_downlevel.obj
 0002:00008b18       ??_C@_1M@BMGIGLIF@?$AAe?$AAs?$AA?9?$AAD?$AAO@ 000000014007ab18     libucrt:lcidtoname_downlevel.obj
 0002:00008b28       ??_C@_1BG@CMBHIPBE@?$AAs?$AAr?$AA?9?$AAB?$AAA?$AA?9?$AAC?$AAy?$AAr?$AAl@ 000000014007ab28     libucrt:lcidtoname_downlevel.obj
 0002:00008b48       ??_C@_1O@HEDBLHNP@?$AAs?$AAm?$AAa?$AA?9?$AAS?$AAE@ 000000014007ab48     libucrt:lcidtoname_downlevel.obj
 0002:00008b58       ??_C@_1M@DAGCADIM@?$AAa?$AAr?$AA?9?$AAO?$AAM@ 000000014007ab58     libucrt:lcidtoname_downlevel.obj
 0002:00008b68       ??_C@_1M@FODLMICG@?$AAe?$AAn?$AA?9?$AAJ?$AAM@ 000000014007ab68     libucrt:lcidtoname_downlevel.obj
 0002:00008b78       ??_C@_1M@DNMLCIHB@?$AAe?$AAs?$AA?9?$AAV?$AAE@ 000000014007ab78     libucrt:lcidtoname_downlevel.obj
 0002:00008b88       ??_C@_1O@EOKHMKJK@?$AAs?$AAm?$AAs?$AA?9?$AAF?$AAI@ 000000014007ab88     libucrt:lcidtoname_downlevel.obj
 0002:00008b98       ??_C@_1M@CAFJMKOF@?$AAa?$AAr?$AA?9?$AAY?$AAE@ 000000014007ab98     libucrt:lcidtoname_downlevel.obj
 0002:00008ba8       ??_C@_1M@CBFHIJLI@?$AAe?$AAn?$AA?9?$AAC?$AAB@ 000000014007aba8     libucrt:lcidtoname_downlevel.obj
 0002:00008bb8       ??_C@_1M@BGNFLDN@?$AAe?$AAs?$AA?9?$AAC?$AAO@ 000000014007abb8     libucrt:lcidtoname_downlevel.obj
 0002:00008bc8       ??_C@_1O@JMPHMAMC@?$AAs?$AAm?$AAn?$AA?9?$AAF?$AAI@ 000000014007abc8     libucrt:lcidtoname_downlevel.obj
 0002:00008bd8       ??_C@_1M@JLANABKE@?$AAa?$AAr?$AA?9?$AAS?$AAY@ 000000014007abd8     libucrt:lcidtoname_downlevel.obj
 0002:00008be8       ??_C@_1M@HPKGCFGN@?$AAe?$AAn?$AA?9?$AAB?$AAZ@ 000000014007abe8     libucrt:lcidtoname_downlevel.obj
 0002:00008bf8       ??_C@_1M@OLJCMLGM@?$AAe?$AAs?$AA?9?$AAP?$AAE@ 000000014007abf8     libucrt:lcidtoname_downlevel.obj
 0002:00008c08       ??_C@_1M@MKKGFKLE@?$AAa?$AAr?$AA?9?$AAJ?$AAO@ 000000014007ac08     libucrt:lcidtoname_downlevel.obj
 0002:00008c18       ??_C@_1M@EKPGLDNI@?$AAe?$AAn?$AA?9?$AAT?$AAT@ 000000014007ac18     libucrt:lcidtoname_downlevel.obj
 0002:00008c28       ??_C@_1M@OONGHFHE@?$AAe?$AAs?$AA?9?$AAA?$AAR@ 000000014007ac28     libucrt:lcidtoname_downlevel.obj
 0002:00008c38       ??_C@_1M@OOJFGBHE@?$AAa?$AAr?$AA?9?$AAL?$AAB@ 000000014007ac38     libucrt:lcidtoname_downlevel.obj
 0002:00008c48       ??_C@_1M@GCEJHNEG@?$AAe?$AAn?$AA?9?$AAZ?$AAW@ 000000014007ac48     libucrt:lcidtoname_downlevel.obj
 0002:00008c58       ??_C@_1M@JNOCAHJI@?$AAe?$AAs?$AA?9?$AAE?$AAC@ 000000014007ac58     libucrt:lcidtoname_downlevel.obj
 0002:00008c68       ??_C@_1M@JEFHPGGB@?$AAa?$AAr?$AA?9?$AAK?$AAW@ 000000014007ac68     libucrt:lcidtoname_downlevel.obj
 0002:00008c78       ??_C@_1M@MLKIBJOJ@?$AAe?$AAn?$AA?9?$AAP?$AAH@ 000000014007ac78     libucrt:lcidtoname_downlevel.obj
 0002:00008c88       ??_C@_1M@BDNIPEND@?$AAe?$AAs?$AA?9?$AAC?$AAL@ 000000014007ac88     libucrt:lcidtoname_downlevel.obj
 0002:00008c98       ??_C@_1M@MPNMEKBD@?$AAa?$AAr?$AA?9?$AAA?$AAE@ 000000014007ac98     libucrt:lcidtoname_downlevel.obj
 0002:00008ca8       ??_C@_1M@KBJALCPI@?$AAe?$AAs?$AA?9?$AAU?$AAY@ 000000014007aca8     libucrt:lcidtoname_downlevel.obj
 0002:00008cb8       ??_C@_1M@LLCCOAGA@?$AAa?$AAr?$AA?9?$AAB?$AAH@ 000000014007acb8     libucrt:lcidtoname_downlevel.obj
 0002:00008cc8       ??_C@_1M@PBFNCDEL@?$AAe?$AAs?$AA?9?$AAP?$AAY@ 000000014007acc8     libucrt:lcidtoname_downlevel.obj
 0002:00008cd8       ??_C@_1M@EDGINPNP@?$AAa?$AAr?$AA?9?$AAQ?$AAA@ 000000014007acd8     libucrt:lcidtoname_downlevel.obj
 0002:00008ce8       ??_C@_1M@MKDBIIJI@?$AAe?$AAs?$AA?9?$AAB?$AAO@ 000000014007ace8     libucrt:lcidtoname_downlevel.obj
 0002:00008cf8       ??_C@_1M@CPKKEBLD@?$AAe?$AAs?$AA?9?$AAS?$AAV@ 000000014007acf8     libucrt:lcidtoname_downlevel.obj
 0002:00008d08       ??_C@_1M@NDBGMMJL@?$AAe?$AAs?$AA?9?$AAH?$AAN@ 000000014007ad08     libucrt:lcidtoname_downlevel.obj
 0002:00008d18       ??_C@_1M@JIJIBHDP@?$AAe?$AAs?$AA?9?$AAN?$AAI@ 000000014007ad18     libucrt:lcidtoname_downlevel.obj
 0002:00008d28       ??_C@_1M@CGFMKEEK@?$AAe?$AAs?$AA?9?$AAP?$AAR@ 000000014007ad28     libucrt:lcidtoname_downlevel.obj
 0002:00008d38       ??_C@_1O@ICJHKIIK@?$AAz?$AAh?$AA?9?$AAC?$AAH?$AAT@ 000000014007ad38     libucrt:lcidtoname_downlevel.obj
 0002:00008d48       ??_C@_15CLNEJCE@?$AAs?$AAr@ 000000014007ad48     libucrt:lcidtoname_downlevel.obj
 0002:00009e70       ??_C@_1M@KAHEKEIG@?$AAa?$AAf?$AA?9?$AAz?$AAa@ 000000014007be70     libucrt:lcidtoname_downlevel.obj
 0002:00009e80       ??_C@_1M@GIECOABL@?$AAa?$AAr?$AA?9?$AAa?$AAe@ 000000014007be80     libucrt:lcidtoname_downlevel.obj
 0002:00009e90       ??_C@_1M@BMLMEKGI@?$AAa?$AAr?$AA?9?$AAb?$AAh@ 000000014007be90     libucrt:lcidtoname_downlevel.obj
 0002:00009ea0       ??_C@_1M@DAPFDGGB@?$AAa?$AAr?$AA?9?$AAd?$AAz@ 000000014007bea0     libucrt:lcidtoname_downlevel.obj
 0002:00009eb0       ??_C@_1M@FJNKGKIG@?$AAa?$AAr?$AA?9?$AAe?$AAg@ 000000014007beb0     libucrt:lcidtoname_downlevel.obj
 0002:00009ec0       ??_C@_1M@FLGKKCLO@?$AAa?$AAr?$AA?9?$AAi?$AAq@ 000000014007bec0     libucrt:lcidtoname_downlevel.obj
 0002:00009ed0       ??_C@_1M@GNDIPALM@?$AAa?$AAr?$AA?9?$AAj?$AAo@ 000000014007bed0     libucrt:lcidtoname_downlevel.obj
 0002:00009ee0       ??_C@_1M@DDMJFMGJ@?$AAa?$AAr?$AA?9?$AAk?$AAw@ 000000014007bee0     libucrt:lcidtoname_downlevel.obj
 0002:00009ef0       ??_C@_1M@EJALMLHM@?$AAa?$AAr?$AA?9?$AAl?$AAb@ 000000014007bef0     libucrt:lcidtoname_downlevel.obj
 0002:00009f00       ??_C@_1M@MOBDBLOC@?$AAa?$AAr?$AA?9?$AAl?$AAy@ 000000014007bf00     libucrt:lcidtoname_downlevel.obj
 0002:00009f10       ??_C@_1M@JAOCLHDH@?$AAa?$AAr?$AA?9?$AAm?$AAa@ 000000014007bf10     libucrt:lcidtoname_downlevel.obj
 0002:00009f20       ??_C@_1M@JHPMKJIE@?$AAa?$AAr?$AA?9?$AAo?$AAm@ 000000014007bf20     libucrt:lcidtoname_downlevel.obj
 0002:00009f30       ??_C@_1M@OEPGHFNH@?$AAa?$AAr?$AA?9?$AAq?$AAa@ 000000014007bf30     libucrt:lcidtoname_downlevel.obj
 0002:00009f40       ??_C@_1M@KJDONENM@?$AAa?$AAr?$AA?9?$AAs?$AAa@ 000000014007bf40     libucrt:lcidtoname_downlevel.obj
 0002:00009f50       ??_C@_1M@DMJDKLKM@?$AAa?$AAr?$AA?9?$AAs?$AAy@ 000000014007bf50     libucrt:lcidtoname_downlevel.obj
 0002:00009f60       ??_C@_1M@OMFIPEDC@?$AAa?$AAr?$AA?9?$AAt?$AAn@ 000000014007bf60     libucrt:lcidtoname_downlevel.obj
 0002:00009f70       ??_C@_1M@IHMHGAON@?$AAa?$AAr?$AA?9?$AAy?$AAe@ 000000014007bf70     libucrt:lcidtoname_downlevel.obj
 0002:00009f80       ??_C@_1BG@KDCPGJGB@?$AAa?$AAz?$AA?9?$AAa?$AAz?$AA?9?$AAc?$AAy?$AAr?$AAl@ 000000014007bf80     libucrt:lcidtoname_downlevel.obj
 0002:00009fa0       ??_C@_1BG@IBCKDDOE@?$AAa?$AAz?$AA?9?$AAa?$AAz?$AA?9?$AAl?$AAa?$AAt?$AAn@ 000000014007bfa0     libucrt:lcidtoname_downlevel.obj
 0002:00009fc0       ??_C@_1M@EGPFDCPD@?$AAb?$AAe?$AA?9?$AAb?$AAy@ 000000014007bfc0     libucrt:lcidtoname_downlevel.obj
 0002:00009fd0       ??_C@_1M@PCMGMCGC@?$AAb?$AAg?$AA?9?$AAb?$AAg@ 000000014007bfd0     libucrt:lcidtoname_downlevel.obj
 0002:00009fe0       ??_C@_1M@BJBMFGOB@?$AAb?$AAn?$AA?9?$AAi?$AAn@ 000000014007bfe0     libucrt:lcidtoname_downlevel.obj
 0002:00009ff0       ??_C@_1BG@EAKMMACD@?$AAb?$AAs?$AA?9?$AAb?$AAa?$AA?9?$AAl?$AAa?$AAt?$AAn@ 000000014007bff0     libucrt:lcidtoname_downlevel.obj
 0002:0000a010       ??_C@_1M@KGADAODK@?$AAc?$AAa?$AA?9?$AAe?$AAs@ 000000014007c010     libucrt:lcidtoname_downlevel.obj
 0002:0000a020       ??_C@_1M@COAJPDHI@?$AAc?$AAs?$AA?9?$AAc?$AAz@ 000000014007c020     libucrt:lcidtoname_downlevel.obj
 0002:0000a030       ??_C@_1M@DHBHFONH@?$AAc?$AAy?$AA?9?$AAg?$AAb@ 000000014007c030     libucrt:lcidtoname_downlevel.obj
 0002:0000a040       ??_C@_1M@IMGKELGA@?$AAd?$AAa?$AA?9?$AAd?$AAk@ 000000014007c040     libucrt:lcidtoname_downlevel.obj
 0002:0000a050       ??_C@_1M@NNDGDNGA@?$AAd?$AAe?$AA?9?$AAa?$AAt@ 000000014007c050     libucrt:lcidtoname_downlevel.obj
